Archive member included because of file (symbol)

/usr/local/popcorn/x86_64/lib/libc.a(__libc_start_main.o)
                              /usr/local/popcorn/x86_64/lib/crt1.o (__libc_start_main)
/usr/local/popcorn/x86_64/lib/libc.a(exit.o)
                              /usr/local/popcorn/x86_64/lib/libc.a(__libc_start_main.o) (exit)
/usr/local/popcorn/x86_64/lib/libc.a(libc.o)
                              /usr/local/popcorn/x86_64/lib/libc.a(__libc_start_main.o) (__hwcap)
/usr/local/popcorn/x86_64/lib/libc.a(perror.o)
                              popcorn-migratemep_x86_64.o (perror)
/usr/local/popcorn/x86_64/lib/libc.a(printf.o)
                              popcorn-migratemep_x86_64.o (printf)
/usr/local/popcorn/x86_64/lib/libc.a(stderr.o)
                              /usr/local/popcorn/x86_64/lib/libc.a(perror.o) (stderr)
/usr/local/popcorn/x86_64/lib/libc.a(stdout.o)
                              /usr/local/popcorn/x86_64/lib/libc.a(printf.o) (stdout)
/usr/local/popcorn/x86_64/lib/libc.a(vfprintf.o)
                              /usr/local/popcorn/x86_64/lib/libc.a(printf.o) (vfprintf)
/usr/local/popcorn/x86_64/lib/libc.a(strlen.o)
                              /usr/local/popcorn/x86_64/lib/libc.a(perror.o) (strlen)
/usr/local/popcorn/x86_64/lib/libc.a(strnlen.o)
                              /usr/local/popcorn/x86_64/lib/libc.a(vfprintf.o) (strnlen)
/usr/local/popcorn/x86_64/lib/libc.a(memset.o)
                              /usr/local/popcorn/x86_64/lib/libc.a(__libc_start_main.o) (memset)
/usr/local/popcorn/x86_64/lib/libc.a(pthread_create.o)
                              popcorn-migratemep_x86_64.o (pthread_create)
/usr/local/popcorn/x86_64/lib/libc.a(pthread_join.o)
                              popcorn-migratemep_x86_64.o (pthread_join)
/usr/local/popcorn/x86_64/lib/libc.a(pthread_setcancelstate.o)
                              /usr/local/popcorn/x86_64/lib/libc.a(pthread_join.o) (__pthread_setcancelstate)
/usr/local/popcorn/x86_64/lib/libc.a(pthread_testcancel.o)
                              /usr/local/popcorn/x86_64/lib/libc.a(pthread_join.o) (__pthread_testcancel)
/usr/local/popcorn/x86_64/lib/libc.a(vmlock.o)
                              /usr/local/popcorn/x86_64/lib/libc.a(pthread_create.o) (__vm_lock)
/usr/local/popcorn/x86_64/lib/libc.a(__cleartid_exit_nostack.o)
                              /usr/local/popcorn/x86_64/lib/libc.a(pthread_create.o) (__cleartid_exit_nostack)
/usr/local/popcorn/x86_64/lib/libc.a(__unmapself.o)
                              /usr/local/popcorn/x86_64/lib/libc.a(pthread_create.o) (__unmapself)
/usr/local/popcorn/x86_64/lib/libc.a(clone.o)
                              /usr/local/popcorn/x86_64/lib/libc.a(pthread_create.o) (__clone)
/usr/local/popcorn/x86_64/lib/libc.a(getpid.o)
                              popcorn-migratemep_x86_64.o (getpid)
/usr/local/popcorn/x86_64/lib/libc.a(gettid.o)
                              popcorn-migratemep_x86_64.o (gettid)
/usr/local/popcorn/x86_64/lib/libc.a(sleep.o)
                              popcorn-migratemep_x86_64.o (sleep)
/usr/local/popcorn/x86_64/lib/libc.a(__environ.o)
                              /usr/local/popcorn/x86_64/lib/libc.a(__libc_start_main.o) (__environ)
/usr/local/popcorn/x86_64/lib/libc.a(__init_tls.o)
                              /usr/local/popcorn/x86_64/lib/libc.a(pthread_create.o) (__copy_tls)
/usr/local/popcorn/x86_64/lib/libc.a(__errno_location.o)
                              /usr/local/popcorn/x86_64/lib/libc.a(perror.o) (__errno_location)
/usr/local/popcorn/x86_64/lib/libc.a(strerror.o)
                              /usr/local/popcorn/x86_64/lib/libc.a(perror.o) (strerror)
/usr/local/popcorn/x86_64/lib/libc.a(_Exit.o)
                              /usr/local/popcorn/x86_64/lib/libc.a(exit.o) (_Exit)
/usr/local/popcorn/x86_64/lib/libc.a(__lctrans.o)
                              /usr/local/popcorn/x86_64/lib/libc.a(strerror.o) (__lctrans)
/usr/local/popcorn/x86_64/lib/libc.a(__fpclassifyl.o)
                              /usr/local/popcorn/x86_64/lib/libc.a(vfprintf.o) (__fpclassifyl)
/usr/local/popcorn/x86_64/lib/libc.a(__signbitl.o)
                              /usr/local/popcorn/x86_64/lib/libc.a(vfprintf.o) (__signbitl)
/usr/local/popcorn/x86_64/lib/libc.a(frexpl.o)
                              /usr/local/popcorn/x86_64/lib/libc.a(vfprintf.o) (frexpl)
/usr/local/popcorn/x86_64/lib/libc.a(mmap.o)
                              /usr/local/popcorn/x86_64/lib/libc.a(pthread_create.o) (__mmap)
/usr/local/popcorn/x86_64/lib/libc.a(mprotect.o)
                              /usr/local/popcorn/x86_64/lib/libc.a(pthread_create.o) (__mprotect)
/usr/local/popcorn/x86_64/lib/libc.a(munmap.o)
                              /usr/local/popcorn/x86_64/lib/libc.a(pthread_create.o) (__munmap)
/usr/local/popcorn/x86_64/lib/libc.a(wctomb.o)
                              /usr/local/popcorn/x86_64/lib/libc.a(vfprintf.o) (wctomb)
/usr/local/popcorn/x86_64/lib/libc.a(block.o)
                              /usr/local/popcorn/x86_64/lib/libc.a(pthread_create.o) (__block_all_sigs)
/usr/local/popcorn/x86_64/lib/libc.a(__lockfile.o)
                              /usr/local/popcorn/x86_64/lib/libc.a(perror.o) (__lockfile)
/usr/local/popcorn/x86_64/lib/libc.a(__stdio_close.o)
                              /usr/local/popcorn/x86_64/lib/libc.a(stderr.o) (__stdio_close)
/usr/local/popcorn/x86_64/lib/libc.a(__stdio_seek.o)
                              /usr/local/popcorn/x86_64/lib/libc.a(stderr.o) (__stdio_seek)
/usr/local/popcorn/x86_64/lib/libc.a(__stdio_write.o)
                              /usr/local/popcorn/x86_64/lib/libc.a(stderr.o) (__stdio_write)
/usr/local/popcorn/x86_64/lib/libc.a(__stdout_write.o)
                              /usr/local/popcorn/x86_64/lib/libc.a(stdout.o) (__stdout_write)
/usr/local/popcorn/x86_64/lib/libc.a(fputc.o)
                              /usr/local/popcorn/x86_64/lib/libc.a(perror.o) (fputc)
/usr/local/popcorn/x86_64/lib/libc.a(fwrite.o)
                              /usr/local/popcorn/x86_64/lib/libc.a(vfprintf.o) (__fwritex)
/usr/local/popcorn/x86_64/lib/libc.a(ofl.o)
                              /usr/local/popcorn/x86_64/lib/libc.a(pthread_create.o) (__ofl_lock)
/usr/local/popcorn/x86_64/lib/libc.a(memchr.o)
                              /usr/local/popcorn/x86_64/lib/libc.a(strnlen.o) (memchr)
/usr/local/popcorn/x86_64/lib/libc.a(memcpy.o)
                              /usr/local/popcorn/x86_64/lib/libc.a(__init_tls.o) (memcpy)
/usr/local/popcorn/x86_64/lib/libc.a(__lock.o)
                              /usr/local/popcorn/x86_64/lib/libc.a(pthread_create.o) (__lock)
/usr/local/popcorn/x86_64/lib/libc.a(__timedwait.o)
                              /usr/local/popcorn/x86_64/lib/libc.a(pthread_join.o) (__timedwait_cp)
/usr/local/popcorn/x86_64/lib/libc.a(__wait.o)
                              /usr/local/popcorn/x86_64/lib/libc.a(pthread_create.o) (__wait)
/usr/local/popcorn/x86_64/lib/libc.a(__set_thread_area.o)
                              /usr/local/popcorn/x86_64/lib/libc.a(__init_tls.o) (__set_thread_area)
/usr/local/popcorn/x86_64/lib/libc.a(clock_gettime.o)
                              /usr/local/popcorn/x86_64/lib/libc.a(__timedwait.o) (__clock_gettime)
/usr/local/popcorn/x86_64/lib/libc.a(nanosleep.o)
                              /usr/local/popcorn/x86_64/lib/libc.a(sleep.o) (nanosleep)
/usr/local/popcorn/x86_64/lib/libc.a(syscall_ret.o)
                              /usr/local/popcorn/x86_64/lib/libc.a(mmap.o) (__syscall_ret)
/usr/local/popcorn/x86_64/lib/libc.a(wcrtomb.o)
                              /usr/local/popcorn/x86_64/lib/libc.a(wctomb.o) (wcrtomb)
/usr/local/popcorn/x86_64/lib/libc.a(__overflow.o)
                              /usr/local/popcorn/x86_64/lib/libc.a(fputc.o) (__overflow)
/usr/local/popcorn/x86_64/lib/libc.a(__towrite.o)
                              /usr/local/popcorn/x86_64/lib/libc.a(fwrite.o) (__towrite)
/usr/local/popcorn/x86_64/lib/libc.a(__syscall_cp.o)
                              /usr/local/popcorn/x86_64/lib/libc.a(__timedwait.o) (__syscall_cp)
/usr/local/popcorn/x86_64/lib/libc.a(syscall.o)
                              /usr/local/popcorn/x86_64/lib/libc.a(__syscall_cp.o) (__syscall)
/usr/local/popcorn/x86_64/lib/libc.a(__stdio_exit.o)
                              /usr/local/popcorn/x86_64/lib/libc.a(__towrite.o) (__stdio_exit_needed)
/usr/local/popcorn/x86_64/lib/libmigrate.a(migrate.o)
                              popcorn-migratemep_x86_64.o (check_migrate)
/usr/local/popcorn/x86_64/lib/libmigrate.a(trigger.o)
                              /usr/local/popcorn/x86_64/lib/libmigrate.a(migrate.o) (clear_migrate_flag)
/usr/local/popcorn/x86_64/lib/libmigrate.a(migrate_x86_64.o)
                              /usr/local/popcorn/x86_64/lib/libmigrate.a(migrate.o) (__migrate_fixup_x86_64)
/usr/local/popcorn/x86_64/lib/libmigrate.a(migrate_aarch64.o)
                              /usr/local/popcorn/x86_64/lib/libmigrate.a(migrate.o) (__migrate_fixup_aarch64)
/usr/local/popcorn/x86_64/lib/libmigrate.a(migrate_powerpc64.o)
                              /usr/local/popcorn/x86_64/lib/libmigrate.a(migrate.o) (__migrate_fixup_powerpc64)
/usr/local/popcorn/x86_64/lib/libmigrate.a(mapping.o)
                              /usr/local/popcorn/x86_64/lib/libmigrate.a(migrate.o) (get_node_mapping)
/usr/local/popcorn/x86_64/lib/libstack-transform.a(userspace.o)
                              /usr/local/popcorn/x86_64/lib/libmigrate.a(migrate.o) (st_userspace_rewrite)
/usr/local/popcorn/x86_64/lib/libstack-transform.a(init.o)
                              /usr/local/popcorn/x86_64/lib/libstack-transform.a(userspace.o) (st_destroy)
/usr/local/popcorn/x86_64/lib/libstack-transform.a(rewrite.o)
                              /usr/local/popcorn/x86_64/lib/libstack-transform.a(userspace.o) (st_rewrite_stack)
/usr/local/popcorn/x86_64/lib/libstack-transform.a(unwind.o)
                              /usr/local/popcorn/x86_64/lib/libstack-transform.a(rewrite.o) (bootstrap_first_frame)
/usr/local/popcorn/x86_64/lib/libstack-transform.a(util.o)
                              /usr/local/popcorn/x86_64/lib/libstack-transform.a(rewrite.o) (get_function_address)
/usr/local/popcorn/x86_64/lib/libstack-transform.a(properties.o)
                              /usr/local/popcorn/x86_64/lib/libstack-transform.a(util.o) (properties_aarch64)
/usr/local/popcorn/x86_64/lib/libstack-transform.a(regs.o)
                              /usr/local/popcorn/x86_64/lib/libstack-transform.a(util.o) (regs_aarch64)
/usr/local/popcorn/x86_64/lib/libstack-transform.a(properties.o)
                              /usr/local/popcorn/x86_64/lib/libstack-transform.a(util.o) (properties_powerpc64)
/usr/local/popcorn/x86_64/lib/libstack-transform.a(regs.o)
                              /usr/local/popcorn/x86_64/lib/libstack-transform.a(util.o) (regs_powerpc64)
/usr/local/popcorn/x86_64/lib/libstack-transform.a(properties.o)
                              /usr/local/popcorn/x86_64/lib/libstack-transform.a(util.o) (properties_x86_64)
/usr/local/popcorn/x86_64/lib/libstack-transform.a(regs.o)
                              /usr/local/popcorn/x86_64/lib/libstack-transform.a(util.o) (regs_x86_64)
/usr/local/popcorn/x86_64/lib/libstack-transform.a(data.o)
                              /usr/local/popcorn/x86_64/lib/libstack-transform.a(rewrite.o) (get_savedfbp_loc)
/usr/local/popcorn/x86_64/lib/libelf.a(begin.o)
                              /usr/local/popcorn/x86_64/lib/libstack-transform.a(init.o) (elf_begin)
/usr/local/popcorn/x86_64/lib/libelf.a(end.o)
                              /usr/local/popcorn/x86_64/lib/libstack-transform.a(init.o) (elf_end)
/usr/local/popcorn/x86_64/lib/libelf.a(getdata.o)
                              /usr/local/popcorn/x86_64/lib/libstack-transform.a(util.o) (elf_getdata)
/usr/local/popcorn/x86_64/lib/libelf.a(getident.o)
                              /usr/local/popcorn/x86_64/lib/libstack-transform.a(init.o) (elf_getident)
/usr/local/popcorn/x86_64/lib/libelf.a(nextscn.o)
                              /usr/local/popcorn/x86_64/lib/libstack-transform.a(util.o) (elf_nextscn)
/usr/local/popcorn/x86_64/lib/libelf.a(strptr.o)
                              /usr/local/popcorn/x86_64/lib/libstack-transform.a(util.o) (elf_strptr)
/usr/local/popcorn/x86_64/lib/libelf.a(version.o)
                              /usr/local/popcorn/x86_64/lib/libstack-transform.a(userspace.o) (elf_version)
/usr/local/popcorn/x86_64/lib/libelf.a(32.getehdr.o)
                              /usr/local/popcorn/x86_64/lib/libstack-transform.a(init.o) (elf64_getehdr)
/usr/local/popcorn/x86_64/lib/libelf.a(32.xlatetof.o)
                              /usr/local/popcorn/x86_64/lib/libelf.a(getdata.o) (_elf32_xltsize)
/usr/local/popcorn/x86_64/lib/libelf.a(cook.o)
                              /usr/local/popcorn/x86_64/lib/libelf.a(getident.o) (_elf_cook)
/usr/local/popcorn/x86_64/lib/libelf.a(data.o)
                              /usr/local/popcorn/x86_64/lib/libelf.a(begin.o) (_elf_errno)
/usr/local/popcorn/x86_64/lib/libelf.a(input.o)
                              /usr/local/popcorn/x86_64/lib/libelf.a(begin.o) (_elf_mmap)
/usr/local/popcorn/x86_64/lib/libelf.a(x.elfext.o)
                              /usr/local/popcorn/x86_64/lib/libstack-transform.a(util.o) (elf_getshdrstrndx)
/usr/local/popcorn/x86_64/lib/libelf.a(64.xlatetof.o)
                              /usr/local/popcorn/x86_64/lib/libelf.a(getdata.o) (_elf64_xltsize)
/usr/local/popcorn/x86_64/lib/libelf.a(gelfshdr.o)
                              /usr/local/popcorn/x86_64/lib/libstack-transform.a(util.o) (gelf_getshdr)
/usr/local/popcorn/x86_64/lib/libelf.a(swap64.o)
                              /usr/local/popcorn/x86_64/lib/libelf.a(64.xlatetof.o) (_elf_load_i64L)
/usr/local/popcorn/x86_64/lib/libelf.a(verdef_32_tof.o)
                              /usr/local/popcorn/x86_64/lib/libelf.a(32.xlatetof.o) (_elf_verdef_32L11_tof)
/usr/local/popcorn/x86_64/lib/libelf.a(verdef_32_tom.o)
                              /usr/local/popcorn/x86_64/lib/libelf.a(32.xlatetof.o) (_elf_verdef_32L11_tom)
/usr/local/popcorn/x86_64/lib/libelf.a(verdef_64_tof.o)
                              /usr/local/popcorn/x86_64/lib/libelf.a(64.xlatetof.o) (_elf_verdef_64L11_tof)
/usr/local/popcorn/x86_64/lib/libelf.a(verdef_64_tom.o)
                              /usr/local/popcorn/x86_64/lib/libelf.a(64.xlatetof.o) (_elf_verdef_64L11_tom)
/usr/local/popcorn/x86_64/lib/libelf.a(getscn.o)
                              /usr/local/popcorn/x86_64/lib/libelf.a(strptr.o) (elf_getscn)
/usr/local/popcorn/x86_64/lib/libelf.a(newscn.o)
                              /usr/local/popcorn/x86_64/lib/libelf.a(x.elfext.o) (_elf_first_scn)
/usr/local/popcorn/x86_64/lib/libelf.a(32.fsize.o)
                              /usr/local/popcorn/x86_64/lib/libelf.a(cook.o) (_elf_fmsize)
/usr/local/popcorn/x86_64/lib/libc.a(arch_crash.o)
                              /usr/local/popcorn/x86_64/lib/libmigrate.a(migrate_x86_64.o) (crash_x86_64)
/usr/local/popcorn/x86_64/lib/libc.a(getenv.o)
                              /usr/local/popcorn/x86_64/lib/libmigrate.a(mapping.o) (getenv)
/usr/local/popcorn/x86_64/lib/libc.a(platform.o)
                              /usr/local/popcorn/x86_64/lib/libmigrate.a(migrate.o) (popcorn_getnid)
/usr/local/popcorn/x86_64/lib/libc.a(assert.o)
                              /usr/local/popcorn/x86_64/lib/libmigrate.a(migrate.o) (__assert_fail)
/usr/local/popcorn/x86_64/lib/libc.a(open.o)
                              /usr/local/popcorn/x86_64/lib/libstack-transform.a(init.o) (open)
/usr/local/popcorn/x86_64/lib/libc.a(calloc.o)
                              /usr/local/popcorn/x86_64/lib/libmigrate.a(mapping.o) (calloc)
/usr/local/popcorn/x86_64/lib/libc.a(lite_malloc.o)
                              /usr/local/popcorn/x86_64/lib/libc.a(calloc.o) (__malloc0)
/usr/local/popcorn/x86_64/lib/libc.a(malloc.o)
                              /usr/local/popcorn/x86_64/lib/libmigrate.a(mapping.o) (free)
/usr/local/popcorn/x86_64/lib/libc.a(popcorn_malloc.o)
                              /usr/local/popcorn/x86_64/lib/libc.a(calloc.o) (__popcorn_malloc0)
/usr/local/popcorn/x86_64/lib/libc.a(getrlimit.o)
                              /usr/local/popcorn/x86_64/lib/libstack-transform.a(userspace.o) (getrlimit)
/usr/local/popcorn/x86_64/lib/libc.a(syscall.o)
                              /usr/local/popcorn/x86_64/lib/libmigrate.a(trigger.o) (syscall)
/usr/local/popcorn/x86_64/lib/libc.a(madvise.o)
                              /usr/local/popcorn/x86_64/lib/libc.a(malloc.o) (__madvise)
/usr/local/popcorn/x86_64/lib/libc.a(mremap.o)
                              /usr/local/popcorn/x86_64/lib/libc.a(malloc.o) (__mremap)
/usr/local/popcorn/x86_64/lib/libc.a(sigaction.o)
                              /usr/local/popcorn/x86_64/lib/libmigrate.a(trigger.o) (sigaction)
/usr/local/popcorn/x86_64/lib/libc.a(sigemptyset.o)
                              /usr/local/popcorn/x86_64/lib/libmigrate.a(trigger.o) (sigemptyset)
/usr/local/popcorn/x86_64/lib/libc.a(sigrtmin.o)
                              /usr/local/popcorn/x86_64/lib/libmigrate.a(trigger.o) (__libc_current_sigrtmin)
/usr/local/popcorn/x86_64/lib/libc.a(restore.o)
                              /usr/local/popcorn/x86_64/lib/libc.a(sigaction.o) (__restore_rt)
/usr/local/popcorn/x86_64/lib/libc.a(fclose.o)
                              /usr/local/popcorn/x86_64/lib/libmigrate.a(mapping.o) (fclose)
/usr/local/popcorn/x86_64/lib/libc.a(fflush.o)
                              /usr/local/popcorn/x86_64/lib/libc.a(assert.o) (fflush)
/usr/local/popcorn/x86_64/lib/libc.a(fopen.o)
                              /usr/local/popcorn/x86_64/lib/libmigrate.a(mapping.o) (fopen)
/usr/local/popcorn/x86_64/lib/libc.a(fprintf.o)
                              /usr/local/popcorn/x86_64/lib/libstack-transform.a(rewrite.o) (fprintf)
/usr/local/popcorn/x86_64/lib/libc.a(fscanf.o)
                              /usr/local/popcorn/x86_64/lib/libmigrate.a(mapping.o) (fscanf)
/usr/local/popcorn/x86_64/lib/libc.a(fseek.o)
                              /usr/local/popcorn/x86_64/lib/libmigrate.a(mapping.o) (fseek)
/usr/local/popcorn/x86_64/lib/libc.a(getc.o)
                              /usr/local/popcorn/x86_64/lib/libmigrate.a(mapping.o) (getc)
/usr/local/popcorn/x86_64/lib/libc.a(getline.o)
                              /usr/local/popcorn/x86_64/lib/libstack-transform.a(userspace.o) (getline)
/usr/local/popcorn/x86_64/lib/libc.a(snprintf.o)
                              /usr/local/popcorn/x86_64/lib/libstack-transform.a(userspace.o) (snprintf)
/usr/local/popcorn/x86_64/lib/libc.a(sscanf.o)
                              /usr/local/popcorn/x86_64/lib/libstack-transform.a(userspace.o) (sscanf)
/usr/local/popcorn/x86_64/lib/libc.a(vfscanf.o)
                              /usr/local/popcorn/x86_64/lib/libc.a(fscanf.o) (vfscanf)
/usr/local/popcorn/x86_64/lib/libc.a(vsnprintf.o)
                              /usr/local/popcorn/x86_64/lib/libc.a(snprintf.o) (vsnprintf)
/usr/local/popcorn/x86_64/lib/libc.a(vsscanf.o)
                              /usr/local/popcorn/x86_64/lib/libc.a(sscanf.o) (vsscanf)
/usr/local/popcorn/x86_64/lib/libc.a(bsearch.o)
                              /usr/local/popcorn/x86_64/lib/libmigrate.a(mapping.o) (bsearch)
/usr/local/popcorn/x86_64/lib/libc.a(qsort.o)
                              /usr/local/popcorn/x86_64/lib/libmigrate.a(mapping.o) (qsort)
/usr/local/popcorn/x86_64/lib/libc.a(strtol.o)
                              /usr/local/popcorn/x86_64/lib/libelf.a(version.o) (strtol)
/usr/local/popcorn/x86_64/lib/libc.a(strchr.o)
                              /usr/local/popcorn/x86_64/lib/libc.a(fopen.o) (strchr)
/usr/local/popcorn/x86_64/lib/libc.a(strchrnul.o)
                              /usr/local/popcorn/x86_64/lib/libc.a(getenv.o) (__strchrnul)
/usr/local/popcorn/x86_64/lib/libc.a(strcmp.o)
                              /usr/local/popcorn/x86_64/lib/libstack-transform.a(util.o) (strcmp)
/usr/local/popcorn/x86_64/lib/libc.a(strncmp.o)
                              /usr/local/popcorn/x86_64/lib/libstack-transform.a(userspace.o) (strncmp)
/usr/local/popcorn/x86_64/lib/libc.a(memmove.o)
                              /usr/local/popcorn/x86_64/lib/libelf.a(32.xlatetof.o) (memmove)
/usr/local/popcorn/x86_64/lib/libc.a(pthread_attr_get.o)
                              /usr/local/popcorn/x86_64/lib/libstack-transform.a(userspace.o) (pthread_attr_getstack)
/usr/local/popcorn/x86_64/lib/libc.a(pthread_getattr_np.o)
                              /usr/local/popcorn/x86_64/lib/libstack-transform.a(userspace.o) (pthread_getattr_np)
/usr/local/popcorn/x86_64/lib/libc.a(pthread_migrate.o)
                              /usr/local/popcorn/x86_64/lib/libmigrate.a(migrate.o) (pthread_get_migrate_args)
/usr/local/popcorn/x86_64/lib/libc.a(pthread_self.o)
                              /usr/local/popcorn/x86_64/lib/libstack-transform.a(userspace.o) (pthread_self)
/usr/local/popcorn/x86_64/lib/libc.a(close.o)
                              /usr/local/popcorn/x86_64/lib/libstack-transform.a(init.o) (close)
/usr/local/popcorn/x86_64/lib/libc.a(lseek.o)
                              /usr/local/popcorn/x86_64/lib/libelf.a(begin.o) (lseek)
/usr/local/popcorn/x86_64/lib/libc.a(read.o)
                              /usr/local/popcorn/x86_64/lib/libelf.a(input.o) (read)
/usr/local/popcorn/x86_64/lib/libc.a(abort.o)
                              /usr/local/popcorn/x86_64/lib/libc.a(assert.o) (abort)
/usr/local/popcorn/x86_64/lib/libc.a(floatscan.o)
                              /usr/local/popcorn/x86_64/lib/libc.a(vfscanf.o) (__floatscan)
/usr/local/popcorn/x86_64/lib/libc.a(intscan.o)
                              /usr/local/popcorn/x86_64/lib/libc.a(vfscanf.o) (__intscan)
/usr/local/popcorn/x86_64/lib/libc.a(shgetc.o)
                              /usr/local/popcorn/x86_64/lib/libc.a(vfscanf.o) (__shgetc)
/usr/local/popcorn/x86_64/lib/libc.a(expand_heap.o)
                              /usr/local/popcorn/x86_64/lib/libc.a(lite_malloc.o) (__expand_heap)
/usr/local/popcorn/x86_64/lib/libc.a(copysignl.o)
                              /usr/local/popcorn/x86_64/lib/libc.a(floatscan.o) (copysignl)
/usr/local/popcorn/x86_64/lib/libc.a(scalbn.o)
                              /usr/local/popcorn/x86_64/lib/libc.a(floatscan.o) (scalbn)
/usr/local/popcorn/x86_64/lib/libc.a(scalbnl.o)
                              /usr/local/popcorn/x86_64/lib/libc.a(floatscan.o) (scalbnl)
/usr/local/popcorn/x86_64/lib/libc.a(fabs.o)
                              /usr/local/popcorn/x86_64/lib/libc.a(floatscan.o) (fabs)
/usr/local/popcorn/x86_64/lib/libc.a(fmodl.o)
                              /usr/local/popcorn/x86_64/lib/libc.a(floatscan.o) (fmodl)
/usr/local/popcorn/x86_64/lib/libc.a(mbrtowc.o)
                              /usr/local/popcorn/x86_64/lib/libc.a(vfscanf.o) (mbrtowc)
/usr/local/popcorn/x86_64/lib/libc.a(mbsinit.o)
                              /usr/local/popcorn/x86_64/lib/libc.a(vfscanf.o) (mbsinit)
/usr/local/popcorn/x86_64/lib/libc.a(raise.o)
                              /usr/local/popcorn/x86_64/lib/libc.a(abort.o) (raise)
/usr/local/popcorn/x86_64/lib/libc.a(__fdopen.o)
                              /usr/local/popcorn/x86_64/lib/libc.a(fopen.o) (__fdopen)
/usr/local/popcorn/x86_64/lib/libc.a(__fmodeflags.o)
                              /usr/local/popcorn/x86_64/lib/libc.a(fopen.o) (__fmodeflags)
/usr/local/popcorn/x86_64/lib/libc.a(__stdio_read.o)
                              /usr/local/popcorn/x86_64/lib/libc.a(__fdopen.o) (__stdio_read)
/usr/local/popcorn/x86_64/lib/libc.a(__string_read.o)
                              /usr/local/popcorn/x86_64/lib/libc.a(vsscanf.o) (__string_read)
/usr/local/popcorn/x86_64/lib/libc.a(__uflow.o)
                              /usr/local/popcorn/x86_64/lib/libc.a(getc.o) (__uflow)
/usr/local/popcorn/x86_64/lib/libc.a(getdelim.o)
                              /usr/local/popcorn/x86_64/lib/libc.a(getline.o) (getdelim)
/usr/local/popcorn/x86_64/lib/libc.a(ofl_add.o)
                              /usr/local/popcorn/x86_64/lib/libc.a(__fdopen.o) (__ofl_add)
/usr/local/popcorn/x86_64/lib/libc.a(internal.o)
                              /usr/local/popcorn/x86_64/lib/libc.a(mbrtowc.o) (__fsmu8)
/usr/local/popcorn/x86_64/lib/libc.a(__toread.o)
                              /usr/local/popcorn/x86_64/lib/libc.a(__uflow.o) (__toread)

Allocating common symbols
Common symbol       size              file

mal                 0x20000           /usr/local/popcorn/x86_64/lib/libc.a(popcorn_malloc.o)
__libc              0x70              /usr/local/popcorn/x86_64/lib/libc.a(libc.o)
__hwcap             0x8               /usr/local/popcorn/x86_64/lib/libc.a(libc.o)
__sysinfo           0x8               /usr/local/popcorn/x86_64/lib/libc.a(libc.o)

Discarded input sections

 .note.GNU-stack
                0x0000000000000000        0x0 0x1 popcorn-migratemep_x86_64.o
 .note.GNU-stack
                0x0000000000000000        0x0 0x1 /usr/local/popcorn/x86_64/lib/crt1.o
 .note.GNU-stack
                0x0000000000000000        0x0 0x1 /usr/local/popcorn/x86_64/lib/libc.a(__libc_start_main.o)
 .note.GNU-stack
                0x0000000000000000        0x0 0x1 /usr/local/popcorn/x86_64/lib/libc.a(exit.o)
 .note.GNU-stack
                0x0000000000000000        0x0 0x1 /usr/local/popcorn/x86_64/lib/libc.a(libc.o)
 .note.GNU-stack
                0x0000000000000000        0x0 0x1 /usr/local/popcorn/x86_64/lib/libc.a(perror.o)
 .note.GNU-stack
                0x0000000000000000        0x0 0x1 /usr/local/popcorn/x86_64/lib/libc.a(printf.o)
 .note.GNU-stack
                0x0000000000000000        0x0 0x1 /usr/local/popcorn/x86_64/lib/libc.a(stderr.o)
 .note.GNU-stack
                0x0000000000000000        0x0 0x1 /usr/local/popcorn/x86_64/lib/libc.a(stdout.o)
 .note.GNU-stack
                0x0000000000000000        0x0 0x1 /usr/local/popcorn/x86_64/lib/libc.a(vfprintf.o)
 .note.GNU-stack
                0x0000000000000000        0x0 0x1 /usr/local/popcorn/x86_64/lib/libc.a(strlen.o)
 .note.GNU-stack
                0x0000000000000000        0x0 0x1 /usr/local/popcorn/x86_64/lib/libc.a(strnlen.o)
 .note.GNU-stack
                0x0000000000000000        0x0 0x1 /usr/local/popcorn/x86_64/lib/libc.a(memset.o)
 .note.GNU-stack
                0x0000000000000000        0x0 0x1 /usr/local/popcorn/x86_64/lib/libc.a(pthread_create.o)
 .note.GNU-stack
                0x0000000000000000        0x0 0x1 /usr/local/popcorn/x86_64/lib/libc.a(pthread_join.o)
 .note.GNU-stack
                0x0000000000000000        0x0 0x1 /usr/local/popcorn/x86_64/lib/libc.a(pthread_setcancelstate.o)
 .note.GNU-stack
                0x0000000000000000        0x0 0x1 /usr/local/popcorn/x86_64/lib/libc.a(pthread_testcancel.o)
 .note.GNU-stack
                0x0000000000000000        0x0 0x1 /usr/local/popcorn/x86_64/lib/libc.a(vmlock.o)
 .note.GNU-stack
                0x0000000000000000        0x0 0x1 /usr/local/popcorn/x86_64/lib/libc.a(__cleartid_exit_nostack.o)
 .note.GNU-stack
                0x0000000000000000        0x0 0x1 /usr/local/popcorn/x86_64/lib/libc.a(__unmapself.o)
 .note.GNU-stack
                0x0000000000000000        0x0 0x1 /usr/local/popcorn/x86_64/lib/libc.a(clone.o)
 .note.GNU-stack
                0x0000000000000000        0x0 0x1 /usr/local/popcorn/x86_64/lib/libc.a(getpid.o)
 .note.GNU-stack
                0x0000000000000000        0x0 0x1 /usr/local/popcorn/x86_64/lib/libc.a(gettid.o)
 .note.GNU-stack
                0x0000000000000000        0x0 0x1 /usr/local/popcorn/x86_64/lib/libc.a(sleep.o)
 .note.GNU-stack
                0x0000000000000000        0x0 0x1 /usr/local/popcorn/x86_64/lib/libc.a(__environ.o)
 .note.GNU-stack
                0x0000000000000000        0x0 0x1 /usr/local/popcorn/x86_64/lib/libc.a(__init_tls.o)
 .note.GNU-stack
                0x0000000000000000        0x0 0x1 /usr/local/popcorn/x86_64/lib/libc.a(__errno_location.o)
 .note.GNU-stack
                0x0000000000000000        0x0 0x1 /usr/local/popcorn/x86_64/lib/libc.a(strerror.o)
 .note.GNU-stack
                0x0000000000000000        0x0 0x1 /usr/local/popcorn/x86_64/lib/libc.a(_Exit.o)
 .note.GNU-stack
                0x0000000000000000        0x0 0x1 /usr/local/popcorn/x86_64/lib/libc.a(__lctrans.o)
 .note.GNU-stack
                0x0000000000000000        0x0 0x1 /usr/local/popcorn/x86_64/lib/libc.a(__fpclassifyl.o)
 .note.GNU-stack
                0x0000000000000000        0x0 0x1 /usr/local/popcorn/x86_64/lib/libc.a(__signbitl.o)
 .note.GNU-stack
                0x0000000000000000        0x0 0x1 /usr/local/popcorn/x86_64/lib/libc.a(frexpl.o)
 .note.GNU-stack
                0x0000000000000000        0x0 0x1 /usr/local/popcorn/x86_64/lib/libc.a(mmap.o)
 .note.GNU-stack
                0x0000000000000000        0x0 0x1 /usr/local/popcorn/x86_64/lib/libc.a(mprotect.o)
 .note.GNU-stack
                0x0000000000000000        0x0 0x1 /usr/local/popcorn/x86_64/lib/libc.a(munmap.o)
 .note.GNU-stack
                0x0000000000000000        0x0 0x1 /usr/local/popcorn/x86_64/lib/libc.a(wctomb.o)
 .note.GNU-stack
                0x0000000000000000        0x0 0x1 /usr/local/popcorn/x86_64/lib/libc.a(block.o)
 .note.GNU-stack
                0x0000000000000000        0x0 0x1 /usr/local/popcorn/x86_64/lib/libc.a(__lockfile.o)
 .note.GNU-stack
                0x0000000000000000        0x0 0x1 /usr/local/popcorn/x86_64/lib/libc.a(__stdio_close.o)
 .note.GNU-stack
                0x0000000000000000        0x0 0x1 /usr/local/popcorn/x86_64/lib/libc.a(__stdio_seek.o)
 .note.GNU-stack
                0x0000000000000000        0x0 0x1 /usr/local/popcorn/x86_64/lib/libc.a(__stdio_write.o)
 .note.GNU-stack
                0x0000000000000000        0x0 0x1 /usr/local/popcorn/x86_64/lib/libc.a(__stdout_write.o)
 .note.GNU-stack
                0x0000000000000000        0x0 0x1 /usr/local/popcorn/x86_64/lib/libc.a(fputc.o)
 .note.GNU-stack
                0x0000000000000000        0x0 0x1 /usr/local/popcorn/x86_64/lib/libc.a(fwrite.o)
 .note.GNU-stack
                0x0000000000000000        0x0 0x1 /usr/local/popcorn/x86_64/lib/libc.a(ofl.o)
 .note.GNU-stack
                0x0000000000000000        0x0 0x1 /usr/local/popcorn/x86_64/lib/libc.a(memchr.o)
 .note.GNU-stack
                0x0000000000000000        0x0 0x1 /usr/local/popcorn/x86_64/lib/libc.a(memcpy.o)
 .note.GNU-stack
                0x0000000000000000        0x0 0x1 /usr/local/popcorn/x86_64/lib/libc.a(__lock.o)
 .note.GNU-stack
                0x0000000000000000        0x0 0x1 /usr/local/popcorn/x86_64/lib/libc.a(__timedwait.o)
 .note.GNU-stack
                0x0000000000000000        0x0 0x1 /usr/local/popcorn/x86_64/lib/libc.a(__wait.o)
 .note.GNU-stack
                0x0000000000000000        0x0 0x1 /usr/local/popcorn/x86_64/lib/libc.a(__set_thread_area.o)
 .note.GNU-stack
                0x0000000000000000        0x0 0x1 /usr/local/popcorn/x86_64/lib/libc.a(clock_gettime.o)
 .note.GNU-stack
                0x0000000000000000        0x0 0x1 /usr/local/popcorn/x86_64/lib/libc.a(nanosleep.o)
 .note.GNU-stack
                0x0000000000000000        0x0 0x1 /usr/local/popcorn/x86_64/lib/libc.a(syscall_ret.o)
 .note.GNU-stack
                0x0000000000000000        0x0 0x1 /usr/local/popcorn/x86_64/lib/libc.a(wcrtomb.o)
 .note.GNU-stack
                0x0000000000000000        0x0 0x1 /usr/local/popcorn/x86_64/lib/libc.a(__overflow.o)
 .note.GNU-stack
                0x0000000000000000        0x0 0x1 /usr/local/popcorn/x86_64/lib/libc.a(__towrite.o)
 .note.GNU-stack
                0x0000000000000000        0x0 0x1 /usr/local/popcorn/x86_64/lib/libc.a(__syscall_cp.o)
 .note.GNU-stack
                0x0000000000000000        0x0 0x1 /usr/local/popcorn/x86_64/lib/libc.a(syscall.o)
 .note.GNU-stack
                0x0000000000000000        0x0 0x1 /usr/local/popcorn/x86_64/lib/libc.a(__stdio_exit.o)
 .note.GNU-stack
                0x0000000000000000        0x0 0x1 /usr/local/popcorn/x86_64/lib/libmigrate.a(migrate.o)
 .note.GNU-stack
                0x0000000000000000        0x0 0x1 /usr/local/popcorn/x86_64/lib/libmigrate.a(trigger.o)
 .note.GNU-stack
                0x0000000000000000        0x0 0x1 /usr/local/popcorn/x86_64/lib/libmigrate.a(mapping.o)
 .note.GNU-stack
                0x0000000000000000        0x0 0x1 /usr/local/popcorn/x86_64/lib/libstack-transform.a(userspace.o)
 .note.GNU-stack
                0x0000000000000000        0x0 0x1 /usr/local/popcorn/x86_64/lib/libstack-transform.a(init.o)
 .note.GNU-stack
                0x0000000000000000        0x0 0x1 /usr/local/popcorn/x86_64/lib/libstack-transform.a(rewrite.o)
 .note.GNU-stack
                0x0000000000000000        0x0 0x1 /usr/local/popcorn/x86_64/lib/libstack-transform.a(unwind.o)
 .note.GNU-stack
                0x0000000000000000        0x0 0x1 /usr/local/popcorn/x86_64/lib/libstack-transform.a(util.o)
 .note.GNU-stack
                0x0000000000000000        0x0 0x1 /usr/local/popcorn/x86_64/lib/libstack-transform.a(properties.o)
 .note.GNU-stack
                0x0000000000000000        0x0 0x1 /usr/local/popcorn/x86_64/lib/libstack-transform.a(regs.o)
 .note.GNU-stack
                0x0000000000000000        0x0 0x1 /usr/local/popcorn/x86_64/lib/libstack-transform.a(properties.o)
 .note.GNU-stack
                0x0000000000000000        0x0 0x1 /usr/local/popcorn/x86_64/lib/libstack-transform.a(regs.o)
 .note.GNU-stack
                0x0000000000000000        0x0 0x1 /usr/local/popcorn/x86_64/lib/libstack-transform.a(properties.o)
 .note.GNU-stack
                0x0000000000000000        0x0 0x1 /usr/local/popcorn/x86_64/lib/libstack-transform.a(regs.o)
 .note.GNU-stack
                0x0000000000000000        0x0 0x1 /usr/local/popcorn/x86_64/lib/libstack-transform.a(data.o)
 .note.GNU-stack
                0x0000000000000000        0x0 0x1 /usr/local/popcorn/x86_64/lib/libelf.a(begin.o)
 .note.GNU-stack
                0x0000000000000000        0x0 0x1 /usr/local/popcorn/x86_64/lib/libelf.a(end.o)
 .note.GNU-stack
                0x0000000000000000        0x0 0x1 /usr/local/popcorn/x86_64/lib/libelf.a(getdata.o)
 .note.GNU-stack
                0x0000000000000000        0x0 0x1 /usr/local/popcorn/x86_64/lib/libelf.a(getident.o)
 .note.GNU-stack
                0x0000000000000000        0x0 0x1 /usr/local/popcorn/x86_64/lib/libelf.a(nextscn.o)
 .note.GNU-stack
                0x0000000000000000        0x0 0x1 /usr/local/popcorn/x86_64/lib/libelf.a(strptr.o)
 .note.GNU-stack
                0x0000000000000000        0x0 0x1 /usr/local/popcorn/x86_64/lib/libelf.a(version.o)
 .note.GNU-stack
                0x0000000000000000        0x0 0x1 /usr/local/popcorn/x86_64/lib/libelf.a(32.getehdr.o)
 .note.GNU-stack
                0x0000000000000000        0x0 0x1 /usr/local/popcorn/x86_64/lib/libelf.a(32.xlatetof.o)
 .note.GNU-stack
                0x0000000000000000        0x0 0x1 /usr/local/popcorn/x86_64/lib/libelf.a(cook.o)
 .note.GNU-stack
                0x0000000000000000        0x0 0x1 /usr/local/popcorn/x86_64/lib/libelf.a(data.o)
 .note.GNU-stack
                0x0000000000000000        0x0 0x1 /usr/local/popcorn/x86_64/lib/libelf.a(input.o)
 .note.GNU-stack
                0x0000000000000000        0x0 0x1 /usr/local/popcorn/x86_64/lib/libelf.a(x.elfext.o)
 .note.GNU-stack
                0x0000000000000000        0x0 0x1 /usr/local/popcorn/x86_64/lib/libelf.a(64.xlatetof.o)
 .note.GNU-stack
                0x0000000000000000        0x0 0x1 /usr/local/popcorn/x86_64/lib/libelf.a(gelfshdr.o)
 .note.GNU-stack
                0x0000000000000000        0x0 0x1 /usr/local/popcorn/x86_64/lib/libelf.a(swap64.o)
 .note.GNU-stack
                0x0000000000000000        0x0 0x1 /usr/local/popcorn/x86_64/lib/libelf.a(verdef_32_tof.o)
 .note.GNU-stack
                0x0000000000000000        0x0 0x1 /usr/local/popcorn/x86_64/lib/libelf.a(verdef_32_tom.o)
 .note.GNU-stack
                0x0000000000000000        0x0 0x1 /usr/local/popcorn/x86_64/lib/libelf.a(verdef_64_tof.o)
 .note.GNU-stack
                0x0000000000000000        0x0 0x1 /usr/local/popcorn/x86_64/lib/libelf.a(verdef_64_tom.o)
 .note.GNU-stack
                0x0000000000000000        0x0 0x1 /usr/local/popcorn/x86_64/lib/libelf.a(getscn.o)
 .note.GNU-stack
                0x0000000000000000        0x0 0x1 /usr/local/popcorn/x86_64/lib/libelf.a(newscn.o)
 .note.GNU-stack
                0x0000000000000000        0x0 0x1 /usr/local/popcorn/x86_64/lib/libelf.a(32.fsize.o)
 .note.GNU-stack
                0x0000000000000000        0x0 0x1 /usr/local/popcorn/x86_64/lib/libc.a(arch_crash.o)
 .note.GNU-stack
                0x0000000000000000        0x0 0x1 /usr/local/popcorn/x86_64/lib/libc.a(getenv.o)
 .note.GNU-stack
                0x0000000000000000        0x0 0x1 /usr/local/popcorn/x86_64/lib/libc.a(platform.o)
 .note.GNU-stack
                0x0000000000000000        0x0 0x1 /usr/local/popcorn/x86_64/lib/libc.a(assert.o)
 .note.GNU-stack
                0x0000000000000000        0x0 0x1 /usr/local/popcorn/x86_64/lib/libc.a(open.o)
 .note.GNU-stack
                0x0000000000000000        0x0 0x1 /usr/local/popcorn/x86_64/lib/libc.a(calloc.o)
 .note.GNU-stack
                0x0000000000000000        0x0 0x1 /usr/local/popcorn/x86_64/lib/libc.a(lite_malloc.o)
 .note.GNU-stack
                0x0000000000000000        0x0 0x1 /usr/local/popcorn/x86_64/lib/libc.a(malloc.o)
 .note.GNU-stack
                0x0000000000000000        0x0 0x1 /usr/local/popcorn/x86_64/lib/libc.a(popcorn_malloc.o)
 .note.GNU-stack
                0x0000000000000000        0x0 0x1 /usr/local/popcorn/x86_64/lib/libc.a(getrlimit.o)
 .note.GNU-stack
                0x0000000000000000        0x0 0x1 /usr/local/popcorn/x86_64/lib/libc.a(syscall.o)
 .note.GNU-stack
                0x0000000000000000        0x0 0x1 /usr/local/popcorn/x86_64/lib/libc.a(madvise.o)
 .note.GNU-stack
                0x0000000000000000        0x0 0x1 /usr/local/popcorn/x86_64/lib/libc.a(mremap.o)
 .note.GNU-stack
                0x0000000000000000        0x0 0x1 /usr/local/popcorn/x86_64/lib/libc.a(sigaction.o)
 .note.GNU-stack
                0x0000000000000000        0x0 0x1 /usr/local/popcorn/x86_64/lib/libc.a(sigemptyset.o)
 .note.GNU-stack
                0x0000000000000000        0x0 0x1 /usr/local/popcorn/x86_64/lib/libc.a(sigrtmin.o)
 .note.GNU-stack
                0x0000000000000000        0x0 0x1 /usr/local/popcorn/x86_64/lib/libc.a(restore.o)
 .note.GNU-stack
                0x0000000000000000        0x0 0x1 /usr/local/popcorn/x86_64/lib/libc.a(fclose.o)
 .note.GNU-stack
                0x0000000000000000        0x0 0x1 /usr/local/popcorn/x86_64/lib/libc.a(fflush.o)
 .note.GNU-stack
                0x0000000000000000        0x0 0x1 /usr/local/popcorn/x86_64/lib/libc.a(fopen.o)
 .note.GNU-stack
                0x0000000000000000        0x0 0x1 /usr/local/popcorn/x86_64/lib/libc.a(fprintf.o)
 .note.GNU-stack
                0x0000000000000000        0x0 0x1 /usr/local/popcorn/x86_64/lib/libc.a(fscanf.o)
 .note.GNU-stack
                0x0000000000000000        0x0 0x1 /usr/local/popcorn/x86_64/lib/libc.a(fseek.o)
 .note.GNU-stack
                0x0000000000000000        0x0 0x1 /usr/local/popcorn/x86_64/lib/libc.a(getc.o)
 .note.GNU-stack
                0x0000000000000000        0x0 0x1 /usr/local/popcorn/x86_64/lib/libc.a(getline.o)
 .note.GNU-stack
                0x0000000000000000        0x0 0x1 /usr/local/popcorn/x86_64/lib/libc.a(snprintf.o)
 .note.GNU-stack
                0x0000000000000000        0x0 0x1 /usr/local/popcorn/x86_64/lib/libc.a(sscanf.o)
 .note.GNU-stack
                0x0000000000000000        0x0 0x1 /usr/local/popcorn/x86_64/lib/libc.a(vfscanf.o)
 .note.GNU-stack
                0x0000000000000000        0x0 0x1 /usr/local/popcorn/x86_64/lib/libc.a(vsnprintf.o)
 .note.GNU-stack
                0x0000000000000000        0x0 0x1 /usr/local/popcorn/x86_64/lib/libc.a(vsscanf.o)
 .note.GNU-stack
                0x0000000000000000        0x0 0x1 /usr/local/popcorn/x86_64/lib/libc.a(bsearch.o)
 .note.GNU-stack
                0x0000000000000000        0x0 0x1 /usr/local/popcorn/x86_64/lib/libc.a(qsort.o)
 .note.GNU-stack
                0x0000000000000000        0x0 0x1 /usr/local/popcorn/x86_64/lib/libc.a(strtol.o)
 .note.GNU-stack
                0x0000000000000000        0x0 0x1 /usr/local/popcorn/x86_64/lib/libc.a(strchr.o)
 .note.GNU-stack
                0x0000000000000000        0x0 0x1 /usr/local/popcorn/x86_64/lib/libc.a(strchrnul.o)
 .note.GNU-stack
                0x0000000000000000        0x0 0x1 /usr/local/popcorn/x86_64/lib/libc.a(strcmp.o)
 .note.GNU-stack
                0x0000000000000000        0x0 0x1 /usr/local/popcorn/x86_64/lib/libc.a(strncmp.o)
 .note.GNU-stack
                0x0000000000000000        0x0 0x1 /usr/local/popcorn/x86_64/lib/libc.a(memmove.o)
 .note.GNU-stack
                0x0000000000000000        0x0 0x1 /usr/local/popcorn/x86_64/lib/libc.a(pthread_attr_get.o)
 .note.GNU-stack
                0x0000000000000000        0x0 0x1 /usr/local/popcorn/x86_64/lib/libc.a(pthread_getattr_np.o)
 .note.GNU-stack
                0x0000000000000000        0x0 0x1 /usr/local/popcorn/x86_64/lib/libc.a(pthread_migrate.o)
 .note.GNU-stack
                0x0000000000000000        0x0 0x1 /usr/local/popcorn/x86_64/lib/libc.a(pthread_self.o)
 .note.GNU-stack
                0x0000000000000000        0x0 0x1 /usr/local/popcorn/x86_64/lib/libc.a(close.o)
 .note.GNU-stack
                0x0000000000000000        0x0 0x1 /usr/local/popcorn/x86_64/lib/libc.a(lseek.o)
 .note.GNU-stack
                0x0000000000000000        0x0 0x1 /usr/local/popcorn/x86_64/lib/libc.a(read.o)
 .note.GNU-stack
                0x0000000000000000        0x0 0x1 /usr/local/popcorn/x86_64/lib/libc.a(abort.o)
 .note.GNU-stack
                0x0000000000000000        0x0 0x1 /usr/local/popcorn/x86_64/lib/libc.a(floatscan.o)
 .note.GNU-stack
                0x0000000000000000        0x0 0x1 /usr/local/popcorn/x86_64/lib/libc.a(intscan.o)
 .note.GNU-stack
                0x0000000000000000        0x0 0x1 /usr/local/popcorn/x86_64/lib/libc.a(shgetc.o)
 .note.GNU-stack
                0x0000000000000000        0x0 0x1 /usr/local/popcorn/x86_64/lib/libc.a(expand_heap.o)
 .note.GNU-stack
                0x0000000000000000        0x0 0x1 /usr/local/popcorn/x86_64/lib/libc.a(copysignl.o)
 .note.GNU-stack
                0x0000000000000000        0x0 0x1 /usr/local/popcorn/x86_64/lib/libc.a(scalbn.o)
 .note.GNU-stack
                0x0000000000000000        0x0 0x1 /usr/local/popcorn/x86_64/lib/libc.a(scalbnl.o)
 .note.GNU-stack
                0x0000000000000000        0x0 0x1 /usr/local/popcorn/x86_64/lib/libc.a(fabs.o)
 .note.GNU-stack
                0x0000000000000000        0x0 0x1 /usr/local/popcorn/x86_64/lib/libc.a(fmodl.o)
 .note.GNU-stack
                0x0000000000000000        0x0 0x1 /usr/local/popcorn/x86_64/lib/libc.a(mbrtowc.o)
 .note.GNU-stack
                0x0000000000000000        0x0 0x1 /usr/local/popcorn/x86_64/lib/libc.a(mbsinit.o)
 .note.GNU-stack
                0x0000000000000000        0x0 0x1 /usr/local/popcorn/x86_64/lib/libc.a(raise.o)
 .note.GNU-stack
                0x0000000000000000        0x0 0x1 /usr/local/popcorn/x86_64/lib/libc.a(__fdopen.o)
 .note.GNU-stack
                0x0000000000000000        0x0 0x1 /usr/local/popcorn/x86_64/lib/libc.a(__fmodeflags.o)
 .note.GNU-stack
                0x0000000000000000        0x0 0x1 /usr/local/popcorn/x86_64/lib/libc.a(__stdio_read.o)
 .note.GNU-stack
                0x0000000000000000        0x0 0x1 /usr/local/popcorn/x86_64/lib/libc.a(__string_read.o)
 .note.GNU-stack
                0x0000000000000000        0x0 0x1 /usr/local/popcorn/x86_64/lib/libc.a(__uflow.o)
 .note.GNU-stack
                0x0000000000000000        0x0 0x1 /usr/local/popcorn/x86_64/lib/libc.a(getdelim.o)
 .note.GNU-stack
                0x0000000000000000        0x0 0x1 /usr/local/popcorn/x86_64/lib/libc.a(ofl_add.o)
 .note.GNU-stack
                0x0000000000000000        0x0 0x1 /usr/local/popcorn/x86_64/lib/libc.a(internal.o)
 .note.GNU-stack
                0x0000000000000000        0x0 0x1 /usr/local/popcorn/x86_64/lib/libc.a(__toread.o)

Memory map

 ** file header
                0x0000000000400000       0x40
 ** segment headers
                0x0000000000400040      0x150

.note.gnu.build-id
                0x0000000000400190       0x24
 ** note header
                0x0000000000400190       0x10
 ** zero fill   0x00000000004001a0       0x14

.text           0x00000000004001c0    0x1c734
 .text.exit     0x00000000004001c0       0x1d 0x1 /usr/local/popcorn/x86_64/lib/libc.a(exit.o)
                0x00000000004001c0                exit
 .text          0x00000000004001e0        0x0 0x4 popcorn-migratemep_x86_64.o
 .text.migrateme
                0x00000000004001e0       0x65 0x10 popcorn-migratemep_x86_64.o
                0x00000000004001e0                migrateme
 ** fill        0x0000000000400245        0xb
 .text.thread   0x0000000000400250       0x6e 0x10 popcorn-migratemep_x86_64.o
                0x0000000000400250                thread
 ** fill        0x00000000004002be        0x2
 .text.main     0x00000000004002c0       0xb5 0x10 popcorn-migratemep_x86_64.o
                0x00000000004002c0                main
 ** fill        0x0000000000400375        0x3
 .text          0x0000000000400378       0x16 0x4 /usr/local/popcorn/x86_64/lib/crt1.o
                0x0000000000400378                _start
 .text._start_c
                0x000000000040038e       0x1f 0x1 /usr/local/popcorn/x86_64/lib/crt1.o
                0x000000000040038e                _start_c
 ** fill        0x00000000004003ad        0x3
 .text          0x00000000004003b0        0x0 0x4 /usr/local/popcorn/x86_64/lib/libc.a(__libc_start_main.o)
 .text.dummy    0x00000000004003b0        0x1 0x1 /usr/local/popcorn/x86_64/lib/libc.a(__libc_start_main.o)
                0x00000000004003b0                _init
 .text.dummy1   0x00000000004003b1        0x1 0x1 /usr/local/popcorn/x86_64/lib/libc.a(__libc_start_main.o)
                0x00000000004003b1                __init_ssp
 .text.__init_libc
                0x00000000004003b2      0x1a3 0x1 /usr/local/popcorn/x86_64/lib/libc.a(__libc_start_main.o)
                0x00000000004003b2                __init_libc
 .text.libc_start_init
                0x0000000000400555       0x31 0x1 /usr/local/popcorn/x86_64/lib/libc.a(__libc_start_main.o)
                0x0000000000400555                __libc_start_init
 .text.__libc_start_main
                0x0000000000400586       0x43 0x1 /usr/local/popcorn/x86_64/lib/libc.a(__libc_start_main.o)
                0x0000000000400586                __libc_start_main
 ** fill        0x00000000004005c9        0x3
 .text          0x00000000004005cc        0x0 0x4 /usr/local/popcorn/x86_64/lib/libc.a(exit.o)
 .text.libc_exit_fini
                0x00000000004005cc       0x35 0x1 /usr/local/popcorn/x86_64/lib/libc.a(exit.o)
                0x00000000004005cc                __libc_exit_fini
 .text.dummy    0x0000000000400601        0x1 0x1 /usr/local/popcorn/x86_64/lib/libc.a(exit.o)
                0x0000000000400601                __funcs_on_exit
                0x0000000000400601                _fini
 ** fill        0x0000000000400602        0x1
 .text          0x0000000000400604        0x0 0x4 /usr/local/popcorn/x86_64/lib/libc.a(libc.o)
 .text          0x0000000000400604        0x0 0x4 /usr/local/popcorn/x86_64/lib/libc.a(perror.o)
 .text.perror   0x0000000000400604       0xb8 0x1 /usr/local/popcorn/x86_64/lib/libc.a(perror.o)
                0x0000000000400604                perror
 .text          0x00000000004006bc        0x0 0x4 /usr/local/popcorn/x86_64/lib/libc.a(printf.o)
 .text.printf   0x00000000004006bc       0xa9 0x1 /usr/local/popcorn/x86_64/lib/libc.a(printf.o)
                0x00000000004006bc                printf
 ** fill        0x0000000000400765        0x3
 .text          0x0000000000400768        0x0 0x4 /usr/local/popcorn/x86_64/lib/libc.a(stderr.o)
 .text          0x0000000000400768        0x0 0x4 /usr/local/popcorn/x86_64/lib/libc.a(stdout.o)
 .text          0x0000000000400768        0x0 0x4 /usr/local/popcorn/x86_64/lib/libc.a(vfprintf.o)
 .text.vfprintf
                0x0000000000400768      0x1ba 0x1 /usr/local/popcorn/x86_64/lib/libc.a(vfprintf.o)
                0x0000000000400768                vfprintf
 .text.printf_core
                0x0000000000400922     0x1e06 0x1 /usr/local/popcorn/x86_64/lib/libc.a(vfprintf.o)
 .text.getint   0x0000000000402728       0x54 0x1 /usr/local/popcorn/x86_64/lib/libc.a(vfprintf.o)
 .text.pop_arg  0x000000000040277c      0x1a6 0x1 /usr/local/popcorn/x86_64/lib/libc.a(vfprintf.o)
 .text.pad      0x0000000000402922       0xbd 0x1 /usr/local/popcorn/x86_64/lib/libc.a(vfprintf.o)
 ** fill        0x00000000004029df        0x1
 .text          0x00000000004029e0        0x0 0x4 /usr/local/popcorn/x86_64/lib/libc.a(strlen.o)
 ** fill        0x00000000004029e0        0x4
 .text.strlen   0x00000000004029f0       0x61 0x10 /usr/local/popcorn/x86_64/lib/libc.a(strlen.o)
                0x00000000004029f0                strlen
 ** fill        0x0000000000402a51        0x3
 .text          0x0000000000402a54        0x0 0x4 /usr/local/popcorn/x86_64/lib/libc.a(strnlen.o)
 ** fill        0x0000000000402a54        0xc
 .text.strnlen  0x0000000000402a60       0x2c 0x10 /usr/local/popcorn/x86_64/lib/libc.a(strnlen.o)
                0x0000000000402a60                strnlen
 .text          0x0000000000402a8c        0x0 0x4 /usr/local/popcorn/x86_64/lib/libc.a(memset.o)
 .text.memset   0x0000000000402a8c       0xc4 0x1 /usr/local/popcorn/x86_64/lib/libc.a(memset.o)
                0x0000000000402a8c                memset
 .text          0x0000000000402b50        0x0 0x4 /usr/local/popcorn/x86_64/lib/libc.a(pthread_create.o)
 .text.dummy_0  0x0000000000402b50        0x1 0x1 /usr/local/popcorn/x86_64/lib/libc.a(pthread_create.o)
                0x0000000000402b50                __acquire_ptc
                0x0000000000402b50                __dl_thread_cleanup
                0x0000000000402b50                __do_orphaned_stdio_locks
                0x0000000000402b50                __pthread_tsd_run_dtors
                0x0000000000402b50                __release_ptc
 .text.__pthread_exit
                0x0000000000402b51      0x1bd 0x1 /usr/local/popcorn/x86_64/lib/libc.a(pthread_create.o)
                0x0000000000402b51                __pthread_exit
                0x0000000000402b51                pthread_exit
 .text.__do_cleanup_push
                0x0000000000402d0e       0x1c 0x1 /usr/local/popcorn/x86_64/lib/libc.a(pthread_create.o)
                0x0000000000402d0e                __do_cleanup_push
 .text.__do_cleanup_pop
                0x0000000000402d2a       0x15 0x1 /usr/local/popcorn/x86_64/lib/libc.a(pthread_create.o)
                0x0000000000402d2a                __do_cleanup_pop
 .text.__pthread_create
                0x0000000000402d3f      0x5b5 0x1 /usr/local/popcorn/x86_64/lib/libc.a(pthread_create.o)
                0x0000000000402d3f                __pthread_create
                0x0000000000402d3f                pthread_create
 .text.start_c11
                0x00000000004032f4       0x19 0x1 /usr/local/popcorn/x86_64/lib/libc.a(pthread_create.o)
 .text.start    0x000000000040330d       0x95 0x1 /usr/local/popcorn/x86_64/lib/libc.a(pthread_create.o)
 ** fill        0x00000000004033a2        0x2
 .text          0x00000000004033a4        0x0 0x4 /usr/local/popcorn/x86_64/lib/libc.a(pthread_join.o)
 .text.__pthread_timedjoin_np
                0x00000000004033a4       0xcc 0x1 /usr/local/popcorn/x86_64/lib/libc.a(pthread_join.o)
                0x00000000004033a4                __pthread_timedjoin_np
                0x00000000004033a4                pthread_timedjoin_np
 .text.__pthread_join
                0x0000000000403470        0x7 0x1 /usr/local/popcorn/x86_64/lib/libc.a(pthread_join.o)
                0x0000000000403470                __pthread_join
                0x0000000000403470                pthread_join
 .text.__pthread_tryjoin_np
                0x0000000000403477       0x15 0x1 /usr/local/popcorn/x86_64/lib/libc.a(pthread_join.o)
                0x0000000000403477                __pthread_tryjoin_np
                0x0000000000403477                pthread_tryjoin_np
 .text          0x000000000040348c        0x0 0x4 /usr/local/popcorn/x86_64/lib/libc.a(pthread_setcancelstate.o)
 .text.__pthread_setcancelstate
                0x000000000040348c       0x25 0x1 /usr/local/popcorn/x86_64/lib/libc.a(pthread_setcancelstate.o)
                0x000000000040348c                __pthread_setcancelstate
                0x000000000040348c                pthread_setcancelstate
 ** fill        0x00000000004034b1        0x3
 .text          0x00000000004034b4        0x0 0x4 /usr/local/popcorn/x86_64/lib/libc.a(pthread_testcancel.o)
 .text.__pthread_testcancel
                0x00000000004034b4        0x7 0x1 /usr/local/popcorn/x86_64/lib/libc.a(pthread_testcancel.o)
                0x00000000004034b4                __pthread_testcancel
                0x00000000004034b4                pthread_testcancel
 .text.dummy    0x00000000004034bb        0x1 0x1 /usr/local/popcorn/x86_64/lib/libc.a(pthread_testcancel.o)
                0x00000000004034bb                __testcancel
 .text          0x00000000004034bc        0x0 0x4 /usr/local/popcorn/x86_64/lib/libc.a(vmlock.o)
 .text.__vm_wait
                0x00000000004034bc       0x23 0x1 /usr/local/popcorn/x86_64/lib/libc.a(vmlock.o)
                0x00000000004034bc                __vm_wait
 .text.__vm_lock
                0x00000000004034df        0x8 0x1 /usr/local/popcorn/x86_64/lib/libc.a(vmlock.o)
                0x00000000004034df                __vm_lock
 .text.__vm_unlock
                0x00000000004034e7       0x4e 0x1 /usr/local/popcorn/x86_64/lib/libc.a(vmlock.o)
                0x00000000004034e7                __vm_unlock
 ** fill        0x0000000000403535        0x3
 .text          0x0000000000403538        0x0 0x4 /usr/local/popcorn/x86_64/lib/libc.a(__cleartid_exit_nostack.o)
 .text.__cleartid_exit_nostack
                0x0000000000403538       0x2e 0x1 /usr/local/popcorn/x86_64/lib/libc.a(__cleartid_exit_nostack.o)
                0x0000000000403538                __cleartid_exit_nostack
 ** fill        0x0000000000403566        0x2
 .text          0x0000000000403568        0x0 0x4 /usr/local/popcorn/x86_64/lib/libc.a(__unmapself.o)
 .text.__unmapself
                0x0000000000403568       0x11 0x1 /usr/local/popcorn/x86_64/lib/libc.a(__unmapself.o)
                0x0000000000403568                __unmapself
 ** fill        0x0000000000403579        0x3
 .text          0x000000000040357c        0x0 0x4 /usr/local/popcorn/x86_64/lib/libc.a(clone.o)
 .text.__clone  0x000000000040357c       0x39 0x1 /usr/local/popcorn/x86_64/lib/libc.a(clone.o)
                0x000000000040357c                __clone
 ** fill        0x00000000004035b5        0x3
 .text          0x00000000004035b8        0x0 0x4 /usr/local/popcorn/x86_64/lib/libc.a(getpid.o)
 .text.getpid   0x00000000004035b8        0x8 0x1 /usr/local/popcorn/x86_64/lib/libc.a(getpid.o)
                0x00000000004035b8                getpid
 .text          0x00000000004035c0        0x0 0x4 /usr/local/popcorn/x86_64/lib/libc.a(gettid.o)
 .text.gettid   0x00000000004035c0        0x8 0x1 /usr/local/popcorn/x86_64/lib/libc.a(gettid.o)
                0x00000000004035c0                gettid
 .text          0x00000000004035c8        0x0 0x4 /usr/local/popcorn/x86_64/lib/libc.a(sleep.o)
 .text.sleep    0x00000000004035c8       0x2d 0x1 /usr/local/popcorn/x86_64/lib/libc.a(sleep.o)
                0x00000000004035c8                sleep
 ** fill        0x00000000004035f5        0x3
 .text          0x00000000004035f8        0x0 0x4 /usr/local/popcorn/x86_64/lib/libc.a(__environ.o)
 .text          0x00000000004035f8        0x0 0x4 /usr/local/popcorn/x86_64/lib/libc.a(__init_tls.o)
 .text.__init_tp
                0x00000000004035f8       0x4e 0x1 /usr/local/popcorn/x86_64/lib/libc.a(__init_tls.o)
                0x00000000004035f8                __init_tp
 .text.__copy_tls
                0x0000000000403646       0x9e 0x1 /usr/local/popcorn/x86_64/lib/libc.a(__init_tls.o)
                0x0000000000403646                __copy_tls
 .text.static_init_tls
                0x00000000004036e4      0x144 0x1 /usr/local/popcorn/x86_64/lib/libc.a(__init_tls.o)
                0x00000000004036e4                __init_tls
 .text          0x0000000000403828        0x0 0x4 /usr/local/popcorn/x86_64/lib/libc.a(__errno_location.o)
 .text.__errno_location
                0x0000000000403828        0xe 0x1 /usr/local/popcorn/x86_64/lib/libc.a(__errno_location.o)
                0x0000000000403828                __errno_location
 ** fill        0x0000000000403836        0x2
 .text          0x0000000000403838        0x0 0x4 /usr/local/popcorn/x86_64/lib/libc.a(strerror.o)
 .text.__strerror_l
                0x0000000000403838       0x44 0x1 /usr/local/popcorn/x86_64/lib/libc.a(strerror.o)
                0x0000000000403838                __strerror_l
                0x0000000000403838                strerror_l
 .text.strerror
                0x000000000040387c       0x15 0x1 /usr/local/popcorn/x86_64/lib/libc.a(strerror.o)
                0x000000000040387c                strerror
 ** fill        0x0000000000403891        0x3
 .text          0x0000000000403894        0x0 0x4 /usr/local/popcorn/x86_64/lib/libc.a(_Exit.o)
 .text._Exit    0x0000000000403894       0x13 0x1 /usr/local/popcorn/x86_64/lib/libc.a(_Exit.o)
                0x0000000000403894                _Exit
 ** fill        0x00000000004038a7        0x1
 .text          0x00000000004038a8        0x0 0x4 /usr/local/popcorn/x86_64/lib/libc.a(__lctrans.o)
 .text.dummy    0x00000000004038a8        0x4 0x1 /usr/local/popcorn/x86_64/lib/libc.a(__lctrans.o)
                0x00000000004038a8                __lctrans_impl
 .text.__lctrans
                0x00000000004038ac        0x5 0x1 /usr/local/popcorn/x86_64/lib/libc.a(__lctrans.o)
                0x00000000004038ac                __lctrans
 .text.__lctrans_cur
                0x00000000004038b1       0x19 0x1 /usr/local/popcorn/x86_64/lib/libc.a(__lctrans.o)
                0x00000000004038b1                __lctrans_cur
 ** fill        0x00000000004038ca        0x2
 .text          0x00000000004038cc        0x0 0x4 /usr/local/popcorn/x86_64/lib/libc.a(__fpclassifyl.o)
 .text.__fpclassifyl
                0x00000000004038cc       0x55 0x1 /usr/local/popcorn/x86_64/lib/libc.a(__fpclassifyl.o)
                0x00000000004038cc                __fpclassifyl
 ** fill        0x0000000000403921        0x3
 .text          0x0000000000403924        0x0 0x4 /usr/local/popcorn/x86_64/lib/libc.a(__signbitl.o)
 .text.__signbitl
                0x0000000000403924        0xa 0x1 /usr/local/popcorn/x86_64/lib/libc.a(__signbitl.o)
                0x0000000000403924                __signbitl
 ** fill        0x000000000040392e        0x2
 .text          0x0000000000403930        0x0 0x4 /usr/local/popcorn/x86_64/lib/libc.a(frexpl.o)
 .text.frexpl   0x0000000000403930       0x80 0x1 /usr/local/popcorn/x86_64/lib/libc.a(frexpl.o)
                0x0000000000403930                frexpl
 .text          0x00000000004039b0        0x0 0x4 /usr/local/popcorn/x86_64/lib/libc.a(mmap.o)
 .text.dummy    0x00000000004039b0        0x1 0x1 /usr/local/popcorn/x86_64/lib/libc.a(mmap.o)
 .text.__mmap   0x00000000004039b1       0xb5 0x1 /usr/local/popcorn/x86_64/lib/libc.a(mmap.o)
                0x00000000004039b1                __mmap
                0x00000000004039b1                mmap
                0x00000000004039b1                mmap64
 ** fill        0x0000000000403a66        0x2
 .text          0x0000000000403a68        0x0 0x4 /usr/local/popcorn/x86_64/lib/libc.a(mprotect.o)
 .text.__mprotect
                0x0000000000403a68       0x2b 0x1 /usr/local/popcorn/x86_64/lib/libc.a(mprotect.o)
                0x0000000000403a68                __mprotect
                0x0000000000403a68                mprotect
 ** fill        0x0000000000403a93        0x1
 .text          0x0000000000403a94        0x0 0x4 /usr/local/popcorn/x86_64/lib/libc.a(munmap.o)
 .text.dummy    0x0000000000403a94        0x1 0x1 /usr/local/popcorn/x86_64/lib/libc.a(munmap.o)
 .text.__munmap
                0x0000000000403a95       0x2b 0x1 /usr/local/popcorn/x86_64/lib/libc.a(munmap.o)
                0x0000000000403a95                __munmap
                0x0000000000403a95                munmap
 .text          0x0000000000403ac0        0x0 0x4 /usr/local/popcorn/x86_64/lib/libc.a(wctomb.o)
 .text.wctomb   0x0000000000403ac0       0x11 0x1 /usr/local/popcorn/x86_64/lib/libc.a(wctomb.o)
                0x0000000000403ac0                wctomb
 ** fill        0x0000000000403ad1        0x3
 .text          0x0000000000403ad4        0x0 0x4 /usr/local/popcorn/x86_64/lib/libc.a(block.o)
 .text.__block_all_sigs
                0x0000000000403ad4       0x1b 0x1 /usr/local/popcorn/x86_64/lib/libc.a(block.o)
                0x0000000000403ad4                __block_all_sigs
 .text.__block_app_sigs
                0x0000000000403aef       0x1b 0x1 /usr/local/popcorn/x86_64/lib/libc.a(block.o)
                0x0000000000403aef                __block_app_sigs
 .text.__restore_sigs
                0x0000000000403b0a       0x1b 0x1 /usr/local/popcorn/x86_64/lib/libc.a(block.o)
                0x0000000000403b0a                __restore_sigs
 ** fill        0x0000000000403b25        0x3
 .text          0x0000000000403b28        0x0 0x4 /usr/local/popcorn/x86_64/lib/libc.a(__lockfile.o)
 .text.__lockfile
                0x0000000000403b28       0x72 0x1 /usr/local/popcorn/x86_64/lib/libc.a(__lockfile.o)
                0x0000000000403b28                __lockfile
 .text.__unlockfile
                0x0000000000403b9a       0x46 0x1 /usr/local/popcorn/x86_64/lib/libc.a(__lockfile.o)
                0x0000000000403b9a                __unlockfile
 .text          0x0000000000403be0        0x0 0x4 /usr/local/popcorn/x86_64/lib/libc.a(__stdio_close.o)
 .text.dummy    0x0000000000403be0        0x3 0x1 /usr/local/popcorn/x86_64/lib/libc.a(__stdio_close.o)
                0x0000000000403be0                __aio_close
 .text.__stdio_close
                0x0000000000403be3       0x1c 0x1 /usr/local/popcorn/x86_64/lib/libc.a(__stdio_close.o)
                0x0000000000403be3                __stdio_close
 ** fill        0x0000000000403bff        0x1
 .text          0x0000000000403c00        0x0 0x4 /usr/local/popcorn/x86_64/lib/libc.a(__stdio_seek.o)
 .text.__stdio_seek
                0x0000000000403c00       0x16 0x1 /usr/local/popcorn/x86_64/lib/libc.a(__stdio_seek.o)
                0x0000000000403c00                __stdio_seek
 ** fill        0x0000000000403c16        0x2
 .text          0x0000000000403c18        0x0 0x4 /usr/local/popcorn/x86_64/lib/libc.a(__stdio_write.o)
 .text.__stdio_write
                0x0000000000403c18      0x116 0x1 /usr/local/popcorn/x86_64/lib/libc.a(__stdio_write.o)
                0x0000000000403c18                __stdio_write
 ** fill        0x0000000000403d2e        0x2
 .text          0x0000000000403d30        0x0 0x4 /usr/local/popcorn/x86_64/lib/libc.a(__stdout_write.o)
 .text.__stdout_write
                0x0000000000403d30       0x49 0x1 /usr/local/popcorn/x86_64/lib/libc.a(__stdout_write.o)
                0x0000000000403d30                __stdout_write
 ** fill        0x0000000000403d79        0x3
 .text          0x0000000000403d7c        0x0 0x4 /usr/local/popcorn/x86_64/lib/libc.a(fputc.o)
 .text.fputc    0x0000000000403d7c       0x9c 0x1 /usr/local/popcorn/x86_64/lib/libc.a(fputc.o)
                0x0000000000403d7c                fputc
 .text          0x0000000000403e18        0x0 0x4 /usr/local/popcorn/x86_64/lib/libc.a(fwrite.o)
 .text.__fwritex
                0x0000000000403e18       0xc1 0x1 /usr/local/popcorn/x86_64/lib/libc.a(fwrite.o)
                0x0000000000403e18                __fwritex
 .text.fwrite   0x0000000000403ed9       0x8c 0x1 /usr/local/popcorn/x86_64/lib/libc.a(fwrite.o)
                0x0000000000403ed9                fwrite
                0x0000000000403ed9                fwrite_unlocked
 ** fill        0x0000000000403f65        0x3
 .text          0x0000000000403f68        0x0 0x4 /usr/local/popcorn/x86_64/lib/libc.a(ofl.o)
 .text.__ofl_lock
                0x0000000000403f68       0x12 0x1 /usr/local/popcorn/x86_64/lib/libc.a(ofl.o)
                0x0000000000403f68                __ofl_lock
 .text.__ofl_unlock
                0x0000000000403f7a        0xa 0x1 /usr/local/popcorn/x86_64/lib/libc.a(ofl.o)
                0x0000000000403f7a                __ofl_unlock
 .text          0x0000000000403f84        0x0 0x4 /usr/local/popcorn/x86_64/lib/libc.a(memchr.o)
 ** fill        0x0000000000403f84        0xc
 .text.memchr   0x0000000000403f90       0xe0 0x10 /usr/local/popcorn/x86_64/lib/libc.a(memchr.o)
                0x0000000000403f90                memchr
 .text          0x0000000000404070        0x0 0x4 /usr/local/popcorn/x86_64/lib/libc.a(memcpy.o)
 .text.memcpy   0x0000000000404070       0x32 0x1 /usr/local/popcorn/x86_64/lib/libc.a(memcpy.o)
                0x0000000000404070                __memcpy_fwd
                0x0000000000404070                memcpy
 ** fill        0x00000000004040a2        0x2
 .text          0x00000000004040a4        0x0 0x4 /usr/local/popcorn/x86_64/lib/libc.a(__lock.o)
 .text.__lock   0x00000000004040a4       0x47 0x1 /usr/local/popcorn/x86_64/lib/libc.a(__lock.o)
                0x00000000004040a4                __lock
 .text.__unlock
                0x00000000004040eb       0x3d 0x1 /usr/local/popcorn/x86_64/lib/libc.a(__lock.o)
                0x00000000004040eb                __unlock
 .text          0x0000000000404128        0x0 0x4 /usr/local/popcorn/x86_64/lib/libc.a(__timedwait.o)
 .text.__timedwait_cp
                0x0000000000404128       0xf9 0x1 /usr/local/popcorn/x86_64/lib/libc.a(__timedwait.o)
                0x0000000000404128                __timedwait_cp
 .text.__timedwait
                0x0000000000404221       0x4b 0x1 /usr/local/popcorn/x86_64/lib/libc.a(__timedwait.o)
                0x0000000000404221                __timedwait
 .text          0x000000000040426c        0x0 0x4 /usr/local/popcorn/x86_64/lib/libc.a(__wait.o)
 .text.__wait   0x000000000040426c       0x76 0x1 /usr/local/popcorn/x86_64/lib/libc.a(__wait.o)
                0x000000000040426c                __wait
 ** fill        0x00000000004042e2        0x2
 .text          0x00000000004042e4        0x0 0x4 /usr/local/popcorn/x86_64/lib/libc.a(__set_thread_area.o)
 .text.__set_thread_area
                0x00000000004042e4       0x10 0x1 /usr/local/popcorn/x86_64/lib/libc.a(__set_thread_area.o)
                0x00000000004042e4                __set_thread_area
 .text          0x00000000004042f4        0x0 0x4 /usr/local/popcorn/x86_64/lib/libc.a(clock_gettime.o)
 .text.__clock_gettime
                0x00000000004042f4       0x56 0x1 /usr/local/popcorn/x86_64/lib/libc.a(clock_gettime.o)
                0x00000000004042f4                __clock_gettime
                0x00000000004042f4                clock_gettime
 ** fill        0x000000000040434a        0x2
 .text          0x000000000040434c        0x0 0x4 /usr/local/popcorn/x86_64/lib/libc.a(nanosleep.o)
 .text.nanosleep
                0x000000000040434c       0x30 0x1 /usr/local/popcorn/x86_64/lib/libc.a(nanosleep.o)
                0x000000000040434c                nanosleep
 .text          0x000000000040437c        0x0 0x4 /usr/local/popcorn/x86_64/lib/libc.a(syscall_ret.o)
 ** fill        0x000000000040437c        0x4
 .text.__syscall_ret
                0x0000000000404380       0x22 0x10 /usr/local/popcorn/x86_64/lib/libc.a(syscall_ret.o)
                0x0000000000404380                __syscall_ret
 ** fill        0x00000000004043a2        0x2
 .text          0x00000000004043a4        0x0 0x4 /usr/local/popcorn/x86_64/lib/libc.a(wcrtomb.o)
 .text.wcrtomb  0x00000000004043a4      0x118 0x1 /usr/local/popcorn/x86_64/lib/libc.a(wcrtomb.o)
                0x00000000004043a4                wcrtomb
 .text          0x00000000004044bc        0x0 0x4 /usr/local/popcorn/x86_64/lib/libc.a(__overflow.o)
 .text.__overflow
                0x00000000004044bc       0x82 0x1 /usr/local/popcorn/x86_64/lib/libc.a(__overflow.o)
                0x00000000004044bc                __overflow
 ** fill        0x000000000040453e        0x2
 .text          0x0000000000404540        0x0 0x4 /usr/local/popcorn/x86_64/lib/libc.a(__towrite.o)
 .text.__towrite
                0x0000000000404540       0x41 0x1 /usr/local/popcorn/x86_64/lib/libc.a(__towrite.o)
                0x0000000000404540                __towrite
 .text.__towrite_needs_stdio_exit
                0x0000000000404581        0x5 0x1 /usr/local/popcorn/x86_64/lib/libc.a(__towrite.o)
                0x0000000000404581                __towrite_needs_stdio_exit
 ** fill        0x0000000000404586        0x2
 .text          0x0000000000404588        0x0 0x4 /usr/local/popcorn/x86_64/lib/libc.a(__syscall_cp.o)
 .text.sccp     0x0000000000404588       0x13 0x1 /usr/local/popcorn/x86_64/lib/libc.a(__syscall_cp.o)
                0x0000000000404588                __syscall_cp_c
 .text.__syscall_cp
                0x000000000040459b        0x5 0x1 /usr/local/popcorn/x86_64/lib/libc.a(__syscall_cp.o)
                0x000000000040459b                __syscall_cp
 .text          0x00000000004045a0        0x0 0x4 /usr/local/popcorn/x86_64/lib/libc.a(syscall.o)
 .text.__syscall
                0x00000000004045a0       0x1a 0x1 /usr/local/popcorn/x86_64/lib/libc.a(syscall.o)
                0x00000000004045a0                __syscall
 ** fill        0x00000000004045ba        0x2
 .text          0x00000000004045bc        0x0 0x4 /usr/local/popcorn/x86_64/lib/libc.a(__stdio_exit.o)
 .text.__stdio_exit
                0x00000000004045bc       0x35 0x1 /usr/local/popcorn/x86_64/lib/libc.a(__stdio_exit.o)
                0x00000000004045bc                __stdio_exit
                0x00000000004045bc                __stdio_exit_needed
 .text.close_file
                0x00000000004045f1       0x45 0x1 /usr/local/popcorn/x86_64/lib/libc.a(__stdio_exit.o)
 ** fill        0x0000000000404636        0x2
 .text          0x0000000000404638        0x0 0x4 /usr/local/popcorn/x86_64/lib/libmigrate.a(migrate.o)
 ** fill        0x0000000000404638        0x8
 .text.node_available
                0x0000000000404640       0x27 0x10 /usr/local/popcorn/x86_64/lib/libmigrate.a(migrate.o)
                0x0000000000404640                node_available
 ** fill        0x0000000000404667        0x9
 .text.total_act_nodes
                0x0000000000404670       0x92 0x10 /usr/local/popcorn/x86_64/lib/libmigrate.a(migrate.o)
                0x0000000000404670                total_act_nodes
 ** fill        0x0000000000404702        0xe
 .text.current_arch
                0x0000000000404710       0x37 0x10 /usr/local/popcorn/x86_64/lib/libmigrate.a(migrate.o)
                0x0000000000404710                current_arch
 ** fill        0x0000000000404747        0x9
 .text.current_nid
                0x0000000000404750        0xd 0x10 /usr/local/popcorn/x86_64/lib/libmigrate.a(migrate.o)
                0x0000000000404750                current_nid
 ** fill        0x000000000040475d        0x3
 .text.__init_nodes_info
                0x0000000000404760       0x2b 0x10 /usr/local/popcorn/x86_64/lib/libmigrate.a(migrate.o)
                0x0000000000404760                __init_nodes_info
 ** fill        0x000000000040478b        0x5
 .text.__migrate_shim_internal
                0x0000000000404790      0x594 0x10 /usr/local/popcorn/x86_64/lib/libmigrate.a(migrate.o)
                0x0000000000404790                __migrate_shim_internal
 ** fill        0x0000000000404d24        0xc
 .text.check_migrate
                0x0000000000404d30       0x58 0x10 /usr/local/popcorn/x86_64/lib/libmigrate.a(migrate.o)
                0x0000000000404d30                check_migrate
 ** fill        0x0000000000404d88        0x8
 .text.migrate  0x0000000000404d90       0x39 0x10 /usr/local/popcorn/x86_64/lib/libmigrate.a(migrate.o)
                0x0000000000404d90                migrate
 ** fill        0x0000000000404dc9        0x7
 .text.migrate_schedule
                0x0000000000404dd0       0x3e 0x10 /usr/local/popcorn/x86_64/lib/libmigrate.a(migrate.o)
                0x0000000000404dd0                migrate_schedule
 ** fill        0x0000000000404e0e        0x2
 .text.get_call_site
                0x0000000000404e10        0xa 0x10 /usr/local/popcorn/x86_64/lib/libmigrate.a(migrate.o)
 ** fill        0x0000000000404e1a        0x2
 .text          0x0000000000404e1c        0x0 0x4 /usr/local/popcorn/x86_64/lib/libmigrate.a(trigger.o)
 ** fill        0x0000000000404e1c        0x4
 .text.clear_migrate_flag
                0x0000000000404e20       0x11 0x10 /usr/local/popcorn/x86_64/lib/libmigrate.a(trigger.o)
                0x0000000000404e20                clear_migrate_flag
 ** fill        0x0000000000404e31        0xf
 .text.__register_migrate_sighandler
                0x0000000000404e40       0x71 0x10 /usr/local/popcorn/x86_64/lib/libmigrate.a(trigger.o)
 ** fill        0x0000000000404eb1        0xf
 .text.__migrate_sighandler
                0x0000000000404ec0       0x58 0x10 /usr/local/popcorn/x86_64/lib/libmigrate.a(trigger.o)
 .text          0x0000000000404f18        0x0 0x1 /usr/local/popcorn/x86_64/lib/libmigrate.a(migrate_x86_64.o)
 .text.__migrate_fixup_x86_64
                0x0000000000404f18       0x69 0x1 /usr/local/popcorn/x86_64/lib/libmigrate.a(migrate_x86_64.o)
                0x0000000000404f18                __migrate_fixup_x86_64
 .text          0x0000000000404f81        0x0 0x1 /usr/local/popcorn/x86_64/lib/libmigrate.a(migrate_aarch64.o)
 ** fill        0x0000000000404f81        0x3
 .text.__migrate_fixup_aarch64
                0x0000000000404f84        0x0 0x4 /usr/local/popcorn/x86_64/lib/libmigrate.a(migrate_aarch64.o)
                0x0000000000404f84                __migrate_fixup_aarch64
 .text          0x0000000000404f84        0x0 0x1 /usr/local/popcorn/x86_64/lib/libmigrate.a(migrate_powerpc64.o)
 .text.__migrate_fixup_powerpc64
                0x0000000000404f84        0x0 0x4 /usr/local/popcorn/x86_64/lib/libmigrate.a(migrate_powerpc64.o)
                0x0000000000404f84                __migrate_fixup_powerpc64
 .text          0x0000000000404f84        0x0 0x4 /usr/local/popcorn/x86_64/lib/libmigrate.a(mapping.o)
 ** fill        0x0000000000404f84        0xc
 .text.set_default_node
                0x0000000000404f90        0xd 0x10 /usr/local/popcorn/x86_64/lib/libmigrate.a(mapping.o)
                0x0000000000404f90                set_default_node
 ** fill        0x0000000000404f9d        0x3
 .text.cleanup  0x0000000000404fa0       0x9c 0x10 /usr/local/popcorn/x86_64/lib/libmigrate.a(mapping.o)
 ** fill        0x000000000040503c        0x4
 .text.region_compare
                0x0000000000405040       0x27 0x10 /usr/local/popcorn/x86_64/lib/libmigrate.a(mapping.o)
                0x0000000000405040                region_compare
 ** fill        0x0000000000405067        0x9
 .text.read_mapping_schedule
                0x0000000000405070      0x343 0x10 /usr/local/popcorn/x86_64/lib/libmigrate.a(mapping.o)
 ** fill        0x00000000004053b3        0xd
 .text.region_find
                0x00000000004053c0       0x27 0x10 /usr/local/popcorn/x86_64/lib/libmigrate.a(mapping.o)
                0x00000000004053c0                region_find
 ** fill        0x00000000004053e7        0x9
 .text.get_node_mapping
                0x00000000004053f0       0x86 0x10 /usr/local/popcorn/x86_64/lib/libmigrate.a(mapping.o)
                0x00000000004053f0                get_node_mapping
 ** fill        0x0000000000405476        0x2
 .text          0x0000000000405478        0x0 0x4 /usr/local/popcorn/x86_64/lib/libstack-transform.a(userspace.o)
 ** fill        0x0000000000405478        0x8
 .text.__st_userspace_ctor
                0x0000000000405480      0x3a1 0x10 /usr/local/popcorn/x86_64/lib/libstack-transform.a(userspace.o)
                0x0000000000405480                __st_userspace_ctor
 ** fill        0x0000000000405821        0xf
 .text.__st_userspace_dtor
                0x0000000000405830       0x8e 0x10 /usr/local/popcorn/x86_64/lib/libstack-transform.a(userspace.o)
                0x0000000000405830                __st_userspace_dtor
 ** fill        0x00000000004058be        0x2
 .text.get_stack_bounds
                0x00000000004058c0       0xc2 0x10 /usr/local/popcorn/x86_64/lib/libstack-transform.a(userspace.o)
                0x00000000004058c0                get_stack_bounds
 ** fill        0x0000000000405982        0xe
 .text.st_userspace_rewrite
                0x0000000000405990      0x15d 0x10 /usr/local/popcorn/x86_64/lib/libstack-transform.a(userspace.o)
                0x0000000000405990                st_userspace_rewrite
 ** fill        0x0000000000405aed        0x3
 .text          0x0000000000405af0        0x0 0x4 /usr/local/popcorn/x86_64/lib/libstack-transform.a(init.o)
 .text.__st_ctor
                0x0000000000405af0        0x5 0x10 /usr/local/popcorn/x86_64/lib/libstack-transform.a(init.o)
 ** fill        0x0000000000405af5        0xb
 .text.__st_dtor
                0x0000000000405b00        0x5 0x10 /usr/local/popcorn/x86_64/lib/libstack-transform.a(init.o)
                0x0000000000405b00                __st_dtor
 ** fill        0x0000000000405b05        0xb
 .text.st_init  0x0000000000405b10      0x212 0x10 /usr/local/popcorn/x86_64/lib/libstack-transform.a(init.o)
                0x0000000000405b10                st_init
 ** fill        0x0000000000405d22        0xe
 .text.st_destroy
                0x0000000000405d30       0x24 0x10 /usr/local/popcorn/x86_64/lib/libstack-transform.a(init.o)
                0x0000000000405d30                st_destroy
 .text          0x0000000000405d54        0x0 0x4 /usr/local/popcorn/x86_64/lib/libstack-transform.a(rewrite.o)
 ** fill        0x0000000000405d54        0xc
 .text.st_rewrite_stack
                0x0000000000405d60      0x7c6 0x10 /usr/local/popcorn/x86_64/lib/libstack-transform.a(rewrite.o)
                0x0000000000405d60                st_rewrite_stack
 ** fill        0x0000000000406526        0xa
 .text.rewrite_frame
                0x0000000000406530      0x482 0x10 /usr/local/popcorn/x86_64/lib/libstack-transform.a(rewrite.o)
 ** fill        0x00000000004069b2        0xe
 .text.st_rewrite_ondemand
                0x00000000004069c0       0x26 0x10 /usr/local/popcorn/x86_64/lib/libstack-transform.a(rewrite.o)
                0x00000000004069c0                st_rewrite_ondemand
 ** fill        0x00000000004069e6        0xa
 .text.rewrite_val
                0x00000000004069f0      0x2ad 0x10 /usr/local/popcorn/x86_64/lib/libstack-transform.a(rewrite.o)
 ** fill        0x0000000000406c9d        0x3
 .text          0x0000000000406ca0        0x0 0x4 /usr/local/popcorn/x86_64/lib/libstack-transform.a(unwind.o)
 .text.first_frame
                0x0000000000406ca0        0x8 0x10 /usr/local/popcorn/x86_64/lib/libstack-transform.a(unwind.o)
                0x0000000000406ca0                first_frame
 ** fill        0x0000000000406ca8        0x8
 .text.calculate_cfa
                0x0000000000406cb0       0x2d 0x10 /usr/local/popcorn/x86_64/lib/libstack-transform.a(unwind.o)
                0x0000000000406cb0                calculate_cfa
 ** fill        0x0000000000406cdd        0x3
 .text.bootstrap_first_frame
                0x0000000000406ce0       0x2d 0x10 /usr/local/popcorn/x86_64/lib/libstack-transform.a(unwind.o)
                0x0000000000406ce0                bootstrap_first_frame
 ** fill        0x0000000000406d0d        0x3
 .text.bootstrap_first_frame_funcentry
                0x0000000000406d10       0x4b 0x10 /usr/local/popcorn/x86_64/lib/libstack-transform.a(unwind.o)
                0x0000000000406d10                bootstrap_first_frame_funcentry
 ** fill        0x0000000000406d5b        0x5
 .text.pop_frame
                0x0000000000406d60      0x1ee 0x10 /usr/local/popcorn/x86_64/lib/libstack-transform.a(unwind.o)
                0x0000000000406d60                pop_frame
 ** fill        0x0000000000406f4e        0x2
 .text.pop_frame_funcentry
                0x0000000000406f50      0x13e 0x10 /usr/local/popcorn/x86_64/lib/libstack-transform.a(unwind.o)
                0x0000000000406f50                pop_frame_funcentry
 ** fill        0x000000000040708e        0x2
 .text.get_register_save_loc
                0x0000000000407090       0x61 0x10 /usr/local/popcorn/x86_64/lib/libstack-transform.a(unwind.o)
                0x0000000000407090                get_register_save_loc
 ** fill        0x00000000004070f1        0xf
 .text.clear_activation
                0x0000000000407100       0x48 0x10 /usr/local/popcorn/x86_64/lib/libstack-transform.a(unwind.o)
                0x0000000000407100                clear_activation
 .text          0x0000000000407148        0x0 0x4 /usr/local/popcorn/x86_64/lib/libstack-transform.a(util.o)
 ** fill        0x0000000000407148        0x8
 .text.arch_name
                0x0000000000407150       0x29 0x10 /usr/local/popcorn/x86_64/lib/libstack-transform.a(util.o)
                0x0000000000407150                arch_name
 ** fill        0x0000000000407179        0x7
 .text.get_regops
                0x0000000000407180       0x26 0x10 /usr/local/popcorn/x86_64/lib/libstack-transform.a(util.o)
                0x0000000000407180                get_regops
 ** fill        0x00000000004071a6        0xa
 .text.get_properties
                0x00000000004071b0       0x26 0x10 /usr/local/popcorn/x86_64/lib/libstack-transform.a(util.o)
                0x00000000004071b0                get_properties
 ** fill        0x00000000004071d6        0xa
 .text.get_section
                0x00000000004071e0       0xae 0x10 /usr/local/popcorn/x86_64/lib/libstack-transform.a(util.o)
                0x00000000004071e0                get_section
 ** fill        0x000000000040728e        0x2
 .text.get_num_entries
                0x0000000000407290       0x4f 0x10 /usr/local/popcorn/x86_64/lib/libstack-transform.a(util.o)
                0x0000000000407290                get_num_entries
 ** fill        0x00000000004072df        0x1
 .text.get_section_data
                0x00000000004072e0       0x26 0x10 /usr/local/popcorn/x86_64/lib/libstack-transform.a(util.o)
                0x00000000004072e0                get_section_data
 ** fill        0x0000000000407306        0xa
 .text.get_site_by_addr
                0x0000000000407310       0x7a 0x10 /usr/local/popcorn/x86_64/lib/libstack-transform.a(util.o)
                0x0000000000407310                get_site_by_addr
 ** fill        0x000000000040738a        0x6
 .text.get_site_by_id
                0x0000000000407390       0x70 0x10 /usr/local/popcorn/x86_64/lib/libstack-transform.a(util.o)
                0x0000000000407390                get_site_by_id
 .text.get_unwind_offset_by_addr
                0x0000000000407400       0x8c 0x10 /usr/local/popcorn/x86_64/lib/libstack-transform.a(util.o)
                0x0000000000407400                get_unwind_offset_by_addr
 ** fill        0x000000000040748c        0x4
 .text.get_function_address
                0x0000000000407490       0x80 0x10 /usr/local/popcorn/x86_64/lib/libstack-transform.a(util.o)
                0x0000000000407490                get_function_address
 .text          0x0000000000407510        0x0 0x4 /usr/local/popcorn/x86_64/lib/libstack-transform.a(properties.o)
 .text.align_sp_aarch64
                0x0000000000407510        0xc 0x10 /usr/local/popcorn/x86_64/lib/libstack-transform.a(properties.o)
 ** fill        0x000000000040751c        0x4
 .text.is_callee_saved_aarch64
                0x0000000000407520       0x1f 0x10 /usr/local/popcorn/x86_64/lib/libstack-transform.a(properties.o)
 ** fill        0x000000000040753f        0x1
 .text.callee_reg_size_aarch64
                0x0000000000407540       0x41 0x10 /usr/local/popcorn/x86_64/lib/libstack-transform.a(properties.o)
 ** fill        0x0000000000407581        0x3
 .text          0x0000000000407584        0x0 0x4 /usr/local/popcorn/x86_64/lib/libstack-transform.a(regs.o)
 ** fill        0x0000000000407584        0xc
 .text.regset_default_aarch64
                0x0000000000407590        0xf 0x10 /usr/local/popcorn/x86_64/lib/libstack-transform.a(regs.o)
 ** fill        0x000000000040759f        0x1
 .text.regset_init_aarch64
                0x00000000004075a0       0x2f 0x10 /usr/local/popcorn/x86_64/lib/libstack-transform.a(regs.o)
 ** fill        0x00000000004075cf        0x1
 .text.regset_free_aarch64
                0x00000000004075d0        0x5 0x10 /usr/local/popcorn/x86_64/lib/libstack-transform.a(regs.o)
 ** fill        0x00000000004075d5        0xb
 .text.regset_clone_aarch64
                0x00000000004075e0       0x13 0x10 /usr/local/popcorn/x86_64/lib/libstack-transform.a(regs.o)
 ** fill        0x00000000004075f3        0xd
 .text.regset_copyin_aarch64
                0x0000000000407600        0xa 0x10 /usr/local/popcorn/x86_64/lib/libstack-transform.a(regs.o)
 ** fill        0x000000000040760a        0x6
 .text.regset_copyout_aarch64
                0x0000000000407610       0x13 0x10 /usr/local/popcorn/x86_64/lib/libstack-transform.a(regs.o)
 ** fill        0x0000000000407623        0xd
 .text.pc_aarch64
                0x0000000000407630        0x5 0x10 /usr/local/popcorn/x86_64/lib/libstack-transform.a(regs.o)
 ** fill        0x0000000000407635        0xb
 .text.sp_aarch64
                0x0000000000407640        0x4 0x10 /usr/local/popcorn/x86_64/lib/libstack-transform.a(regs.o)
 ** fill        0x0000000000407644        0xc
 .text.fbp_aarch64
                0x0000000000407650        0x8 0x10 /usr/local/popcorn/x86_64/lib/libstack-transform.a(regs.o)
 ** fill        0x0000000000407658        0x8
 .text.ra_reg_aarch64
                0x0000000000407660        0x8 0x10 /usr/local/popcorn/x86_64/lib/libstack-transform.a(regs.o)
 ** fill        0x0000000000407668        0x8
 .text.set_pc_aarch64
                0x0000000000407670        0x5 0x10 /usr/local/popcorn/x86_64/lib/libstack-transform.a(regs.o)
 ** fill        0x0000000000407675        0xb
 .text.set_sp_aarch64
                0x0000000000407680        0x4 0x10 /usr/local/popcorn/x86_64/lib/libstack-transform.a(regs.o)
 ** fill        0x0000000000407684        0xc
 .text.set_fbp_aarch64
                0x0000000000407690        0x8 0x10 /usr/local/popcorn/x86_64/lib/libstack-transform.a(regs.o)
 ** fill        0x0000000000407698        0x8
 .text.set_ra_reg_aarch64
                0x00000000004076a0        0x8 0x10 /usr/local/popcorn/x86_64/lib/libstack-transform.a(regs.o)
 ** fill        0x00000000004076a8        0x8
 .text.setup_fbp_aarch64
                0x00000000004076b0        0xc 0x10 /usr/local/popcorn/x86_64/lib/libstack-transform.a(regs.o)
 ** fill        0x00000000004076bc        0x4
 .text.reg_size_aarch64
                0x00000000004076c0       0x3c 0x10 /usr/local/popcorn/x86_64/lib/libstack-transform.a(regs.o)
 ** fill        0x00000000004076fc        0x4
 .text.reg_aarch64
                0x0000000000407700      0x2cb 0x10 /usr/local/popcorn/x86_64/lib/libstack-transform.a(regs.o)
 ** fill        0x00000000004079cb        0x1
 .text          0x00000000004079cc        0x0 0x4 /usr/local/popcorn/x86_64/lib/libstack-transform.a(properties.o)
 ** fill        0x00000000004079cc        0x4
 .text.align_sp_powerpc64
                0x00000000004079d0       0x14 0x10 /usr/local/popcorn/x86_64/lib/libstack-transform.a(properties.o)
 ** fill        0x00000000004079e4        0xc
 .text.is_callee_saved_powerpc64
                0x00000000004079f0       0x13 0x10 /usr/local/popcorn/x86_64/lib/libstack-transform.a(properties.o)
 ** fill        0x0000000000407a03        0xd
 .text.callee_reg_size_powerpc64
                0x0000000000407a10       0x38 0x10 /usr/local/popcorn/x86_64/lib/libstack-transform.a(properties.o)
 .text          0x0000000000407a48        0x0 0x4 /usr/local/popcorn/x86_64/lib/libstack-transform.a(regs.o)
 ** fill        0x0000000000407a48        0x8
 .text.regset_default_powerpc64
                0x0000000000407a50        0xf 0x10 /usr/local/popcorn/x86_64/lib/libstack-transform.a(regs.o)
 ** fill        0x0000000000407a5f        0x1
 .text.regset_init_powerpc64
                0x0000000000407a60       0x2f 0x10 /usr/local/popcorn/x86_64/lib/libstack-transform.a(regs.o)
 ** fill        0x0000000000407a8f        0x1
 .text.regset_free_powerpc64
                0x0000000000407a90        0x5 0x10 /usr/local/popcorn/x86_64/lib/libstack-transform.a(regs.o)
 ** fill        0x0000000000407a95        0xb
 .text.regset_clone_powerpc64
                0x0000000000407aa0       0x13 0x10 /usr/local/popcorn/x86_64/lib/libstack-transform.a(regs.o)
 ** fill        0x0000000000407ab3        0xd
 .text.regset_copyin_powerpc64
                0x0000000000407ac0        0xa 0x10 /usr/local/popcorn/x86_64/lib/libstack-transform.a(regs.o)
 ** fill        0x0000000000407aca        0x6
 .text.regset_copyout_powerpc64
                0x0000000000407ad0       0x13 0x10 /usr/local/popcorn/x86_64/lib/libstack-transform.a(regs.o)
 ** fill        0x0000000000407ae3        0xd
 .text.pc_powerpc64
                0x0000000000407af0        0x4 0x10 /usr/local/popcorn/x86_64/lib/libstack-transform.a(regs.o)
 ** fill        0x0000000000407af4        0xc
 .text.sp_powerpc64
                0x0000000000407b00        0x5 0x10 /usr/local/popcorn/x86_64/lib/libstack-transform.a(regs.o)
 ** fill        0x0000000000407b05        0xb
 .text.fbp_powerpc64
                0x0000000000407b10        0x8 0x10 /usr/local/popcorn/x86_64/lib/libstack-transform.a(regs.o)
 ** fill        0x0000000000407b18        0x8
 .text.ra_reg_powerpc64
                0x0000000000407b20        0x5 0x10 /usr/local/popcorn/x86_64/lib/libstack-transform.a(regs.o)
 ** fill        0x0000000000407b25        0xb
 .text.set_pc_powerpc64
                0x0000000000407b30        0x4 0x10 /usr/local/popcorn/x86_64/lib/libstack-transform.a(regs.o)
 ** fill        0x0000000000407b34        0xc
 .text.set_sp_powerpc64
                0x0000000000407b40        0x5 0x10 /usr/local/popcorn/x86_64/lib/libstack-transform.a(regs.o)
 ** fill        0x0000000000407b45        0xb
 .text.set_fbp_powerpc64
                0x0000000000407b50        0x8 0x10 /usr/local/popcorn/x86_64/lib/libstack-transform.a(regs.o)
 ** fill        0x0000000000407b58        0x8
 .text.set_ra_reg_powerpc64
                0x0000000000407b60        0x5 0x10 /usr/local/popcorn/x86_64/lib/libstack-transform.a(regs.o)
 ** fill        0x0000000000407b65        0xb
 .text.setup_fbp_powerpc64
                0x0000000000407b70        0xc 0x10 /usr/local/popcorn/x86_64/lib/libstack-transform.a(regs.o)
 ** fill        0x0000000000407b7c        0x4
 .text.reg_size_powerpc64
                0x0000000000407b80       0x44 0x10 /usr/local/popcorn/x86_64/lib/libstack-transform.a(regs.o)
 ** fill        0x0000000000407bc4        0xc
 .text.reg_powerpc64
                0x0000000000407bd0      0x2e9 0x10 /usr/local/popcorn/x86_64/lib/libstack-transform.a(regs.o)
 ** fill        0x0000000000407eb9        0x3
 .text          0x0000000000407ebc        0x0 0x4 /usr/local/popcorn/x86_64/lib/libstack-transform.a(properties.o)
 ** fill        0x0000000000407ebc        0x4
 .text.align_sp_x86_64
                0x0000000000407ec0        0xd 0x10 /usr/local/popcorn/x86_64/lib/libstack-transform.a(properties.o)
 ** fill        0x0000000000407ecd        0x3
 .text.is_callee_saved_x86_64
                0x0000000000407ed0       0x19 0x10 /usr/local/popcorn/x86_64/lib/libstack-transform.a(properties.o)
 ** fill        0x0000000000407ee9        0x7
 .text.callee_reg_size_x86_64
                0x0000000000407ef0       0x38 0x10 /usr/local/popcorn/x86_64/lib/libstack-transform.a(properties.o)
 .text          0x0000000000407f28        0x0 0x4 /usr/local/popcorn/x86_64/lib/libstack-transform.a(regs.o)
 ** fill        0x0000000000407f28        0x8
 .text.regset_default_x86_64
                0x0000000000407f30        0xf 0x10 /usr/local/popcorn/x86_64/lib/libstack-transform.a(regs.o)
 ** fill        0x0000000000407f3f        0x1
 .text.regset_init_x86_64
                0x0000000000407f40       0x2f 0x10 /usr/local/popcorn/x86_64/lib/libstack-transform.a(regs.o)
 ** fill        0x0000000000407f6f        0x1
 .text.regset_free_x86_64
                0x0000000000407f70        0x5 0x10 /usr/local/popcorn/x86_64/lib/libstack-transform.a(regs.o)
 ** fill        0x0000000000407f75        0xb
 .text.regset_clone_x86_64
                0x0000000000407f80       0x13 0x10 /usr/local/popcorn/x86_64/lib/libstack-transform.a(regs.o)
 ** fill        0x0000000000407f93        0xd
 .text.regset_copyin_x86_64
                0x0000000000407fa0        0xa 0x10 /usr/local/popcorn/x86_64/lib/libstack-transform.a(regs.o)
 ** fill        0x0000000000407faa        0x6
 .text.regset_copyout_x86_64
                0x0000000000407fb0       0x13 0x10 /usr/local/popcorn/x86_64/lib/libstack-transform.a(regs.o)
 ** fill        0x0000000000407fc3        0xd
 .text.pc_x86_64
                0x0000000000407fd0        0x4 0x10 /usr/local/popcorn/x86_64/lib/libstack-transform.a(regs.o)
 ** fill        0x0000000000407fd4        0xc
 .text.sp_x86_64
                0x0000000000407fe0        0x5 0x10 /usr/local/popcorn/x86_64/lib/libstack-transform.a(regs.o)
 ** fill        0x0000000000407fe5        0xb
 .text.fbp_x86_64
                0x0000000000407ff0        0x5 0x10 /usr/local/popcorn/x86_64/lib/libstack-transform.a(regs.o)
 ** fill        0x0000000000407ff5        0xb
 .text.ra_reg_x86_64
                0x0000000000408000       0x26 0x10 /usr/local/popcorn/x86_64/lib/libstack-transform.a(regs.o)
 ** fill        0x0000000000408026        0xa
 .text.set_pc_x86_64
                0x0000000000408030        0x4 0x10 /usr/local/popcorn/x86_64/lib/libstack-transform.a(regs.o)
 ** fill        0x0000000000408034        0xc
 .text.set_sp_x86_64
                0x0000000000408040        0x5 0x10 /usr/local/popcorn/x86_64/lib/libstack-transform.a(regs.o)
 ** fill        0x0000000000408045        0xb
 .text.set_fbp_x86_64
                0x0000000000408050        0x5 0x10 /usr/local/popcorn/x86_64/lib/libstack-transform.a(regs.o)
 ** fill        0x0000000000408055        0xb
 .text.set_ra_reg_x86_64
                0x0000000000408060       0x26 0x10 /usr/local/popcorn/x86_64/lib/libstack-transform.a(regs.o)
 ** fill        0x0000000000408086        0xa
 .text.setup_fbp_x86_64
                0x0000000000408090        0x9 0x10 /usr/local/popcorn/x86_64/lib/libstack-transform.a(regs.o)
 ** fill        0x0000000000408099        0x7
 .text.reg_size_x86_64
                0x00000000004080a0       0x33 0x10 /usr/local/popcorn/x86_64/lib/libstack-transform.a(regs.o)
 ** fill        0x00000000004080d3        0xd
 .text.reg_x86_64
                0x00000000004080e0      0x154 0x10 /usr/local/popcorn/x86_64/lib/libstack-transform.a(regs.o)
 .text          0x0000000000408234        0x0 0x4 /usr/local/popcorn/x86_64/lib/libstack-transform.a(data.o)
 ** fill        0x0000000000408234        0xc
 .text.put_val  0x0000000000408240      0x20d 0x10 /usr/local/popcorn/x86_64/lib/libstack-transform.a(data.o)
                0x0000000000408240                put_val
 ** fill        0x000000000040844d        0x3
 .text.get_dest_loc
                0x0000000000408450       0xab 0x10 /usr/local/popcorn/x86_64/lib/libstack-transform.a(data.o)
 ** fill        0x00000000004084fb        0x5
 .text.put_val_arch
                0x0000000000408500      0x384 0x10 /usr/local/popcorn/x86_64/lib/libstack-transform.a(data.o)
                0x0000000000408500                put_val_arch
 ** fill        0x0000000000408884        0xc
 .text.put_val_data
                0x0000000000408890       0xeb 0x10 /usr/local/popcorn/x86_64/lib/libstack-transform.a(data.o)
                0x0000000000408890                put_val_data
 ** fill        0x000000000040897b        0x5
 .text.points_to_stack
                0x0000000000408980      0x116 0x10 /usr/local/popcorn/x86_64/lib/libstack-transform.a(data.o)
                0x0000000000408980                points_to_stack
 ** fill        0x0000000000408a96        0xa
 .text.points_to_data
                0x0000000000408aa0      0x146 0x10 /usr/local/popcorn/x86_64/lib/libstack-transform.a(data.o)
                0x0000000000408aa0                points_to_data
 ** fill        0x0000000000408be6        0xa
 .text.set_return_address
                0x0000000000408bf0       0x1d 0x10 /usr/local/popcorn/x86_64/lib/libstack-transform.a(data.o)
                0x0000000000408bf0                set_return_address
 ** fill        0x0000000000408c0d        0x3
 .text.set_return_address_funcentry
                0x0000000000408c10       0x39 0x10 /usr/local/popcorn/x86_64/lib/libstack-transform.a(data.o)
                0x0000000000408c10                set_return_address_funcentry
 ** fill        0x0000000000408c49        0x7
 .text.get_savedfbp_loc
                0x0000000000408c50       0x6b 0x10 /usr/local/popcorn/x86_64/lib/libstack-transform.a(data.o)
                0x0000000000408c50                get_savedfbp_loc
 ** fill        0x0000000000408cbb        0x1
 .text          0x0000000000408cbc        0x0 0x4 /usr/local/popcorn/x86_64/lib/libelf.a(begin.o)
 ** fill        0x0000000000408cbc        0x4
 .text.elf_begin
                0x0000000000408cc0      0xa21 0x10 /usr/local/popcorn/x86_64/lib/libelf.a(begin.o)
                0x0000000000408cc0                elf_begin
 ** fill        0x00000000004096e1        0xf
 .text._elf_check_type
                0x00000000004096f0      0x26e 0x10 /usr/local/popcorn/x86_64/lib/libelf.a(begin.o)
 ** fill        0x000000000040995e        0x2
 .text.elf_memory
                0x0000000000409960       0x8a 0x10 /usr/local/popcorn/x86_64/lib/libelf.a(begin.o)
                0x0000000000409960                elf_memory
 ** fill        0x00000000004099ea        0x6
 .text.gelf_getclass
                0x00000000004099f0       0x1c 0x10 /usr/local/popcorn/x86_64/lib/libelf.a(begin.o)
                0x00000000004099f0                gelf_getclass
 .text          0x0000000000409a0c        0x0 0x4 /usr/local/popcorn/x86_64/lib/libelf.a(end.o)
 ** fill        0x0000000000409a0c        0x4
 .text.elf_end  0x0000000000409a10      0x1bc 0x10 /usr/local/popcorn/x86_64/lib/libelf.a(end.o)
                0x0000000000409a10                elf_end
 .text          0x0000000000409bcc        0x0 0x4 /usr/local/popcorn/x86_64/lib/libelf.a(getdata.o)
 ** fill        0x0000000000409bcc        0x4
 .text.elf_getdata
                0x0000000000409bd0      0x25e 0x10 /usr/local/popcorn/x86_64/lib/libelf.a(getdata.o)
                0x0000000000409bd0                elf_getdata
 ** fill        0x0000000000409e2e        0x2
 .text          0x0000000000409e30        0x0 0x4 /usr/local/popcorn/x86_64/lib/libelf.a(getident.o)
 .text.elf_getident
                0x0000000000409e30       0x63 0x10 /usr/local/popcorn/x86_64/lib/libelf.a(getident.o)
                0x0000000000409e30                elf_getident
 ** fill        0x0000000000409e93        0x1
 .text          0x0000000000409e94        0x0 0x4 /usr/local/popcorn/x86_64/lib/libelf.a(nextscn.o)
 ** fill        0x0000000000409e94        0xc
 .text.elf_nextscn
                0x0000000000409ea0       0x80 0x10 /usr/local/popcorn/x86_64/lib/libelf.a(nextscn.o)
                0x0000000000409ea0                elf_nextscn
 .text          0x0000000000409f20        0x0 0x4 /usr/local/popcorn/x86_64/lib/libelf.a(strptr.o)
 .text.elf_strptr
                0x0000000000409f20      0x17a 0x10 /usr/local/popcorn/x86_64/lib/libelf.a(strptr.o)
                0x0000000000409f20                elf_strptr
 ** fill        0x000000000040a09a        0x2
 .text          0x000000000040a09c        0x0 0x4 /usr/local/popcorn/x86_64/lib/libelf.a(version.o)
 ** fill        0x000000000040a09c        0x4
 .text.elf_version
                0x000000000040a0a0       0x5c 0x10 /usr/local/popcorn/x86_64/lib/libelf.a(version.o)
                0x000000000040a0a0                elf_version
 .text          0x000000000040a0fc        0x0 0x4 /usr/local/popcorn/x86_64/lib/libelf.a(32.getehdr.o)
 ** fill        0x000000000040a0fc        0x4
 .text._elf_getehdr
                0x000000000040a100       0x5a 0x10 /usr/local/popcorn/x86_64/lib/libelf.a(32.getehdr.o)
                0x000000000040a100                _elf_getehdr
 ** fill        0x000000000040a15a        0x6
 .text.elf32_getehdr
                0x000000000040a160       0x5b 0x10 /usr/local/popcorn/x86_64/lib/libelf.a(32.getehdr.o)
                0x000000000040a160                elf32_getehdr
 ** fill        0x000000000040a1bb        0x5
 .text.elf64_getehdr
                0x000000000040a1c0       0x5b 0x10 /usr/local/popcorn/x86_64/lib/libelf.a(32.getehdr.o)
                0x000000000040a1c0                elf64_getehdr
 ** fill        0x000000000040a21b        0x1
 .text          0x000000000040a21c        0x0 0x4 /usr/local/popcorn/x86_64/lib/libelf.a(32.xlatetof.o)
 ** fill        0x000000000040a21c        0x4
 .text._elf32_xltsize
                0x000000000040a220       0x88 0x10 /usr/local/popcorn/x86_64/lib/libelf.a(32.xlatetof.o)
                0x000000000040a220                _elf32_xltsize
 ** fill        0x000000000040a2a8        0x8
 .text.elf32_xlatetom
                0x000000000040a2b0      0x104 0x10 /usr/local/popcorn/x86_64/lib/libelf.a(32.xlatetof.o)
                0x000000000040a2b0                elf32_xlatetom
 ** fill        0x000000000040a3b4        0xc
 .text.elf32_xlatetof
                0x000000000040a3c0      0x104 0x10 /usr/local/popcorn/x86_64/lib/libelf.a(32.xlatetof.o)
                0x000000000040a3c0                elf32_xlatetof
 ** fill        0x000000000040a4c4        0xc
 .text.byte_copy
                0x000000000040a4d0       0x20 0x10 /usr/local/popcorn/x86_64/lib/libelf.a(32.xlatetof.o)
 .text.addr_32L__tom
                0x000000000040a4f0      0x1a3 0x10 /usr/local/popcorn/x86_64/lib/libelf.a(32.xlatetof.o)
 ** fill        0x000000000040a693        0xd
 .text.addr_32L__tof
                0x000000000040a6a0       0xa1 0x10 /usr/local/popcorn/x86_64/lib/libelf.a(32.xlatetof.o)
 ** fill        0x000000000040a741        0xf
 .text.dyn_32L11_tom
                0x000000000040a750       0x77 0x10 /usr/local/popcorn/x86_64/lib/libelf.a(32.xlatetof.o)
 ** fill        0x000000000040a7c7        0x9
 .text.dyn_32L11_tof
                0x000000000040a7d0       0x63 0x10 /usr/local/popcorn/x86_64/lib/libelf.a(32.xlatetof.o)
 ** fill        0x000000000040a833        0xd
 .text.ehdr_32L11_tom
                0x000000000040a840      0x18b 0x10 /usr/local/popcorn/x86_64/lib/libelf.a(32.xlatetof.o)
 ** fill        0x000000000040a9cb        0x5
 .text.ehdr_32L11_tof
                0x000000000040a9d0      0x131 0x10 /usr/local/popcorn/x86_64/lib/libelf.a(32.xlatetof.o)
 ** fill        0x000000000040ab01        0xf
 .text.half_32L__tom
                0x000000000040ab10      0x1b4 0x10 /usr/local/popcorn/x86_64/lib/libelf.a(32.xlatetof.o)
 ** fill        0x000000000040acc4        0xc
 .text.half_32L__tof
                0x000000000040acd0      0x1b9 0x10 /usr/local/popcorn/x86_64/lib/libelf.a(32.xlatetof.o)
 ** fill        0x000000000040ae89        0x7
 .text.off_32L__tom
                0x000000000040ae90      0x1a3 0x10 /usr/local/popcorn/x86_64/lib/libelf.a(32.xlatetof.o)
 ** fill        0x000000000040b033        0xd
 .text.off_32L__tof
                0x000000000040b040       0xa1 0x10 /usr/local/popcorn/x86_64/lib/libelf.a(32.xlatetof.o)
 ** fill        0x000000000040b0e1        0xf
 .text.phdr_32L11_tom
                0x000000000040b0f0      0x147 0x10 /usr/local/popcorn/x86_64/lib/libelf.a(32.xlatetof.o)
 ** fill        0x000000000040b237        0x9
 .text.phdr_32L11_tof
                0x000000000040b240       0xf7 0x10 /usr/local/popcorn/x86_64/lib/libelf.a(32.xlatetof.o)
 ** fill        0x000000000040b337        0x9
 .text.rela_32L11_tom
                0x000000000040b340       0xbd 0x10 /usr/local/popcorn/x86_64/lib/libelf.a(32.xlatetof.o)
 ** fill        0x000000000040b3fd        0x3
 .text.rela_32L11_tof
                0x000000000040b400       0x8f 0x10 /usr/local/popcorn/x86_64/lib/libelf.a(32.xlatetof.o)
 ** fill        0x000000000040b48f        0x1
 .text.rel_32L11_tom
                0x000000000040b490       0x77 0x10 /usr/local/popcorn/x86_64/lib/libelf.a(32.xlatetof.o)
 ** fill        0x000000000040b507        0x9
 .text.rel_32L11_tof
                0x000000000040b510       0x63 0x10 /usr/local/popcorn/x86_64/lib/libelf.a(32.xlatetof.o)
 ** fill        0x000000000040b573        0xd
 .text.shdr_32L11_tom
                0x000000000040b580      0x1af 0x10 /usr/local/popcorn/x86_64/lib/libelf.a(32.xlatetof.o)
 ** fill        0x000000000040b72f        0x1
 .text.shdr_32L11_tof
                0x000000000040b730      0x13b 0x10 /usr/local/popcorn/x86_64/lib/libelf.a(32.xlatetof.o)
 ** fill        0x000000000040b86b        0x5
 .text.sword_32L__tom
                0x000000000040b870      0x1a3 0x10 /usr/local/popcorn/x86_64/lib/libelf.a(32.xlatetof.o)
 ** fill        0x000000000040ba13        0xd
 .text.sword_32L__tof
                0x000000000040ba20       0xa1 0x10 /usr/local/popcorn/x86_64/lib/libelf.a(32.xlatetof.o)
 ** fill        0x000000000040bac1        0xf
 .text.sym_32L11_tom
                0x000000000040bad0       0xba 0x10 /usr/local/popcorn/x86_64/lib/libelf.a(32.xlatetof.o)
 ** fill        0x000000000040bb8a        0x6
 .text.sym_32L11_tof
                0x000000000040bb90       0x93 0x10 /usr/local/popcorn/x86_64/lib/libelf.a(32.xlatetof.o)
 ** fill        0x000000000040bc23        0xd
 .text.word_32L__tom
                0x000000000040bc30      0x1a3 0x10 /usr/local/popcorn/x86_64/lib/libelf.a(32.xlatetof.o)
 ** fill        0x000000000040bdd3        0xd
 .text.word_32L__tof
                0x000000000040bde0       0xa1 0x10 /usr/local/popcorn/x86_64/lib/libelf.a(32.xlatetof.o)
 ** fill        0x000000000040be81        0xf
 .text.addr_32M__tom
                0x000000000040be90      0x193 0x10 /usr/local/popcorn/x86_64/lib/libelf.a(32.xlatetof.o)
 ** fill        0x000000000040c023        0xd
 .text.addr_32M__tof
                0x000000000040c030       0x91 0x10 /usr/local/popcorn/x86_64/lib/libelf.a(32.xlatetof.o)
 ** fill        0x000000000040c0c1        0xf
 .text.dyn_32M11_tom
                0x000000000040c0d0       0x77 0x10 /usr/local/popcorn/x86_64/lib/libelf.a(32.xlatetof.o)
 ** fill        0x000000000040c147        0x9
 .text.dyn_32M11_tof
                0x000000000040c150       0x63 0x10 /usr/local/popcorn/x86_64/lib/libelf.a(32.xlatetof.o)
 ** fill        0x000000000040c1b3        0xd
 .text.ehdr_32M11_tom
                0x000000000040c1c0      0x18b 0x10 /usr/local/popcorn/x86_64/lib/libelf.a(32.xlatetof.o)
 ** fill        0x000000000040c34b        0x5
 .text.ehdr_32M11_tof
                0x000000000040c350      0x131 0x10 /usr/local/popcorn/x86_64/lib/libelf.a(32.xlatetof.o)
 ** fill        0x000000000040c481        0xf
 .text.half_32M__tom
                0x000000000040c490      0x1b4 0x10 /usr/local/popcorn/x86_64/lib/libelf.a(32.xlatetof.o)
 ** fill        0x000000000040c644        0xc
 .text.half_32M__tof
                0x000000000040c650      0x1b9 0x10 /usr/local/popcorn/x86_64/lib/libelf.a(32.xlatetof.o)
 ** fill        0x000000000040c809        0x7
 .text.off_32M__tom
                0x000000000040c810      0x193 0x10 /usr/local/popcorn/x86_64/lib/libelf.a(32.xlatetof.o)
 ** fill        0x000000000040c9a3        0xd
 .text.off_32M__tof
                0x000000000040c9b0       0x91 0x10 /usr/local/popcorn/x86_64/lib/libelf.a(32.xlatetof.o)
 ** fill        0x000000000040ca41        0xf
 .text.phdr_32M11_tom
                0x000000000040ca50      0x147 0x10 /usr/local/popcorn/x86_64/lib/libelf.a(32.xlatetof.o)
 ** fill        0x000000000040cb97        0x9
 .text.phdr_32M11_tof
                0x000000000040cba0       0xf7 0x10 /usr/local/popcorn/x86_64/lib/libelf.a(32.xlatetof.o)
 ** fill        0x000000000040cc97        0x9
 .text.rela_32M11_tom
                0x000000000040cca0       0xad 0x10 /usr/local/popcorn/x86_64/lib/libelf.a(32.xlatetof.o)
 ** fill        0x000000000040cd4d        0x3
 .text.rela_32M11_tof
                0x000000000040cd50       0x8f 0x10 /usr/local/popcorn/x86_64/lib/libelf.a(32.xlatetof.o)
 ** fill        0x000000000040cddf        0x1
 .text.rel_32M11_tom
                0x000000000040cde0       0x77 0x10 /usr/local/popcorn/x86_64/lib/libelf.a(32.xlatetof.o)
 ** fill        0x000000000040ce57        0x9
 .text.rel_32M11_tof
                0x000000000040ce60       0x63 0x10 /usr/local/popcorn/x86_64/lib/libelf.a(32.xlatetof.o)
 ** fill        0x000000000040cec3        0xd
 .text.shdr_32M11_tom
                0x000000000040ced0      0x19f 0x10 /usr/local/popcorn/x86_64/lib/libelf.a(32.xlatetof.o)
 ** fill        0x000000000040d06f        0x1
 .text.shdr_32M11_tof
                0x000000000040d070      0x13b 0x10 /usr/local/popcorn/x86_64/lib/libelf.a(32.xlatetof.o)
 ** fill        0x000000000040d1ab        0x5
 .text.sword_32M__tom
                0x000000000040d1b0      0x193 0x10 /usr/local/popcorn/x86_64/lib/libelf.a(32.xlatetof.o)
 ** fill        0x000000000040d343        0xd
 .text.sword_32M__tof
                0x000000000040d350       0x91 0x10 /usr/local/popcorn/x86_64/lib/libelf.a(32.xlatetof.o)
 ** fill        0x000000000040d3e1        0xf
 .text.sym_32M11_tom
                0x000000000040d3f0       0xba 0x10 /usr/local/popcorn/x86_64/lib/libelf.a(32.xlatetof.o)
 ** fill        0x000000000040d4aa        0x6
 .text.sym_32M11_tof
                0x000000000040d4b0       0x93 0x10 /usr/local/popcorn/x86_64/lib/libelf.a(32.xlatetof.o)
 ** fill        0x000000000040d543        0xd
 .text.word_32M__tom
                0x000000000040d550      0x193 0x10 /usr/local/popcorn/x86_64/lib/libelf.a(32.xlatetof.o)
 ** fill        0x000000000040d6e3        0xd
 .text.word_32M__tof
                0x000000000040d6f0       0x91 0x10 /usr/local/popcorn/x86_64/lib/libelf.a(32.xlatetof.o)
 ** fill        0x000000000040d781        0x3
 .text          0x000000000040d784        0x0 0x4 /usr/local/popcorn/x86_64/lib/libelf.a(cook.o)
 ** fill        0x000000000040d784        0xc
 .text._elf_scn_type
                0x000000000040d790       0x6d 0x10 /usr/local/popcorn/x86_64/lib/libelf.a(cook.o)
                0x000000000040d790                _elf_scn_type
 ** fill        0x000000000040d7fd        0x3
 .text._elf_xlatetom
                0x000000000040d800       0x43 0x10 /usr/local/popcorn/x86_64/lib/libelf.a(cook.o)
                0x000000000040d800                _elf_xlatetom
 ** fill        0x000000000040d843        0xd
 .text._elf_cook
                0x000000000040d850      0x851 0x10 /usr/local/popcorn/x86_64/lib/libelf.a(cook.o)
                0x000000000040d850                _elf_cook
 ** fill        0x000000000040e0a1        0xf
 .text._elf_item
                0x000000000040e0b0      0x181 0x10 /usr/local/popcorn/x86_64/lib/libelf.a(cook.o)
 ** fill        0x000000000040e231        0x3
 .text          0x000000000040e234        0x0 0x4 /usr/local/popcorn/x86_64/lib/libelf.a(data.o)
 .text          0x000000000040e234        0x0 0x4 /usr/local/popcorn/x86_64/lib/libelf.a(input.o)
 ** fill        0x000000000040e234        0xc
 .text._elf_read
                0x000000000040e240      0x10c 0x10 /usr/local/popcorn/x86_64/lib/libelf.a(input.o)
                0x000000000040e240                _elf_read
 ** fill        0x000000000040e34c        0x4
 .text._elf_mmap
                0x000000000040e350       0x44 0x10 /usr/local/popcorn/x86_64/lib/libelf.a(input.o)
                0x000000000040e350                _elf_mmap
 .text          0x000000000040e394        0x0 0x4 /usr/local/popcorn/x86_64/lib/libelf.a(x.elfext.o)
 ** fill        0x000000000040e394        0xc
 .text.elf_getphdrnum
                0x000000000040e3a0       0x54 0x10 /usr/local/popcorn/x86_64/lib/libelf.a(x.elfext.o)
                0x000000000040e3a0                elf_getphdrnum
 ** fill        0x000000000040e3f4        0xc
 .text.elf_getshdrnum
                0x000000000040e400       0x6a 0x10 /usr/local/popcorn/x86_64/lib/libelf.a(x.elfext.o)
                0x000000000040e400                elf_getshdrnum
 ** fill        0x000000000040e46a        0x6
 .text.elf_getshdrstrndx
                0x000000000040e470       0xd3 0x10 /usr/local/popcorn/x86_64/lib/libelf.a(x.elfext.o)
                0x000000000040e470                elf_getshdrstrndx
 ** fill        0x000000000040e543        0xd
 .text.elf_getphnum
                0x000000000040e550       0x54 0x10 /usr/local/popcorn/x86_64/lib/libelf.a(x.elfext.o)
                0x000000000040e550                elf_getphnum
 ** fill        0x000000000040e5a4        0xc
 .text.elf_getshnum
                0x000000000040e5b0       0x62 0x10 /usr/local/popcorn/x86_64/lib/libelf.a(x.elfext.o)
                0x000000000040e5b0                elf_getshnum
 ** fill        0x000000000040e612        0xe
 .text.elf_getshstrndx
                0x000000000040e620       0xd3 0x10 /usr/local/popcorn/x86_64/lib/libelf.a(x.elfext.o)
                0x000000000040e620                elf_getshstrndx
 ** fill        0x000000000040e6f3        0xd
 .text.elfx_update_shstrndx
                0x000000000040e700       0xc4 0x10 /usr/local/popcorn/x86_64/lib/libelf.a(x.elfext.o)
                0x000000000040e700                elfx_update_shstrndx
 .text          0x000000000040e7c4        0x0 0x4 /usr/local/popcorn/x86_64/lib/libelf.a(64.xlatetof.o)
 ** fill        0x000000000040e7c4        0xc
 .text._elf64_xltsize
                0x000000000040e7d0       0x88 0x10 /usr/local/popcorn/x86_64/lib/libelf.a(64.xlatetof.o)
                0x000000000040e7d0                _elf64_xltsize
 ** fill        0x000000000040e858        0x8
 .text.elf64_xlatetom
                0x000000000040e860      0x104 0x10 /usr/local/popcorn/x86_64/lib/libelf.a(64.xlatetof.o)
                0x000000000040e860                elf64_xlatetom
 ** fill        0x000000000040e964        0xc
 .text.elf64_xlatetof
                0x000000000040e970      0x104 0x10 /usr/local/popcorn/x86_64/lib/libelf.a(64.xlatetof.o)
                0x000000000040e970                elf64_xlatetof
 ** fill        0x000000000040ea74        0xc
 .text.gelf_xlatetom
                0x000000000040ea80      0x178 0x10 /usr/local/popcorn/x86_64/lib/libelf.a(64.xlatetof.o)
                0x000000000040ea80                gelf_xlatetom
 ** fill        0x000000000040ebf8        0x8
 .text.gelf_xlatetof
                0x000000000040ec00      0x178 0x10 /usr/local/popcorn/x86_64/lib/libelf.a(64.xlatetof.o)
                0x000000000040ec00                gelf_xlatetof
 ** fill        0x000000000040ed78        0x8
 .text.byte_copy
                0x000000000040ed80       0x20 0x10 /usr/local/popcorn/x86_64/lib/libelf.a(64.xlatetof.o)
 .text.addr_64L__tom
                0x000000000040eda0       0x5c 0x10 /usr/local/popcorn/x86_64/lib/libelf.a(64.xlatetof.o)
 ** fill        0x000000000040edfc        0x4
 .text.addr_64L__tof
                0x000000000040ee00       0x5b 0x10 /usr/local/popcorn/x86_64/lib/libelf.a(64.xlatetof.o)
 ** fill        0x000000000040ee5b        0x5
 .text.dyn_64L11_tom
                0x000000000040ee60       0x68 0x10 /usr/local/popcorn/x86_64/lib/libelf.a(64.xlatetof.o)
 ** fill        0x000000000040eec8        0x8
 .text.dyn_64L11_tof
                0x000000000040eed0       0x68 0x10 /usr/local/popcorn/x86_64/lib/libelf.a(64.xlatetof.o)
 ** fill        0x000000000040ef38        0x8
 .text.ehdr_64L11_tom
                0x000000000040ef40      0x1a2 0x10 /usr/local/popcorn/x86_64/lib/libelf.a(64.xlatetof.o)
 ** fill        0x000000000040f0e2        0xe
 .text.ehdr_64L11_tof
                0x000000000040f0f0      0x182 0x10 /usr/local/popcorn/x86_64/lib/libelf.a(64.xlatetof.o)
 ** fill        0x000000000040f272        0xe
 .text.half_64L__tom
                0x000000000040f280      0x1b4 0x10 /usr/local/popcorn/x86_64/lib/libelf.a(64.xlatetof.o)
 ** fill        0x000000000040f434        0xc
 .text.half_64L__tof
                0x000000000040f440      0x1b9 0x10 /usr/local/popcorn/x86_64/lib/libelf.a(64.xlatetof.o)
 ** fill        0x000000000040f5f9        0x7
 .text.off_64L__tom
                0x000000000040f600       0x5c 0x10 /usr/local/popcorn/x86_64/lib/libelf.a(64.xlatetof.o)
 ** fill        0x000000000040f65c        0x4
 .text.off_64L__tof
                0x000000000040f660       0x5b 0x10 /usr/local/popcorn/x86_64/lib/libelf.a(64.xlatetof.o)
 ** fill        0x000000000040f6bb        0x5
 .text.phdr_64L11_tom
                0x000000000040f6c0      0x11e 0x10 /usr/local/popcorn/x86_64/lib/libelf.a(64.xlatetof.o)
 ** fill        0x000000000040f7de        0x2
 .text.phdr_64L11_tof
                0x000000000040f7e0      0x116 0x10 /usr/local/popcorn/x86_64/lib/libelf.a(64.xlatetof.o)
 ** fill        0x000000000040f8f6        0xa
 .text.rela_64L11_tom
                0x000000000040f900       0x89 0x10 /usr/local/popcorn/x86_64/lib/libelf.a(64.xlatetof.o)
 ** fill        0x000000000040f989        0x7
 .text.rela_64L11_tof
                0x000000000040f990       0x89 0x10 /usr/local/popcorn/x86_64/lib/libelf.a(64.xlatetof.o)
 ** fill        0x000000000040fa19        0x7
 .text.rel_64L11_tom
                0x000000000040fa20       0x68 0x10 /usr/local/popcorn/x86_64/lib/libelf.a(64.xlatetof.o)
 ** fill        0x000000000040fa88        0x8
 .text.rel_64L11_tof
                0x000000000040fa90       0x68 0x10 /usr/local/popcorn/x86_64/lib/libelf.a(64.xlatetof.o)
 ** fill        0x000000000040faf8        0x8
 .text.shdr_64L11_tom
                0x000000000040fb00      0x156 0x10 /usr/local/popcorn/x86_64/lib/libelf.a(64.xlatetof.o)
 ** fill        0x000000000040fc56        0xa
 .text.shdr_64L11_tof
                0x000000000040fc60      0x146 0x10 /usr/local/popcorn/x86_64/lib/libelf.a(64.xlatetof.o)
 ** fill        0x000000000040fda6        0xa
 .text.sword_64L__tom
                0x000000000040fdb0      0x1a3 0x10 /usr/local/popcorn/x86_64/lib/libelf.a(64.xlatetof.o)
 ** fill        0x000000000040ff53        0xd
 .text.sword_64L__tof
                0x000000000040ff60       0xa1 0x10 /usr/local/popcorn/x86_64/lib/libelf.a(64.xlatetof.o)
 ** fill        0x0000000000410001        0xf
 .text.sym_64L11_tom
                0x0000000000410010       0xbf 0x10 /usr/local/popcorn/x86_64/lib/libelf.a(64.xlatetof.o)
 ** fill        0x00000000004100cf        0x1
 .text.sym_64L11_tof
                0x00000000004100d0       0xb4 0x10 /usr/local/popcorn/x86_64/lib/libelf.a(64.xlatetof.o)
 ** fill        0x0000000000410184        0xc
 .text.word_64L__tom
                0x0000000000410190      0x1a3 0x10 /usr/local/popcorn/x86_64/lib/libelf.a(64.xlatetof.o)
 ** fill        0x0000000000410333        0xd
 .text.word_64L__tof
                0x0000000000410340       0xa1 0x10 /usr/local/popcorn/x86_64/lib/libelf.a(64.xlatetof.o)
 ** fill        0x00000000004103e1        0xf
 .text.sxword_64L__tom
                0x00000000004103f0       0x5c 0x10 /usr/local/popcorn/x86_64/lib/libelf.a(64.xlatetof.o)
 ** fill        0x000000000041044c        0x4
 .text.sxword_64L__tof
                0x0000000000410450       0x5b 0x10 /usr/local/popcorn/x86_64/lib/libelf.a(64.xlatetof.o)
 ** fill        0x00000000004104ab        0x5
 .text.xword_64L__tom
                0x00000000004104b0       0x5c 0x10 /usr/local/popcorn/x86_64/lib/libelf.a(64.xlatetof.o)
 ** fill        0x000000000041050c        0x4
 .text.xword_64L__tof
                0x0000000000410510       0x5b 0x10 /usr/local/popcorn/x86_64/lib/libelf.a(64.xlatetof.o)
 ** fill        0x000000000041056b        0x5
 .text.addr_64M__tom
                0x0000000000410570       0x5c 0x10 /usr/local/popcorn/x86_64/lib/libelf.a(64.xlatetof.o)
 ** fill        0x00000000004105cc        0x4
 .text.addr_64M__tof
                0x00000000004105d0       0x5b 0x10 /usr/local/popcorn/x86_64/lib/libelf.a(64.xlatetof.o)
 ** fill        0x000000000041062b        0x5
 .text.dyn_64M11_tom
                0x0000000000410630       0x68 0x10 /usr/local/popcorn/x86_64/lib/libelf.a(64.xlatetof.o)
 ** fill        0x0000000000410698        0x8
 .text.dyn_64M11_tof
                0x00000000004106a0       0x68 0x10 /usr/local/popcorn/x86_64/lib/libelf.a(64.xlatetof.o)
 ** fill        0x0000000000410708        0x8
 .text.ehdr_64M11_tom
                0x0000000000410710      0x1a2 0x10 /usr/local/popcorn/x86_64/lib/libelf.a(64.xlatetof.o)
 ** fill        0x00000000004108b2        0xe
 .text.ehdr_64M11_tof
                0x00000000004108c0      0x182 0x10 /usr/local/popcorn/x86_64/lib/libelf.a(64.xlatetof.o)
 ** fill        0x0000000000410a42        0xe
 .text.half_64M__tom
                0x0000000000410a50      0x1b4 0x10 /usr/local/popcorn/x86_64/lib/libelf.a(64.xlatetof.o)
 ** fill        0x0000000000410c04        0xc
 .text.half_64M__tof
                0x0000000000410c10      0x1b9 0x10 /usr/local/popcorn/x86_64/lib/libelf.a(64.xlatetof.o)
 ** fill        0x0000000000410dc9        0x7
 .text.off_64M__tom
                0x0000000000410dd0       0x5c 0x10 /usr/local/popcorn/x86_64/lib/libelf.a(64.xlatetof.o)
 ** fill        0x0000000000410e2c        0x4
 .text.off_64M__tof
                0x0000000000410e30       0x5b 0x10 /usr/local/popcorn/x86_64/lib/libelf.a(64.xlatetof.o)
 ** fill        0x0000000000410e8b        0x5
 .text.phdr_64M11_tom
                0x0000000000410e90       0xf6 0x10 /usr/local/popcorn/x86_64/lib/libelf.a(64.xlatetof.o)
 ** fill        0x0000000000410f86        0xa
 .text.phdr_64M11_tof
                0x0000000000410f90       0xe8 0x10 /usr/local/popcorn/x86_64/lib/libelf.a(64.xlatetof.o)
 ** fill        0x0000000000411078        0x8
 .text.rela_64M11_tom
                0x0000000000411080       0x89 0x10 /usr/local/popcorn/x86_64/lib/libelf.a(64.xlatetof.o)
 ** fill        0x0000000000411109        0x7
 .text.rela_64M11_tof
                0x0000000000411110       0x89 0x10 /usr/local/popcorn/x86_64/lib/libelf.a(64.xlatetof.o)
 ** fill        0x0000000000411199        0x7
 .text.rel_64M11_tom
                0x00000000004111a0       0x68 0x10 /usr/local/popcorn/x86_64/lib/libelf.a(64.xlatetof.o)
 ** fill        0x0000000000411208        0x8
 .text.rel_64M11_tof
                0x0000000000411210       0x68 0x10 /usr/local/popcorn/x86_64/lib/libelf.a(64.xlatetof.o)
 ** fill        0x0000000000411278        0x8
 .text.shdr_64M11_tom
                0x0000000000411280      0x12c 0x10 /usr/local/popcorn/x86_64/lib/libelf.a(64.xlatetof.o)
 ** fill        0x00000000004113ac        0x4
 .text.shdr_64M11_tof
                0x00000000004113b0      0x110 0x10 /usr/local/popcorn/x86_64/lib/libelf.a(64.xlatetof.o)
 .text.sword_64M__tom
                0x00000000004114c0      0x193 0x10 /usr/local/popcorn/x86_64/lib/libelf.a(64.xlatetof.o)
 ** fill        0x0000000000411653        0xd
 .text.sword_64M__tof
                0x0000000000411660       0x91 0x10 /usr/local/popcorn/x86_64/lib/libelf.a(64.xlatetof.o)
 ** fill        0x00000000004116f1        0xf
 .text.sym_64M11_tom
                0x0000000000411700       0xbf 0x10 /usr/local/popcorn/x86_64/lib/libelf.a(64.xlatetof.o)
 ** fill        0x00000000004117bf        0x1
 .text.sym_64M11_tof
                0x00000000004117c0       0xb4 0x10 /usr/local/popcorn/x86_64/lib/libelf.a(64.xlatetof.o)
 ** fill        0x0000000000411874        0xc
 .text.word_64M__tom
                0x0000000000411880      0x193 0x10 /usr/local/popcorn/x86_64/lib/libelf.a(64.xlatetof.o)
 ** fill        0x0000000000411a13        0xd
 .text.word_64M__tof
                0x0000000000411a20       0x91 0x10 /usr/local/popcorn/x86_64/lib/libelf.a(64.xlatetof.o)
 ** fill        0x0000000000411ab1        0xf
 .text.sxword_64M__tom
                0x0000000000411ac0       0x5c 0x10 /usr/local/popcorn/x86_64/lib/libelf.a(64.xlatetof.o)
 ** fill        0x0000000000411b1c        0x4
 .text.sxword_64M__tof
                0x0000000000411b20       0x5b 0x10 /usr/local/popcorn/x86_64/lib/libelf.a(64.xlatetof.o)
 ** fill        0x0000000000411b7b        0x5
 .text.xword_64M__tom
                0x0000000000411b80       0x5c 0x10 /usr/local/popcorn/x86_64/lib/libelf.a(64.xlatetof.o)
 ** fill        0x0000000000411bdc        0x4
 .text.xword_64M__tof
                0x0000000000411be0       0x5b 0x10 /usr/local/popcorn/x86_64/lib/libelf.a(64.xlatetof.o)
 ** fill        0x0000000000411c3b        0x1
 .text          0x0000000000411c3c        0x0 0x4 /usr/local/popcorn/x86_64/lib/libelf.a(gelfshdr.o)
 ** fill        0x0000000000411c3c        0x4
 .text.gelf_getshdr
                0x0000000000411c40      0x101 0x10 /usr/local/popcorn/x86_64/lib/libelf.a(gelfshdr.o)
                0x0000000000411c40                gelf_getshdr
 ** fill        0x0000000000411d41        0xf
 .text.gelf_update_shdr
                0x0000000000411d50      0x139 0x10 /usr/local/popcorn/x86_64/lib/libelf.a(gelfshdr.o)
                0x0000000000411d50                gelf_update_shdr
 ** fill        0x0000000000411e89        0x3
 .text          0x0000000000411e8c        0x0 0x4 /usr/local/popcorn/x86_64/lib/libelf.a(swap64.o)
 ** fill        0x0000000000411e8c        0x4
 .text._elf_load_u64L
                0x0000000000411e90       0x4e 0x10 /usr/local/popcorn/x86_64/lib/libelf.a(swap64.o)
                0x0000000000411e90                _elf_load_u64L
 ** fill        0x0000000000411ede        0x2
 .text._elf_load_u64M
                0x0000000000411ee0       0x4e 0x10 /usr/local/popcorn/x86_64/lib/libelf.a(swap64.o)
                0x0000000000411ee0                _elf_load_u64M
 ** fill        0x0000000000411f2e        0x2
 .text._elf_load_i64L
                0x0000000000411f30       0x4e 0x10 /usr/local/popcorn/x86_64/lib/libelf.a(swap64.o)
                0x0000000000411f30                _elf_load_i64L
 ** fill        0x0000000000411f7e        0x2
 .text._elf_load_i64M
                0x0000000000411f80       0x4e 0x10 /usr/local/popcorn/x86_64/lib/libelf.a(swap64.o)
                0x0000000000411f80                _elf_load_i64M
 ** fill        0x0000000000411fce        0x2
 .text._elf_store_u64L
                0x0000000000411fd0       0x3e 0x10 /usr/local/popcorn/x86_64/lib/libelf.a(swap64.o)
                0x0000000000411fd0                _elf_store_u64L
 ** fill        0x000000000041200e        0x2
 .text._elf_store_u64M
                0x0000000000412010       0x3e 0x10 /usr/local/popcorn/x86_64/lib/libelf.a(swap64.o)
                0x0000000000412010                _elf_store_u64M
 ** fill        0x000000000041204e        0x2
 .text._elf_store_i64L
                0x0000000000412050       0x3e 0x10 /usr/local/popcorn/x86_64/lib/libelf.a(swap64.o)
                0x0000000000412050                _elf_store_i64L
 ** fill        0x000000000041208e        0x2
 .text._elf_store_i64M
                0x0000000000412090       0x3e 0x10 /usr/local/popcorn/x86_64/lib/libelf.a(swap64.o)
                0x0000000000412090                _elf_store_i64M
 ** fill        0x00000000004120ce        0x2
 .text          0x00000000004120d0        0x0 0x4 /usr/local/popcorn/x86_64/lib/libelf.a(verdef_32_tof.o)
 .text._elf_verdef_32L11_tof
                0x00000000004120d0        0xa 0x10 /usr/local/popcorn/x86_64/lib/libelf.a(verdef_32_tof.o)
                0x00000000004120d0                _elf_verdef_32L11_tof
 ** fill        0x00000000004120da        0x6
 .text.xlt_verdef
                0x00000000004120e0      0x2fd 0x10 /usr/local/popcorn/x86_64/lib/libelf.a(verdef_32_tof.o)
 ** fill        0x00000000004123dd        0x3
 .text._elf_verdef_32M11_tof
                0x00000000004123e0        0xa 0x10 /usr/local/popcorn/x86_64/lib/libelf.a(verdef_32_tof.o)
                0x00000000004123e0                _elf_verdef_32M11_tof
 ** fill        0x00000000004123ea        0x6
 .text._elf_verneed_32L11_tof
                0x00000000004123f0        0xa 0x10 /usr/local/popcorn/x86_64/lib/libelf.a(verdef_32_tof.o)
                0x00000000004123f0                _elf_verneed_32L11_tof
 ** fill        0x00000000004123fa        0x6
 .text.xlt_verneed
                0x0000000000412400      0x351 0x10 /usr/local/popcorn/x86_64/lib/libelf.a(verdef_32_tof.o)
 ** fill        0x0000000000412751        0xf
 .text._elf_verneed_32M11_tof
                0x0000000000412760        0xa 0x10 /usr/local/popcorn/x86_64/lib/libelf.a(verdef_32_tof.o)
                0x0000000000412760                _elf_verneed_32M11_tof
 ** fill        0x000000000041276a        0x2
 .text          0x000000000041276c        0x0 0x4 /usr/local/popcorn/x86_64/lib/libelf.a(verdef_32_tom.o)
 ** fill        0x000000000041276c        0x4
 .text._elf_verdef_32L11_tom
                0x0000000000412770        0xa 0x10 /usr/local/popcorn/x86_64/lib/libelf.a(verdef_32_tom.o)
                0x0000000000412770                _elf_verdef_32L11_tom
 ** fill        0x000000000041277a        0x6
 .text.xlt_verdef
                0x0000000000412780      0x41f 0x10 /usr/local/popcorn/x86_64/lib/libelf.a(verdef_32_tom.o)
 ** fill        0x0000000000412b9f        0x1
 .text._elf_verdef_32M11_tom
                0x0000000000412ba0        0xa 0x10 /usr/local/popcorn/x86_64/lib/libelf.a(verdef_32_tom.o)
                0x0000000000412ba0                _elf_verdef_32M11_tom
 ** fill        0x0000000000412baa        0x6
 .text._elf_verneed_32L11_tom
                0x0000000000412bb0        0xa 0x10 /usr/local/popcorn/x86_64/lib/libelf.a(verdef_32_tom.o)
                0x0000000000412bb0                _elf_verneed_32L11_tom
 ** fill        0x0000000000412bba        0x6
 .text.xlt_verneed
                0x0000000000412bc0      0x3a1 0x10 /usr/local/popcorn/x86_64/lib/libelf.a(verdef_32_tom.o)
 ** fill        0x0000000000412f61        0xf
 .text._elf_verneed_32M11_tom
                0x0000000000412f70        0xa 0x10 /usr/local/popcorn/x86_64/lib/libelf.a(verdef_32_tom.o)
                0x0000000000412f70                _elf_verneed_32M11_tom
 ** fill        0x0000000000412f7a        0x2
 .text          0x0000000000412f7c        0x0 0x4 /usr/local/popcorn/x86_64/lib/libelf.a(verdef_64_tof.o)
 ** fill        0x0000000000412f7c        0x4
 .text._elf_verdef_64L11_tof
                0x0000000000412f80        0xa 0x10 /usr/local/popcorn/x86_64/lib/libelf.a(verdef_64_tof.o)
                0x0000000000412f80                _elf_verdef_64L11_tof
 ** fill        0x0000000000412f8a        0x6
 .text.xlt_verdef
                0x0000000000412f90      0x2fd 0x10 /usr/local/popcorn/x86_64/lib/libelf.a(verdef_64_tof.o)
 ** fill        0x000000000041328d        0x3
 .text._elf_verdef_64M11_tof
                0x0000000000413290        0xa 0x10 /usr/local/popcorn/x86_64/lib/libelf.a(verdef_64_tof.o)
                0x0000000000413290                _elf_verdef_64M11_tof
 ** fill        0x000000000041329a        0x6
 .text._elf_verneed_64L11_tof
                0x00000000004132a0        0xa 0x10 /usr/local/popcorn/x86_64/lib/libelf.a(verdef_64_tof.o)
                0x00000000004132a0                _elf_verneed_64L11_tof
 ** fill        0x00000000004132aa        0x6
 .text.xlt_verneed
                0x00000000004132b0      0x351 0x10 /usr/local/popcorn/x86_64/lib/libelf.a(verdef_64_tof.o)
 ** fill        0x0000000000413601        0xf
 .text._elf_verneed_64M11_tof
                0x0000000000413610        0xa 0x10 /usr/local/popcorn/x86_64/lib/libelf.a(verdef_64_tof.o)
                0x0000000000413610                _elf_verneed_64M11_tof
 ** fill        0x000000000041361a        0x2
 .text          0x000000000041361c        0x0 0x4 /usr/local/popcorn/x86_64/lib/libelf.a(verdef_64_tom.o)
 ** fill        0x000000000041361c        0x4
 .text._elf_verdef_64L11_tom
                0x0000000000413620        0xa 0x10 /usr/local/popcorn/x86_64/lib/libelf.a(verdef_64_tom.o)
                0x0000000000413620                _elf_verdef_64L11_tom
 ** fill        0x000000000041362a        0x6
 .text.xlt_verdef
                0x0000000000413630      0x41f 0x10 /usr/local/popcorn/x86_64/lib/libelf.a(verdef_64_tom.o)
 ** fill        0x0000000000413a4f        0x1
 .text._elf_verdef_64M11_tom
                0x0000000000413a50        0xa 0x10 /usr/local/popcorn/x86_64/lib/libelf.a(verdef_64_tom.o)
                0x0000000000413a50                _elf_verdef_64M11_tom
 ** fill        0x0000000000413a5a        0x6
 .text._elf_verneed_64L11_tom
                0x0000000000413a60        0xa 0x10 /usr/local/popcorn/x86_64/lib/libelf.a(verdef_64_tom.o)
                0x0000000000413a60                _elf_verneed_64L11_tom
 ** fill        0x0000000000413a6a        0x6
 .text.xlt_verneed
                0x0000000000413a70      0x3a1 0x10 /usr/local/popcorn/x86_64/lib/libelf.a(verdef_64_tom.o)
 ** fill        0x0000000000413e11        0xf
 .text._elf_verneed_64M11_tom
                0x0000000000413e20        0xa 0x10 /usr/local/popcorn/x86_64/lib/libelf.a(verdef_64_tom.o)
                0x0000000000413e20                _elf_verneed_64M11_tom
 ** fill        0x0000000000413e2a        0x2
 .text          0x0000000000413e2c        0x0 0x4 /usr/local/popcorn/x86_64/lib/libelf.a(getscn.o)
 ** fill        0x0000000000413e2c        0x4
 .text.elf_getscn
                0x0000000000413e30       0x70 0x10 /usr/local/popcorn/x86_64/lib/libelf.a(getscn.o)
                0x0000000000413e30                elf_getscn
 .text          0x0000000000413ea0        0x0 0x4 /usr/local/popcorn/x86_64/lib/libelf.a(newscn.o)
 .text._elf_update_shnum
                0x0000000000413ea0       0x68 0x10 /usr/local/popcorn/x86_64/lib/libelf.a(newscn.o)
                0x0000000000413ea0                _elf_update_shnum
 ** fill        0x0000000000413f08        0x8
 .text._elf_first_scn
                0x0000000000413f10       0xed 0x10 /usr/local/popcorn/x86_64/lib/libelf.a(newscn.o)
                0x0000000000413f10                _elf_first_scn
 ** fill        0x0000000000413ffd        0x3
 .text.elf_newscn
                0x0000000000414000      0x249 0x10 /usr/local/popcorn/x86_64/lib/libelf.a(newscn.o)
                0x0000000000414000                elf_newscn
 ** fill        0x0000000000414249        0x3
 .text          0x000000000041424c        0x0 0x4 /usr/local/popcorn/x86_64/lib/libelf.a(32.fsize.o)
 ** fill        0x000000000041424c        0x4
 .text.elf32_fsize
                0x0000000000414250       0x39 0x10 /usr/local/popcorn/x86_64/lib/libelf.a(32.fsize.o)
                0x0000000000414250                elf32_fsize
 ** fill        0x0000000000414289        0x7
 .text.elf64_fsize
                0x0000000000414290       0x39 0x10 /usr/local/popcorn/x86_64/lib/libelf.a(32.fsize.o)
                0x0000000000414290                elf64_fsize
 ** fill        0x00000000004142c9        0x7
 .text.gelf_fsize
                0x00000000004142d0       0x76 0x10 /usr/local/popcorn/x86_64/lib/libelf.a(32.fsize.o)
                0x00000000004142d0                gelf_fsize
 ** fill        0x0000000000414346        0xa
 .text.gelf_msize
                0x0000000000414350       0x79 0x10 /usr/local/popcorn/x86_64/lib/libelf.a(32.fsize.o)
                0x0000000000414350                gelf_msize
 ** fill        0x00000000004143c9        0x3
 .text          0x00000000004143cc        0x0 0x4 /usr/local/popcorn/x86_64/lib/libc.a(arch_crash.o)
 .text.__crash_aarch64
                0x00000000004143cc        0x3 0x1 /usr/local/popcorn/x86_64/lib/libc.a(arch_crash.o)
                0x00000000004143cc                __crash_aarch64
                0x00000000004143cc                crash_aarch64
 .text.__crash_powerpc64
                0x00000000004143cf        0x3 0x1 /usr/local/popcorn/x86_64/lib/libc.a(arch_crash.o)
                0x00000000004143cf                __crash_powerpc64
                0x00000000004143cf                crash_powerpc64
 .text.__crash_x86_64
                0x00000000004143d2       0x18 0x1 /usr/local/popcorn/x86_64/lib/libc.a(arch_crash.o)
                0x00000000004143d2                __crash_x86_64
                0x00000000004143d2                crash_x86_64
 .text.__crash  0x00000000004143ea       0x18 0x1 /usr/local/popcorn/x86_64/lib/libc.a(arch_crash.o)
                0x00000000004143ea                __crash
                0x00000000004143ea                crash
 ** fill        0x0000000000414402        0x2
 .text          0x0000000000414404        0x0 0x4 /usr/local/popcorn/x86_64/lib/libc.a(getenv.o)
 .text.getenv   0x0000000000414404       0x85 0x1 /usr/local/popcorn/x86_64/lib/libc.a(getenv.o)
                0x0000000000414404                getenv
 ** fill        0x0000000000414489        0x3
 .text          0x000000000041448c        0x0 0x4 /usr/local/popcorn/x86_64/lib/libc.a(platform.o)
 .text.popcorn_getnid
                0x000000000041448c       0x29 0x1 /usr/local/popcorn/x86_64/lib/libc.a(platform.o)
                0x000000000041448c                popcorn_getnid
 .text.popcorn_getthreadinfo
                0x00000000004144b5        0xf 0x1 /usr/local/popcorn/x86_64/lib/libc.a(platform.o)
                0x00000000004144b5                popcorn_getthreadinfo
 .text.popcorn_getnodeinfo
                0x00000000004144c4       0x78 0x1 /usr/local/popcorn/x86_64/lib/libc.a(platform.o)
                0x00000000004144c4                popcorn_getnodeinfo
 .text          0x000000000041453c        0x0 0x4 /usr/local/popcorn/x86_64/lib/libc.a(assert.o)
 .text.__assert_fail
                0x000000000041453c       0x2c 0x1 /usr/local/popcorn/x86_64/lib/libc.a(assert.o)
                0x000000000041453c                __assert_fail
 .text          0x0000000000414568        0x0 0x4 /usr/local/popcorn/x86_64/lib/libc.a(open.o)
 .text.open     0x0000000000414568      0x126 0x1 /usr/local/popcorn/x86_64/lib/libc.a(open.o)
                0x0000000000414568                open
                0x0000000000414568                open64
 ** fill        0x000000000041468e        0x2
 .text          0x0000000000414690        0x0 0x4 /usr/local/popcorn/x86_64/lib/libc.a(calloc.o)
 .text.calloc   0x0000000000414690       0x34 0x10 /usr/local/popcorn/x86_64/lib/libc.a(calloc.o)
                0x0000000000414690                calloc
 ** fill        0x00000000004146c4        0xc
 .text.popcorn_calloc
                0x00000000004146d0       0x38 0x10 /usr/local/popcorn/x86_64/lib/libc.a(calloc.o)
                0x00000000004146d0                popcorn_calloc
 ** fill        0x0000000000414708        0x8
 .text.popcorn_calloc_cur
                0x0000000000414710       0x4e 0x10 /usr/local/popcorn/x86_64/lib/libc.a(calloc.o)
                0x0000000000414710                popcorn_calloc_cur
 ** fill        0x000000000041475e        0x2
 .text          0x0000000000414760        0x0 0x4 /usr/local/popcorn/x86_64/lib/libc.a(lite_malloc.o)
 .text.__simple_malloc
                0x0000000000414760       0xea 0x10 /usr/local/popcorn/x86_64/lib/libc.a(lite_malloc.o)
 ** fill        0x000000000041484a        0x2
 .text          0x000000000041484c        0x0 0x4 /usr/local/popcorn/x86_64/lib/libc.a(malloc.o)
 ** fill        0x000000000041484c        0x4
 .text.__init_malloc
                0x0000000000414850       0x11 0x10 /usr/local/popcorn/x86_64/lib/libc.a(malloc.o)
 ** fill        0x0000000000414861        0xf
 .text.malloc   0x0000000000414870      0x788 0x10 /usr/local/popcorn/x86_64/lib/libc.a(malloc.o)
                0x0000000000414870                malloc
 ** fill        0x0000000000414ff8        0x8
 .text.lock_bin
                0x0000000000415000       0x78 0x10 /usr/local/popcorn/x86_64/lib/libc.a(malloc.o)
 ** fill        0x0000000000415078        0x8
 .text.unbin    0x0000000000415080       0x53 0x10 /usr/local/popcorn/x86_64/lib/libc.a(malloc.o)
 ** fill        0x00000000004150d3        0xd
 .text.unlock_bin
                0x00000000004150e0       0x55 0x10 /usr/local/popcorn/x86_64/lib/libc.a(malloc.o)
 ** fill        0x0000000000415135        0xb
 .text.__malloc0
                0x0000000000415140       0xaf 0x10 /usr/local/popcorn/x86_64/lib/libc.a(malloc.o)
                0x0000000000415140                __malloc0
 ** fill        0x00000000004151ef        0x1
 .text.realloc  0x00000000004151f0      0x247 0x10 /usr/local/popcorn/x86_64/lib/libc.a(malloc.o)
                0x00000000004151f0                realloc
 ** fill        0x0000000000415437        0x9
 .text.free     0x0000000000415440      0x672 0x10 /usr/local/popcorn/x86_64/lib/libc.a(malloc.o)
                0x0000000000415440                free
 ** fill        0x0000000000415ab2        0xe
 .text.alloc_fwd
                0x0000000000415ac0       0xc2 0x10 /usr/local/popcorn/x86_64/lib/libc.a(malloc.o)
 ** fill        0x0000000000415b82        0x2
 .text          0x0000000000415b84        0x0 0x4 /usr/local/popcorn/x86_64/lib/libc.a(popcorn_malloc.o)
 ** fill        0x0000000000415b84        0xc
 .text.__init_malloc
                0x0000000000415b90       0x11 0x10 /usr/local/popcorn/x86_64/lib/libc.a(popcorn_malloc.o)
 ** fill        0x0000000000415ba1        0xf
 .text.popcorn_malloc
                0x0000000000415bb0      0x9b7 0x10 /usr/local/popcorn/x86_64/lib/libc.a(popcorn_malloc.o)
                0x0000000000415bb0                popcorn_malloc
 ** fill        0x0000000000416567        0x9
 .text.__popcorn_malloc0
                0x0000000000416570       0xaf 0x10 /usr/local/popcorn/x86_64/lib/libc.a(popcorn_malloc.o)
                0x0000000000416570                __popcorn_malloc0
 ** fill        0x000000000041661f        0x1
 .text.popcorn_malloc_cur
                0x0000000000416620       0x16 0x10 /usr/local/popcorn/x86_64/lib/libc.a(popcorn_malloc.o)
                0x0000000000416620                popcorn_malloc_cur
 ** fill        0x0000000000416636        0xa
 .text.popcorn_realloc
                0x0000000000416640      0x4cb 0x10 /usr/local/popcorn/x86_64/lib/libc.a(popcorn_malloc.o)
                0x0000000000416640                popcorn_realloc
 ** fill        0x0000000000416b0b        0x5
 .text.popcorn_free
                0x0000000000416b10      0x90b 0x10 /usr/local/popcorn/x86_64/lib/libc.a(popcorn_malloc.o)
                0x0000000000416b10                popcorn_free
 ** fill        0x000000000041741b        0x5
 .text.popcorn_realloc_cur
                0x0000000000417420       0x25 0x10 /usr/local/popcorn/x86_64/lib/libc.a(popcorn_malloc.o)
                0x0000000000417420                popcorn_realloc_cur
 ** fill        0x0000000000417445        0x3
 .text          0x0000000000417448        0x0 0x4 /usr/local/popcorn/x86_64/lib/libc.a(getrlimit.o)
 .text.getrlimit
                0x0000000000417448       0xad 0x1 /usr/local/popcorn/x86_64/lib/libc.a(getrlimit.o)
                0x0000000000417448                getrlimit
                0x0000000000417448                getrlimit64
 ** fill        0x00000000004174f5        0x3
 .text          0x00000000004174f8        0x0 0x4 /usr/local/popcorn/x86_64/lib/libc.a(syscall.o)
 .text.syscall  0x00000000004174f8      0x1ef 0x1 /usr/local/popcorn/x86_64/lib/libc.a(syscall.o)
                0x00000000004174f8                syscall
 ** fill        0x00000000004176e7        0x1
 .text          0x00000000004176e8        0x0 0x4 /usr/local/popcorn/x86_64/lib/libc.a(madvise.o)
 .text.__madvise
                0x00000000004176e8       0x12 0x1 /usr/local/popcorn/x86_64/lib/libc.a(madvise.o)
                0x00000000004176e8                __madvise
                0x00000000004176e8                madvise
 ** fill        0x00000000004176fa        0x2
 .text          0x00000000004176fc        0x0 0x4 /usr/local/popcorn/x86_64/lib/libc.a(mremap.o)
 .text.dummy    0x00000000004176fc        0x1 0x1 /usr/local/popcorn/x86_64/lib/libc.a(mremap.o)
 .text.__mremap
                0x00000000004176fd      0x11e 0x1 /usr/local/popcorn/x86_64/lib/libc.a(mremap.o)
                0x00000000004176fd                __mremap
                0x00000000004176fd                mremap
 ** fill        0x000000000041781b        0x1
 .text          0x000000000041781c        0x0 0x4 /usr/local/popcorn/x86_64/lib/libc.a(sigaction.o)
 .text.__get_handler_set
                0x000000000041781c        0xf 0x1 /usr/local/popcorn/x86_64/lib/libc.a(sigaction.o)
                0x000000000041781c                __get_handler_set
 .text.__libc_sigaction
                0x000000000041782b      0x139 0x1 /usr/local/popcorn/x86_64/lib/libc.a(sigaction.o)
                0x000000000041782b                __libc_sigaction
 .text.__sigaction
                0x0000000000417964       0x2a 0x1 /usr/local/popcorn/x86_64/lib/libc.a(sigaction.o)
                0x0000000000417964                __sigaction
                0x0000000000417964                sigaction
 ** fill        0x000000000041798e        0x2
 .text          0x0000000000417990        0x0 0x4 /usr/local/popcorn/x86_64/lib/libc.a(sigemptyset.o)
 .text.sigemptyset
                0x0000000000417990        0xa 0x1 /usr/local/popcorn/x86_64/lib/libc.a(sigemptyset.o)
                0x0000000000417990                sigemptyset
 ** fill        0x000000000041799a        0x2
 .text          0x000000000041799c        0x0 0x4 /usr/local/popcorn/x86_64/lib/libc.a(sigrtmin.o)
 .text.__libc_current_sigrtmin
                0x000000000041799c        0x6 0x1 /usr/local/popcorn/x86_64/lib/libc.a(sigrtmin.o)
                0x000000000041799c                __libc_current_sigrtmin
 ** fill        0x00000000004179a2        0x2
 .text          0x00000000004179a4        0x0 0x4 /usr/local/popcorn/x86_64/lib/libc.a(restore.o)
 .text.__restore_rt
                0x00000000004179a4        0x9 0x1 /usr/local/popcorn/x86_64/lib/libc.a(restore.o)
                0x00000000004179a4                __restore_rt
 ** fill        0x00000000004179ad        0x3
 .text          0x00000000004179b0        0x0 0x4 /usr/local/popcorn/x86_64/lib/libc.a(fclose.o)
 .text.dummy    0x00000000004179b0        0x1 0x1 /usr/local/popcorn/x86_64/lib/libc.a(fclose.o)
                0x00000000004179b0                __unlist_locked_file
 .text.fclose   0x00000000004179b1       0xb4 0x1 /usr/local/popcorn/x86_64/lib/libc.a(fclose.o)
                0x00000000004179b1                fclose
 ** fill        0x0000000000417a65        0x3
 .text          0x0000000000417a68        0x0 0x4 /usr/local/popcorn/x86_64/lib/libc.a(fflush.o)
 .text.fflush   0x0000000000417a68      0x10d 0x1 /usr/local/popcorn/x86_64/lib/libc.a(fflush.o)
                0x0000000000417a68                fflush
                0x0000000000417a68                fflush_unlocked
 ** fill        0x0000000000417b75        0x3
 .text          0x0000000000417b78        0x0 0x4 /usr/local/popcorn/x86_64/lib/libc.a(fopen.o)
 .text.fopen    0x0000000000417b78       0x94 0x1 /usr/local/popcorn/x86_64/lib/libc.a(fopen.o)
                0x0000000000417b78                fopen
                0x0000000000417b78                fopen64
 .text          0x0000000000417c0c        0x0 0x4 /usr/local/popcorn/x86_64/lib/libc.a(fprintf.o)
 .text.fprintf  0x0000000000417c0c       0x97 0x1 /usr/local/popcorn/x86_64/lib/libc.a(fprintf.o)
                0x0000000000417c0c                fprintf
 ** fill        0x0000000000417ca3        0x1
 .text          0x0000000000417ca4        0x0 0x4 /usr/local/popcorn/x86_64/lib/libc.a(fscanf.o)
 .text.fscanf   0x0000000000417ca4       0x97 0x1 /usr/local/popcorn/x86_64/lib/libc.a(fscanf.o)
                0x0000000000417ca4                __isoc99_fscanf
                0x0000000000417ca4                fscanf
 ** fill        0x0000000000417d3b        0x1
 .text          0x0000000000417d3c        0x0 0x4 /usr/local/popcorn/x86_64/lib/libc.a(fseek.o)
 .text.__fseeko_unlocked
                0x0000000000417d3c       0x83 0x1 /usr/local/popcorn/x86_64/lib/libc.a(fseek.o)
                0x0000000000417d3c                __fseeko_unlocked
 .text.__fseeko
                0x0000000000417dbf       0x60 0x1 /usr/local/popcorn/x86_64/lib/libc.a(fseek.o)
                0x0000000000417dbf                __fseeko
                0x0000000000417dbf                fseeko
                0x0000000000417dbf                fseeko64
 .text.fseek    0x0000000000417e1f        0x5 0x1 /usr/local/popcorn/x86_64/lib/libc.a(fseek.o)
                0x0000000000417e1f                fseek
 .text          0x0000000000417e24        0x0 0x4 /usr/local/popcorn/x86_64/lib/libc.a(getc.o)
 .text.getc     0x0000000000417e24       0x76 0x1 /usr/local/popcorn/x86_64/lib/libc.a(getc.o)
                0x0000000000417e24                _IO_getc
                0x0000000000417e24                getc
 ** fill        0x0000000000417e9a        0x2
 .text          0x0000000000417e9c        0x0 0x4 /usr/local/popcorn/x86_64/lib/libc.a(getline.o)
 .text.getline  0x0000000000417e9c       0x10 0x1 /usr/local/popcorn/x86_64/lib/libc.a(getline.o)
                0x0000000000417e9c                getline
 .text          0x0000000000417eac        0x0 0x4 /usr/local/popcorn/x86_64/lib/libc.a(snprintf.o)
 .text.snprintf
                0x0000000000417eac       0x92 0x1 /usr/local/popcorn/x86_64/lib/libc.a(snprintf.o)
                0x0000000000417eac                snprintf
 ** fill        0x0000000000417f3e        0x2
 .text          0x0000000000417f40        0x0 0x4 /usr/local/popcorn/x86_64/lib/libc.a(sscanf.o)
 .text.sscanf   0x0000000000417f40       0x97 0x1 /usr/local/popcorn/x86_64/lib/libc.a(sscanf.o)
                0x0000000000417f40                __isoc99_sscanf
                0x0000000000417f40                sscanf
 ** fill        0x0000000000417fd7        0x1
 .text          0x0000000000417fd8        0x0 0x4 /usr/local/popcorn/x86_64/lib/libc.a(vfscanf.o)
 .text.vfscanf  0x0000000000417fd8      0xccc 0x1 /usr/local/popcorn/x86_64/lib/libc.a(vfscanf.o)
                0x0000000000417fd8                __isoc99_vfscanf
                0x0000000000417fd8                vfscanf
 .text          0x0000000000418ca4        0x0 0x4 /usr/local/popcorn/x86_64/lib/libc.a(vsnprintf.o)
 .text.vsnprintf
                0x0000000000418ca4       0xcb 0x1 /usr/local/popcorn/x86_64/lib/libc.a(vsnprintf.o)
                0x0000000000418ca4                vsnprintf
 .text.sn_write
                0x0000000000418d6f       0xb7 0x1 /usr/local/popcorn/x86_64/lib/libc.a(vsnprintf.o)
 ** fill        0x0000000000418e26        0x2
 .text          0x0000000000418e28        0x0 0x4 /usr/local/popcorn/x86_64/lib/libc.a(vsscanf.o)
 .text.vsscanf  0x0000000000418e28       0x68 0x1 /usr/local/popcorn/x86_64/lib/libc.a(vsscanf.o)
                0x0000000000418e28                __isoc99_vsscanf
                0x0000000000418e28                vsscanf
 .text.do_read  0x0000000000418e90        0x5 0x1 /usr/local/popcorn/x86_64/lib/libc.a(vsscanf.o)
 ** fill        0x0000000000418e95        0x3
 .text          0x0000000000418e98        0x0 0x4 /usr/local/popcorn/x86_64/lib/libc.a(bsearch.o)
 .text.bsearch  0x0000000000418e98       0x84 0x1 /usr/local/popcorn/x86_64/lib/libc.a(bsearch.o)
                0x0000000000418e98                bsearch
 .text          0x0000000000418f1c        0x0 0x4 /usr/local/popcorn/x86_64/lib/libc.a(qsort.o)
 .text.qsort    0x0000000000418f1c      0x353 0x1 /usr/local/popcorn/x86_64/lib/libc.a(qsort.o)
                0x0000000000418f1c                qsort
 .text.sift     0x000000000041926f       0xf0 0x1 /usr/local/popcorn/x86_64/lib/libc.a(qsort.o)
 .text.trinkle  0x000000000041935f      0x235 0x1 /usr/local/popcorn/x86_64/lib/libc.a(qsort.o)
 .text.cycle    0x0000000000419594       0x90 0x1 /usr/local/popcorn/x86_64/lib/libc.a(qsort.o)
 .text          0x0000000000419624        0x0 0x4 /usr/local/popcorn/x86_64/lib/libc.a(strtol.o)
 .text.strtoull
                0x0000000000419624        0xc 0x1 /usr/local/popcorn/x86_64/lib/libc.a(strtol.o)
                0x0000000000419624                __strtoull_internal
                0x0000000000419624                strtoull
 .text.strtox   0x0000000000419630       0xac 0x1 /usr/local/popcorn/x86_64/lib/libc.a(strtol.o)
 .text.strtoll  0x00000000004196dc        0xf 0x1 /usr/local/popcorn/x86_64/lib/libc.a(strtol.o)
                0x00000000004196dc                __strtoll_internal
                0x00000000004196dc                strtoll
 .text.strtoul  0x00000000004196eb        0xc 0x1 /usr/local/popcorn/x86_64/lib/libc.a(strtol.o)
                0x00000000004196eb                __strtoul_internal
                0x00000000004196eb                strtoul
 .text.strtol   0x00000000004196f7        0xf 0x1 /usr/local/popcorn/x86_64/lib/libc.a(strtol.o)
                0x00000000004196f7                __strtol_internal
                0x00000000004196f7                strtol
 .text.strtoimax
                0x0000000000419706        0xf 0x1 /usr/local/popcorn/x86_64/lib/libc.a(strtol.o)
                0x0000000000419706                __strtoimax_internal
                0x0000000000419706                strtoimax
 .text.strtoumax
                0x0000000000419715        0xc 0x1 /usr/local/popcorn/x86_64/lib/libc.a(strtol.o)
                0x0000000000419715                __strtoumax_internal
                0x0000000000419715                strtoumax
 ** fill        0x0000000000419721        0x3
 .text          0x0000000000419724        0x0 0x4 /usr/local/popcorn/x86_64/lib/libc.a(strchr.o)
 ** fill        0x0000000000419724        0xc
 .text.strchr   0x0000000000419730       0x18 0x10 /usr/local/popcorn/x86_64/lib/libc.a(strchr.o)
                0x0000000000419730                strchr
 .text          0x0000000000419748        0x0 0x4 /usr/local/popcorn/x86_64/lib/libc.a(strchrnul.o)
 ** fill        0x0000000000419748        0x8
 .text.__strchrnul
                0x0000000000419750       0xe8 0x10 /usr/local/popcorn/x86_64/lib/libc.a(strchrnul.o)
                0x0000000000419750                __strchrnul
                0x0000000000419750                strchrnul
 .text          0x0000000000419838        0x0 0x4 /usr/local/popcorn/x86_64/lib/libc.a(strcmp.o)
 ** fill        0x0000000000419838        0x8
 .text.strcmp   0x0000000000419840       0x46 0x10 /usr/local/popcorn/x86_64/lib/libc.a(strcmp.o)
                0x0000000000419840                strcmp
 ** fill        0x0000000000419886        0x2
 .text          0x0000000000419888        0x0 0x4 /usr/local/popcorn/x86_64/lib/libc.a(strncmp.o)
 ** fill        0x0000000000419888        0x8
 .text.strncmp  0x0000000000419890       0x42 0x10 /usr/local/popcorn/x86_64/lib/libc.a(strncmp.o)
                0x0000000000419890                strncmp
 ** fill        0x00000000004198d2        0x2
 .text          0x00000000004198d4        0x0 0x4 /usr/local/popcorn/x86_64/lib/libc.a(memmove.o)
 .text.memmove  0x00000000004198d4       0x25 0x1 /usr/local/popcorn/x86_64/lib/libc.a(memmove.o)
                0x00000000004198d4                memmove
 ** fill        0x00000000004198f9        0x3
 .text          0x00000000004198fc        0x0 0x4 /usr/local/popcorn/x86_64/lib/libc.a(pthread_attr_get.o)
 .text.pthread_attr_getdetachstate
                0x00000000004198fc        0x8 0x1 /usr/local/popcorn/x86_64/lib/libc.a(pthread_attr_get.o)
                0x00000000004198fc                pthread_attr_getdetachstate
 .text.pthread_attr_getguardsize
                0x0000000000419904        0xa 0x1 /usr/local/popcorn/x86_64/lib/libc.a(pthread_attr_get.o)
                0x0000000000419904                pthread_attr_getguardsize
 .text.pthread_attr_getinheritsched
                0x000000000041990e        0x8 0x1 /usr/local/popcorn/x86_64/lib/libc.a(pthread_attr_get.o)
                0x000000000041990e                pthread_attr_getinheritsched
 .text.pthread_attr_getschedparam
                0x0000000000419916        0x8 0x1 /usr/local/popcorn/x86_64/lib/libc.a(pthread_attr_get.o)
                0x0000000000419916                pthread_attr_getschedparam
 .text.pthread_attr_getschedpolicy
                0x000000000041991e        0x8 0x1 /usr/local/popcorn/x86_64/lib/libc.a(pthread_attr_get.o)
                0x000000000041991e                pthread_attr_getschedpolicy
 .text.pthread_attr_getscope
                0x0000000000419926        0x9 0x1 /usr/local/popcorn/x86_64/lib/libc.a(pthread_attr_get.o)
                0x0000000000419926                pthread_attr_getscope
 .text.pthread_attr_getstack
                0x000000000041992f       0x1d 0x1 /usr/local/popcorn/x86_64/lib/libc.a(pthread_attr_get.o)
                0x000000000041992f                pthread_attr_getstack
 .text.pthread_attr_getstacksize
                0x000000000041994c        0x9 0x1 /usr/local/popcorn/x86_64/lib/libc.a(pthread_attr_get.o)
                0x000000000041994c                pthread_attr_getstacksize
 .text.pthread_barrierattr_getpshared
                0x0000000000419955        0xe 0x1 /usr/local/popcorn/x86_64/lib/libc.a(pthread_attr_get.o)
                0x0000000000419955                pthread_barrierattr_getpshared
 .text.pthread_condattr_getclock
                0x0000000000419963        0xc 0x1 /usr/local/popcorn/x86_64/lib/libc.a(pthread_attr_get.o)
                0x0000000000419963                pthread_condattr_getclock
 .text.pthread_condattr_getpshared
                0x000000000041996f        0xa 0x1 /usr/local/popcorn/x86_64/lib/libc.a(pthread_attr_get.o)
                0x000000000041996f                pthread_condattr_getpshared
 .text.pthread_mutexattr_getprotocol
                0x0000000000419979        0x9 0x1 /usr/local/popcorn/x86_64/lib/libc.a(pthread_attr_get.o)
                0x0000000000419979                pthread_mutexattr_getprotocol
 .text.pthread_mutexattr_getpshared
                0x0000000000419982        0xd 0x1 /usr/local/popcorn/x86_64/lib/libc.a(pthread_attr_get.o)
                0x0000000000419982                pthread_mutexattr_getpshared
 .text.pthread_mutexattr_getrobust
                0x000000000041998f        0xd 0x1 /usr/local/popcorn/x86_64/lib/libc.a(pthread_attr_get.o)
                0x000000000041998f                pthread_mutexattr_getrobust
 .text.pthread_mutexattr_gettype
                0x000000000041999c        0xa 0x1 /usr/local/popcorn/x86_64/lib/libc.a(pthread_attr_get.o)
                0x000000000041999c                pthread_mutexattr_gettype
 .text.pthread_rwlockattr_getpshared
                0x00000000004199a6        0x7 0x1 /usr/local/popcorn/x86_64/lib/libc.a(pthread_attr_get.o)
                0x00000000004199a6                pthread_rwlockattr_getpshared
 ** fill        0x00000000004199ad        0x3
 .text          0x00000000004199b0        0x0 0x4 /usr/local/popcorn/x86_64/lib/libc.a(pthread_getattr_np.o)
 .text.pthread_getattr_np
                0x00000000004199b0       0xe2 0x1 /usr/local/popcorn/x86_64/lib/libc.a(pthread_getattr_np.o)
                0x00000000004199b0                pthread_getattr_np
 ** fill        0x0000000000419a92        0x2
 .text          0x0000000000419a94        0x0 0x4 /usr/local/popcorn/x86_64/lib/libc.a(pthread_migrate.o)
 .text.pthread_set_migrate_args
                0x0000000000419a94       0x11 0x1 /usr/local/popcorn/x86_64/lib/libc.a(pthread_migrate.o)
                0x0000000000419a94                pthread_set_migrate_args
 .text.pthread_get_migrate_args
                0x0000000000419aa5       0x11 0x1 /usr/local/popcorn/x86_64/lib/libc.a(pthread_migrate.o)
                0x0000000000419aa5                pthread_get_migrate_args
 ** fill        0x0000000000419ab6        0x2
 .text          0x0000000000419ab8        0x0 0x4 /usr/local/popcorn/x86_64/lib/libc.a(pthread_self.o)
 .text.__pthread_self_internal
                0x0000000000419ab8        0xa 0x1 /usr/local/popcorn/x86_64/lib/libc.a(pthread_self.o)
                0x0000000000419ab8                pthread_self
                0x0000000000419ab8                thrd_current
 ** fill        0x0000000000419ac2        0x2
 .text          0x0000000000419ac4        0x0 0x4 /usr/local/popcorn/x86_64/lib/libc.a(close.o)
 .text.dummy    0x0000000000419ac4        0x3 0x1 /usr/local/popcorn/x86_64/lib/libc.a(close.o)
 .text.close    0x0000000000419ac7       0x3f 0x1 /usr/local/popcorn/x86_64/lib/libc.a(close.o)
                0x0000000000419ac7                close
 ** fill        0x0000000000419b06        0x2
 .text          0x0000000000419b08        0x0 0x4 /usr/local/popcorn/x86_64/lib/libc.a(lseek.o)
 .text.lseek    0x0000000000419b08       0x15 0x1 /usr/local/popcorn/x86_64/lib/libc.a(lseek.o)
                0x0000000000419b08                lseek
                0x0000000000419b08                lseek64
 ** fill        0x0000000000419b1d        0x3
 .text          0x0000000000419b20        0x0 0x4 /usr/local/popcorn/x86_64/lib/libc.a(read.o)
 .text.read     0x0000000000419b20       0x2e 0x1 /usr/local/popcorn/x86_64/lib/libc.a(read.o)
                0x0000000000419b20                read
 ** fill        0x0000000000419b4e        0x2
 .text          0x0000000000419b50        0x0 0x4 /usr/local/popcorn/x86_64/lib/libc.a(abort.o)
 .text.abort    0x0000000000419b50       0x27 0x1 /usr/local/popcorn/x86_64/lib/libc.a(abort.o)
                0x0000000000419b50                abort
 ** fill        0x0000000000419b77        0x1
 .text          0x0000000000419b78        0x0 0x4 /usr/local/popcorn/x86_64/lib/libc.a(floatscan.o)
 ** fill        0x0000000000419b78        0x8
 .text.__floatscan
                0x0000000000419b80     0x171c 0x10 /usr/local/popcorn/x86_64/lib/libc.a(floatscan.o)
                0x0000000000419b80                __floatscan
 ** fill        0x000000000041b29c        0x4
 .text.scanexp  0x000000000041b2a0      0x1c6 0x10 /usr/local/popcorn/x86_64/lib/libc.a(floatscan.o)
 ** fill        0x000000000041b466        0x2
 .text          0x000000000041b468        0x0 0x4 /usr/local/popcorn/x86_64/lib/libc.a(intscan.o)
 ** fill        0x000000000041b468        0x8
 .text.__intscan
                0x000000000041b470      0x5ce 0x10 /usr/local/popcorn/x86_64/lib/libc.a(intscan.o)
                0x000000000041b470                __intscan
 ** fill        0x000000000041ba3e        0x2
 .text          0x000000000041ba40        0x0 0x4 /usr/local/popcorn/x86_64/lib/libc.a(shgetc.o)
 .text.__shlim  0x000000000041ba40       0x39 0x10 /usr/local/popcorn/x86_64/lib/libc.a(shgetc.o)
                0x000000000041ba40                __shlim
 ** fill        0x000000000041ba79        0x7
 .text.__shgetc
                0x000000000041ba80       0xa3 0x10 /usr/local/popcorn/x86_64/lib/libc.a(shgetc.o)
                0x000000000041ba80                __shgetc
 ** fill        0x000000000041bb23        0x1
 .text          0x000000000041bb24        0x0 0x4 /usr/local/popcorn/x86_64/lib/libc.a(expand_heap.o)
 ** fill        0x000000000041bb24        0xc
 .text.__expand_heap
                0x000000000041bb30      0x14a 0x10 /usr/local/popcorn/x86_64/lib/libc.a(expand_heap.o)
                0x000000000041bb30                __expand_heap
 ** fill        0x000000000041bc7a        0x6
 .text.__expand_heap_node
                0x000000000041bc80      0x1e9 0x10 /usr/local/popcorn/x86_64/lib/libc.a(expand_heap.o)
                0x000000000041bc80                __expand_heap_node
 ** fill        0x000000000041be69        0x7
 .text.popcorn_get_arena
                0x000000000041be70       0xf5 0x10 /usr/local/popcorn/x86_64/lib/libc.a(expand_heap.o)
                0x000000000041be70                popcorn_get_arena
 ** fill        0x000000000041bf65        0x3
 .text          0x000000000041bf68        0x0 0x4 /usr/local/popcorn/x86_64/lib/libc.a(copysignl.o)
 .text.copysignl
                0x000000000041bf68       0x2c 0x1 /usr/local/popcorn/x86_64/lib/libc.a(copysignl.o)
                0x000000000041bf68                copysignl
 .text          0x000000000041bf94        0x0 0x4 /usr/local/popcorn/x86_64/lib/libc.a(scalbn.o)
 .text.scalbn   0x000000000041bf94       0x8e 0x1 /usr/local/popcorn/x86_64/lib/libc.a(scalbn.o)
                0x000000000041bf94                scalbn
 ** fill        0x000000000041c022        0x2
 .text          0x000000000041c024        0x0 0x4 /usr/local/popcorn/x86_64/lib/libc.a(scalbnl.o)
 .text.scalbnl  0x000000000041c024       0x93 0x1 /usr/local/popcorn/x86_64/lib/libc.a(scalbnl.o)
                0x000000000041c024                scalbnl
 ** fill        0x000000000041c0b7        0x1
 .text          0x000000000041c0b8        0x0 0x4 /usr/local/popcorn/x86_64/lib/libc.a(fabs.o)
 .text.fabs     0x000000000041c0b8       0x12 0x1 /usr/local/popcorn/x86_64/lib/libc.a(fabs.o)
                0x000000000041c0b8                fabs
 ** fill        0x000000000041c0ca        0x2
 .text          0x000000000041c0cc        0x0 0x4 /usr/local/popcorn/x86_64/lib/libc.a(fmodl.o)
 .text.fmodl    0x000000000041c0cc       0x14 0x1 /usr/local/popcorn/x86_64/lib/libc.a(fmodl.o)
                0x000000000041c0cc                fmodl
 .text          0x000000000041c0e0        0x0 0x4 /usr/local/popcorn/x86_64/lib/libc.a(mbrtowc.o)
 .text.mbrtowc  0x000000000041c0e0      0x134 0x1 /usr/local/popcorn/x86_64/lib/libc.a(mbrtowc.o)
                0x000000000041c0e0                mbrtowc
 .text          0x000000000041c214        0x0 0x4 /usr/local/popcorn/x86_64/lib/libc.a(mbsinit.o)
 .text.mbsinit  0x000000000041c214       0x11 0x1 /usr/local/popcorn/x86_64/lib/libc.a(mbsinit.o)
                0x000000000041c214                mbsinit
 ** fill        0x000000000041c225        0x3
 .text          0x000000000041c228        0x0 0x4 /usr/local/popcorn/x86_64/lib/libc.a(raise.o)
 .text.raise    0x000000000041c228       0x4d 0x1 /usr/local/popcorn/x86_64/lib/libc.a(raise.o)
                0x000000000041c228                raise
 ** fill        0x000000000041c275        0x3
 .text          0x000000000041c278        0x0 0x4 /usr/local/popcorn/x86_64/lib/libc.a(__fdopen.o)
 .text.__fdopen
                0x000000000041c278      0x182 0x1 /usr/local/popcorn/x86_64/lib/libc.a(__fdopen.o)
                0x000000000041c278                __fdopen
                0x000000000041c278                fdopen
 ** fill        0x000000000041c3fa        0x2
 .text          0x000000000041c3fc        0x0 0x4 /usr/local/popcorn/x86_64/lib/libc.a(__fmodeflags.o)
 .text.__fmodeflags
                0x000000000041c3fc       0x8d 0x1 /usr/local/popcorn/x86_64/lib/libc.a(__fmodeflags.o)
                0x000000000041c3fc                __fmodeflags
 ** fill        0x000000000041c489        0x3
 .text          0x000000000041c48c        0x0 0x4 /usr/local/popcorn/x86_64/lib/libc.a(__stdio_read.o)
 .text.__stdio_read
                0x000000000041c48c       0xb1 0x1 /usr/local/popcorn/x86_64/lib/libc.a(__stdio_read.o)
                0x000000000041c48c                __stdio_read
 ** fill        0x000000000041c53d        0x3
 .text          0x000000000041c540        0x0 0x4 /usr/local/popcorn/x86_64/lib/libc.a(__string_read.o)
 .text.__string_read
                0x000000000041c540       0x79 0x1 /usr/local/popcorn/x86_64/lib/libc.a(__string_read.o)
                0x000000000041c540                __string_read
 ** fill        0x000000000041c5b9        0x3
 .text          0x000000000041c5bc        0x0 0x4 /usr/local/popcorn/x86_64/lib/libc.a(__uflow.o)
 .text.__uflow  0x000000000041c5bc       0x38 0x1 /usr/local/popcorn/x86_64/lib/libc.a(__uflow.o)
                0x000000000041c5bc                __uflow
 .text          0x000000000041c5f4        0x0 0x4 /usr/local/popcorn/x86_64/lib/libc.a(getdelim.o)
 .text.getdelim
                0x000000000041c5f4      0x25d 0x1 /usr/local/popcorn/x86_64/lib/libc.a(getdelim.o)
                0x000000000041c5f4                __getdelim
                0x000000000041c5f4                getdelim
 ** fill        0x000000000041c851        0x3
 .text          0x000000000041c854        0x0 0x4 /usr/local/popcorn/x86_64/lib/libc.a(ofl_add.o)
 .text.__ofl_add
                0x000000000041c854       0x29 0x1 /usr/local/popcorn/x86_64/lib/libc.a(ofl_add.o)
                0x000000000041c854                __ofl_add
 ** fill        0x000000000041c87d        0x3
 .text          0x000000000041c880        0x0 0x4 /usr/local/popcorn/x86_64/lib/libc.a(internal.o)
 .text          0x000000000041c880        0x0 0x4 /usr/local/popcorn/x86_64/lib/libc.a(__toread.o)
 .text.__toread
                0x000000000041c880       0x6f 0x1 /usr/local/popcorn/x86_64/lib/libc.a(__toread.o)
                0x000000000041c880                __toread
 .text.__toread_needs_stdio_exit
                0x000000000041c8ef        0x5 0x1 /usr/local/popcorn/x86_64/lib/libc.a(__toread.o)
                0x000000000041c8ef                __toread_needs_stdio_exit

.rodata         0x000000000041c900     0x374c
 .rodata.popcorn_migratemep__str___d__d__it
                0x000000000041c900       0x22 0x1 popcorn-migratemep_x86_64.o
                0x000000000041c900                popcorn_migratemep__str___d__d__it
 .rodata.popcorn_migratemep__str_1_pthread_cr
                0x000000000041c922        0xf 0x1 popcorn-migratemep_x86_64.o
                0x000000000041c922                popcorn_migratemep__str_1_pthread_cr
 .rodata.popcorn_migratemep__str_2_main__node
                0x000000000041c931       0x12 0x1 popcorn-migratemep_x86_64.o
                0x000000000041c931                popcorn_migratemep__str_2_main__node
 .rodata.popcorn_migratemep__str_3_pthread_jo
                0x000000000041c943        0xd 0x1 popcorn-migratemep_x86_64.o
                0x000000000041c943                popcorn_migratemep__str_3_pthread_jo
 .rodata.src_env___libc_start_main__str_
                0x000000000041c950        0x1 0x1 /usr/local/popcorn/x86_64/lib/libc.a(__libc_start_main.o)
                0x000000000041c950                src_env___libc_start_main__str_
 .rodata.src_env___libc_start_main___init_libc_pfd_
                0x000000000041c960       0x18 0x10 /usr/local/popcorn/x86_64/lib/libc.a(__libc_start_main.o)
                0x000000000041c960                src_env___libc_start_main___init_libc_pfd_
 .rodata.src_env___libc_start_main__str_1__dev_null_
                0x000000000041c978        0xa 0x1 /usr/local/popcorn/x86_64/lib/libc.a(__libc_start_main.o)
                0x000000000041c978                src_env___libc_start_main__str_1__dev_null_
 .rodata.stderr
                0x000000000041c988        0x8 0x8 /usr/local/popcorn/x86_64/lib/libc.a(stderr.o)
                0x000000000041c988                stderr
 .rodata.stdout
                0x000000000041c990        0x8 0x8 /usr/local/popcorn/x86_64/lib/libc.a(stdout.o)
                0x000000000041c990                stdout
 ** merge constants
                0x000000000041c998       0x2c
 ** merge constants
                0x000000000041c9d0       0xc0
 .rodata.printf_core
                0x000000000041ca90      0x170 0x8 /usr/local/popcorn/x86_64/lib/libc.a(vfprintf.o)
 .rodata.pop_arg
                0x000000000041cc00       0x90 0x8 /usr/local/popcorn/x86_64/lib/libc.a(vfprintf.o)
 .rodata.src_stdio_vfprintf_c_states
                0x000000000041cc90      0x1d0 0x10 /usr/local/popcorn/x86_64/lib/libc.a(vfprintf.o)
 .rodata.src_stdio_vfprintf__str______0X0x_
                0x000000000041ce60        0xa 0x1 /usr/local/popcorn/x86_64/lib/libc.a(vfprintf.o)
                0x000000000041ce60                src_stdio_vfprintf__str______0X0x_
 .rodata.src_stdio_vfprintf__str_1__null__
                0x000000000041ce6a        0x7 0x1 /usr/local/popcorn/x86_64/lib/libc.a(vfprintf.o)
                0x000000000041ce6a                src_stdio_vfprintf__str_1__null__
 .rodata.src_stdio_vfprintf_c_xdigits
                0x000000000041ce80       0x10 0x10 /usr/local/popcorn/x86_64/lib/libc.a(vfprintf.o)
 .rodata.src_stdio_vfprintf__str_2__0X_0X_0X_
                0x000000000041ce90       0x13 0x1 /usr/local/popcorn/x86_64/lib/libc.a(vfprintf.o)
                0x000000000041ce90                src_stdio_vfprintf__str_2__0X_0X_0X_
 .rodata.src_stdio_vfprintf__str_3_inf_
                0x000000000041cea3        0x4 0x1 /usr/local/popcorn/x86_64/lib/libc.a(vfprintf.o)
                0x000000000041cea3                src_stdio_vfprintf__str_3_inf_
 .rodata.src_stdio_vfprintf__str_4_INF_
                0x000000000041cea7        0x4 0x1 /usr/local/popcorn/x86_64/lib/libc.a(vfprintf.o)
                0x000000000041cea7                src_stdio_vfprintf__str_4_INF_
 .rodata.src_stdio_vfprintf__str_5_nan_
                0x000000000041ceab        0x4 0x1 /usr/local/popcorn/x86_64/lib/libc.a(vfprintf.o)
                0x000000000041ceab                src_stdio_vfprintf__str_5_nan_
 .rodata.src_stdio_vfprintf__str_6_NAN_
                0x000000000041ceaf        0x4 0x1 /usr/local/popcorn/x86_64/lib/libc.a(vfprintf.o)
                0x000000000041ceaf                src_stdio_vfprintf__str_6_NAN_
 .rodata.src_stdio_vfprintf__str_7___
                0x000000000041ceb3        0x2 0x1 /usr/local/popcorn/x86_64/lib/libc.a(vfprintf.o)
                0x000000000041ceb3                src_stdio_vfprintf__str_7___
 .rodata.src_errno_strerror_c_errid
                0x000000000041cec0       0x58 0x10 /usr/local/popcorn/x86_64/lib/libc.a(strerror.o)
 .rodata.src_errno_strerror_c_errmsg
                0x000000000041cf20      0x70c 0x10 /usr/local/popcorn/x86_64/lib/libc.a(strerror.o)
 .rodata.src_signal_block_c_all_mask
                0x000000000041d630        0x8 0x8 /usr/local/popcorn/x86_64/lib/libc.a(block.o)
 .rodata.src_signal_block_c_app_mask
                0x000000000041d638        0x8 0x8 /usr/local/popcorn/x86_64/lib/libc.a(block.o)
 .rodata.src_migrate__str_Destinatio
                0x000000000041d640       0x24 0x1 /usr/local/popcorn/x86_64/lib/libmigrate.a(migrate.o)
                0x000000000041d640                src_migrate__str_Destinatio
 .rodata.src_migrate__str_1_0_____Unsu
                0x000000000041d664       0x21 0x1 /usr/local/popcorn/x86_64/lib/libmigrate.a(migrate.o)
                0x000000000041d664                src_migrate__str_1_0_____Unsu
 .rodata.src_migrate__str_2_src_migrat
                0x000000000041d685        0xe 0x1 /usr/local/popcorn/x86_64/lib/libmigrate.a(migrate.o)
                0x000000000041d685                src_migrate__str_2_src_migrat
 .rodata.src_migrate___func_____migrate_shim_internal___migrate_
                0x000000000041d693       0x18 0x1 /usr/local/popcorn/x86_64/lib/libmigrate.a(migrate.o)
                0x000000000041d693                src_migrate___func_____migrate_shim_internal___migrate_
 .rodata.src_migrate__str_3_Could_not_
                0x000000000041d6ab       0x1a 0x1 /usr/local/popcorn/x86_64/lib/libmigrate.a(migrate.o)
                0x000000000041d6ab                src_migrate__str_3_Could_not_
 .rodata.src_migrate__str_4_Could_not_
                0x000000000041d6c5       0x1a 0x1 /usr/local/popcorn/x86_64/lib/libmigrate.a(migrate.o)
                0x000000000041d6c5                src_migrate__str_4_Could_not_
 .rodata.src_migrate___func___get_thread_pointer_get_thread
                0x000000000041d6df       0x13 0x1 /usr/local/popcorn/x86_64/lib/libmigrate.a(migrate.o)
                0x000000000041d6df                src_migrate___func___get_thread_pointer_get_thread
 .rodata.src_trigger__str_Could_not_
                0x000000000041d6f2       0x34 0x1 /usr/local/popcorn/x86_64/lib/libmigrate.a(trigger.o)
                0x000000000041d6f2                src_trigger__str_Could_not_
 .rodata.src_trigger__str_1_Could_not_
                0x000000000041d726       0x3b 0x1 /usr/local/popcorn/x86_64/lib/libmigrate.a(trigger.o)
                0x000000000041d726                src_trigger__str_1_Could_not_
 .rodata.src_mapping__str_POPCORN_TH
                0x000000000041d761       0x18 0x1 /usr/local/popcorn/x86_64/lib/libmigrate.a(mapping.o)
                0x000000000041d761                src_mapping__str_POPCORN_TH
 .rodata.src_mapping__str_1_thread_sch
                0x000000000041d779       0x14 0x1 /usr/local/popcorn/x86_64/lib/libmigrate.a(mapping.o)
                0x000000000041d779                src_mapping__str_1_thread_sch
 .rodata.src_mapping__str_2_r_
                0x000000000041d78d        0x2 0x1 /usr/local/popcorn/x86_64/lib/libmigrate.a(mapping.o)
                0x000000000041d78d                src_mapping__str_2_r_
 .rodata.src_mapping__str_3__lu__lu_
                0x000000000041d78f        0x8 0x1 /usr/local/popcorn/x86_64/lib/libmigrate.a(mapping.o)
                0x000000000041d78f                src_mapping__str_3__lu__lu_
 .rodata.src_mapping__str_4__d_
                0x000000000041d797        0x3 0x1 /usr/local/popcorn/x86_64/lib/libmigrate.a(mapping.o)
                0x000000000041d797                src_mapping__str_4__d_
 .rodata.src_userspace__str_ST_AARCH64
                0x000000000041d79a        0xf 0x1 /usr/local/popcorn/x86_64/lib/libstack-transform.a(userspace.o)
                0x000000000041d79a                src_userspace__str_ST_AARCH64
 .rodata.src_userspace__str_1__s_aarch64
                0x000000000041d7a9        0xb 0x1 /usr/local/popcorn/x86_64/lib/libstack-transform.a(userspace.o)
                0x000000000041d7a9                src_userspace__str_1__s_aarch64
 .rodata.src_userspace__str_2_ST_POWERPC
                0x000000000041d7b4       0x11 0x1 /usr/local/popcorn/x86_64/lib/libstack-transform.a(userspace.o)
                0x000000000041d7b4                src_userspace__str_2_ST_POWERPC
 .rodata.src_userspace__str_3__s_powerpc
                0x000000000041d7c5        0xd 0x1 /usr/local/popcorn/x86_64/lib/libstack-transform.a(userspace.o)
                0x000000000041d7c5                src_userspace__str_3__s_powerpc
 .rodata.src_userspace__str_4_ST_X86_64_
                0x000000000041d7d2        0xe 0x1 /usr/local/popcorn/x86_64/lib/libstack-transform.a(userspace.o)
                0x000000000041d7d2                src_userspace__str_4_ST_X86_64_
 .rodata.src_userspace__str_5__s_x86_64_
                0x000000000041d7e0        0xa 0x1 /usr/local/popcorn/x86_64/lib/libstack-transform.a(userspace.o)
                0x000000000041d7e0                src_userspace__str_5__s_x86_64_
 .rodata.src_userspace__str_6__proc__d_m
                0x000000000041d7ea        0xe 0x1 /usr/local/popcorn/x86_64/lib/libstack-transform.a(userspace.o)
                0x000000000041d7ea                src_userspace__str_6__proc__d_m
 .rodata.src_userspace__str_7_r_
                0x000000000041d7f8        0x2 0x1 /usr/local/popcorn/x86_64/lib/libstack-transform.a(userspace.o)
                0x000000000041d7f8                src_userspace__str_7_r_
 .rodata.src_userspace__str_8__lx__lx__s
                0x000000000041d7fa       0x19 0x1 /usr/local/popcorn/x86_64/lib/libstack-transform.a(userspace.o)
                0x000000000041d7fa                src_userspace__str_8__lx__lx(short)
 .rodata.src_userspace__str_9__stack__
                0x000000000041d813        0x8 0x1 /usr/local/popcorn/x86_64/lib/libstack-transform.a(userspace.o)
                0x000000000041d813                src_userspace__str_9__stack__
 .rodata.src_userspace_switch_table_10_
                0x000000000041d820       0x18 0x10 /usr/local/popcorn/x86_64/lib/libstack-transform.a(userspace.o)
                0x000000000041d820                src_userspace_switch_table_10_
 .rodata.src_init__str__stack_tra
                0x000000000041d838       0x1f 0x1 /usr/local/popcorn/x86_64/lib/libstack-transform.a(init.o)
                0x000000000041d838                src_init__str__stack_tra
 .rodata.src_init__str_1__stack_tra
                0x000000000041d857       0x18 0x1 /usr/local/popcorn/x86_64/lib/libstack-transform.a(init.o)
                0x000000000041d857                src_init__str_1__stack_tra
 .rodata.src_init__str_2__stack_tra
                0x000000000041d86f       0x14 0x1 /usr/local/popcorn/x86_64/lib/libstack-transform.a(init.o)
                0x000000000041d86f                src_init__str_2__stack_tra
 .rodata.src_init__str_3__stack_tra
                0x000000000041d883       0x16 0x1 /usr/local/popcorn/x86_64/lib/libstack-transform.a(init.o)
                0x000000000041d883                src_init__str_3__stack_tra
 .rodata.src_init__str_4__stack_tra
                0x000000000041d899       0x16 0x1 /usr/local/popcorn/x86_64/lib/libstack-transform.a(init.o)
                0x000000000041d899                src_init__str_4__stack_tra
 .rodata.src_init__str_5__stack_tra
                0x000000000041d8af       0x1c 0x1 /usr/local/popcorn/x86_64/lib/libstack-transform.a(init.o)
                0x000000000041d8af                src_init__str_5__stack_tra
 .rodata.src_rewrite__str__src_rewri
                0x000000000041d8cb       0x42 0x1 /usr/local/popcorn/x86_64/lib/libstack-transform.a(rewrite.o)
                0x000000000041d8cb                src_rewrite__str__src_rewri
 .rodata.src_rewrite__str_1__src_rewri
                0x000000000041d90d       0x68 0x1 /usr/local/popcorn/x86_64/lib/libstack-transform.a(rewrite.o)
                0x000000000041d90d                src_rewrite__str_1__src_rewri
 .rodata.src_rewrite__str_2__src_rewri
                0x000000000041d975       0x54 0x1 /usr/local/popcorn/x86_64/lib/libstack-transform.a(rewrite.o)
                0x000000000041d975                src_rewrite__str_2__src_rewri
 .rodata.src_rewrite__str_3__src_rewri
                0x000000000041d9c9       0x61 0x1 /usr/local/popcorn/x86_64/lib/libstack-transform.a(rewrite.o)
                0x000000000041d9c9                src_rewrite__str_3__src_rewri
 .rodata.src_util__str_aarch64_
                0x000000000041da2a        0x8 0x1 /usr/local/popcorn/x86_64/lib/libstack-transform.a(util.o)
                0x000000000041da2a                src_util__str_aarch64_
 .rodata.src_util__str_1_powerpc64_
                0x000000000041da32        0xa 0x1 /usr/local/popcorn/x86_64/lib/libstack-transform.a(util.o)
                0x000000000041da32                src_util__str_1_powerpc64_
 .rodata.src_util__str_2_x86_64_
                0x000000000041da3c        0x7 0x1 /usr/local/popcorn/x86_64/lib/libstack-transform.a(util.o)
                0x000000000041da3c                src_util__str_2_x86_64_
 .rodata.src_util__str_3_unknown_un
                0x000000000041da43       0x21 0x1 /usr/local/popcorn/x86_64/lib/libstack-transform.a(util.o)
                0x000000000041da43                src_util__str_3_unknown_un
 .rodata.src_arch_aarch64_properties_c_callee_saved_aarch64
                0x000000000041da70       0x28 0x10 /usr/local/popcorn/x86_64/lib/libstack-transform.a(properties.o)
 .rodata.src_arch_aarch64_properties_c_callee_saved_size_aarch64
                0x000000000041daa0       0x28 0x10 /usr/local/popcorn/x86_64/lib/libstack-transform.a(properties.o)
 .rodata.properties_aarch64
                0x000000000041dac8       0x38 0x8 /usr/local/popcorn/x86_64/lib/libstack-transform.a(properties.o)
                0x000000000041dac8                properties_aarch64
 .rodata.src_arch_aarch64_properties__str__src_arch_
                0x000000000041db00       0x51 0x1 /usr/local/popcorn/x86_64/lib/libstack-transform.a(properties.o)
                0x000000000041db00                src_arch_aarch64_properties__str__src_arch_
 .rodata.reg_aarch64
                0x000000000041db58      0x300 0x8 /usr/local/popcorn/x86_64/lib/libstack-transform.a(regs.o)
 .rodata.regs_aarch64
                0x000000000041de58       0xa8 0x8 /usr/local/popcorn/x86_64/lib/libstack-transform.a(regs.o)
                0x000000000041de58                regs_aarch64
 .rodata.src_arch_aarch64_regs__str__src_arch_
                0x000000000041df00       0x4c 0x1 /usr/local/popcorn/x86_64/lib/libstack-transform.a(regs.o)
                0x000000000041df00                src_arch_aarch64_regs__str__src_arch_
 .rodata.src_arch_aarch64_regs__str_1__src_arch_
                0x000000000041df4c       0x4c 0x1 /usr/local/popcorn/x86_64/lib/libstack-transform.a(regs.o)
                0x000000000041df4c                src_arch_aarch64_regs__str_1__src_arch_
 .rodata.is_callee_saved_powerpc64
                0x000000000041df98      0x208 0x8 /usr/local/popcorn/x86_64/lib/libstack-transform.a(properties.o)
 .rodata.callee_reg_size_powerpc64
                0x000000000041e1a0      0x210 0x8 /usr/local/popcorn/x86_64/lib/libstack-transform.a(properties.o)
 .rodata.src_arch_powerpc64_properties_c_callee_saved_powerpc64
                0x000000000041e3b0       0x4e 0x10 /usr/local/popcorn/x86_64/lib/libstack-transform.a(properties.o)
 .rodata.src_arch_powerpc64_properties_c_callee_saved_size_powerpc64
                0x000000000041e400       0x4c 0x10 /usr/local/popcorn/x86_64/lib/libstack-transform.a(properties.o)
 .rodata.properties_powerpc64
                0x000000000041e450       0x38 0x8 /usr/local/popcorn/x86_64/lib/libstack-transform.a(properties.o)
                0x000000000041e450                properties_powerpc64
 .rodata.src_arch_powerpc64_properties__str__src_arch_
                0x000000000041e488       0x56 0x1 /usr/local/popcorn/x86_64/lib/libstack-transform.a(properties.o)
                0x000000000041e488                src_arch_powerpc64_properties__str__src_arch_
 .rodata.reg_powerpc64
                0x000000000041e4e0      0x218 0x8 /usr/local/popcorn/x86_64/lib/libstack-transform.a(regs.o)
 .rodata.regs_powerpc64
                0x000000000041e6f8       0xa8 0x8 /usr/local/popcorn/x86_64/lib/libstack-transform.a(regs.o)
                0x000000000041e6f8                regs_powerpc64
 .rodata.src_arch_powerpc64_regs__str__src_arch_
                0x000000000041e7a0       0x50 0x1 /usr/local/popcorn/x86_64/lib/libstack-transform.a(regs.o)
                0x000000000041e7a0                src_arch_powerpc64_regs__str__src_arch_
 .rodata.src_arch_powerpc64_regs__str_1__src_arch_
                0x000000000041e7f0       0x50 0x1 /usr/local/popcorn/x86_64/lib/libstack-transform.a(regs.o)
                0x000000000041e7f0                src_arch_powerpc64_regs__str_1__src_arch_
 .rodata.src_arch_x86_64_properties_c_callee_saved_x86_64
                0x000000000041e840        0xe 0x2 /usr/local/popcorn/x86_64/lib/libstack-transform.a(properties.o)
 .rodata.src_arch_x86_64_properties_c_callee_saved_size_x86_64
                0x000000000041e84e        0xe 0x2 /usr/local/popcorn/x86_64/lib/libstack-transform.a(properties.o)
 .rodata.properties_x86_64
                0x000000000041e860       0x38 0x8 /usr/local/popcorn/x86_64/lib/libstack-transform.a(properties.o)
                0x000000000041e860                properties_x86_64
 .rodata.src_arch_x86_64_properties__str__src_arch_
                0x000000000041e898       0x4f 0x1 /usr/local/popcorn/x86_64/lib/libstack-transform.a(properties.o)
                0x000000000041e898                src_arch_x86_64_properties__str__src_arch_
 .rodata.reg_x86_64
                0x000000000041e8e8      0x108 0x8 /usr/local/popcorn/x86_64/lib/libstack-transform.a(regs.o)
 .rodata.regs_x86_64
                0x000000000041e9f0       0xa8 0x8 /usr/local/popcorn/x86_64/lib/libstack-transform.a(regs.o)
                0x000000000041e9f0                regs_x86_64
 .rodata.src_arch_x86_64_regs__str__src_arch_
                0x000000000041ea98       0x4b 0x1 /usr/local/popcorn/x86_64/lib/libstack-transform.a(regs.o)
                0x000000000041ea98                src_arch_x86_64_regs__str__src_arch_
 .rodata.src_arch_x86_64_regs__str_1__src_arch_
                0x000000000041eae3       0x4b 0x1 /usr/local/popcorn/x86_64/lib/libstack-transform.a(regs.o)
                0x000000000041eae3                src_arch_x86_64_regs__str_1__src_arch_
 .rodata.src_arch_x86_64_regs__str_2__src_arch_
                0x000000000041eb2e       0x4a 0x1 /usr/local/popcorn/x86_64/lib/libstack-transform.a(regs.o)
                0x000000000041eb2e                src_arch_x86_64_regs__str_2__src_arch_
 .rodata.src_arch_x86_64_regs__str_3__src_arch_
                0x000000000041eb78       0x4a 0x1 /usr/local/popcorn/x86_64/lib/libstack-transform.a(regs.o)
                0x000000000041eb78                src_arch_x86_64_regs__str_3__src_arch_
 .rodata.src_arch_x86_64_regs_switch_table_
                0x000000000041ebd0       0x42 0x10 /usr/local/popcorn/x86_64/lib/libstack-transform.a(regs.o)
                0x000000000041ebd0                src_arch_x86_64_regs_switch_table_
 .rodata.put_val_arch
                0x000000000041ec18       0xb0 0x8 /usr/local/popcorn/x86_64/lib/libstack-transform.a(data.o)
 .rodata.points_to_stack
                0x000000000041ecc8       0x28 0x8 /usr/local/popcorn/x86_64/lib/libstack-transform.a(data.o)
 .rodata.src_data__str__src_data_
                0x000000000041ecf0       0x50 0x1 /usr/local/popcorn/x86_64/lib/libstack-transform.a(data.o)
                0x000000000041ecf0                src_data__str__src_data_
 .rodata.src_data__str_1__src_data_
                0x000000000041ed40       0x3d 0x1 /usr/local/popcorn/x86_64/lib/libstack-transform.a(data.o)
                0x000000000041ed40                src_data__str_1__src_data_
 .rodata.src_data__str_2__src_data_
                0x000000000041ed7d       0x30 0x1 /usr/local/popcorn/x86_64/lib/libstack-transform.a(data.o)
                0x000000000041ed7d                src_data__str_2__src_data_
 .rodata.src_data__str_3__src_data_
                0x000000000041edad       0x49 0x1 /usr/local/popcorn/x86_64/lib/libstack-transform.a(data.o)
                0x000000000041edad                src_data__str_3__src_data_
 .rodata.src_data__str_4__src_data_
                0x000000000041edf6       0x3f 0x1 /usr/local/popcorn/x86_64/lib/libstack-transform.a(data.o)
                0x000000000041edf6                src_data__str_4__src_data_
 .rodata.src_data__str_5__src_data_
                0x000000000041ee35       0x3d 0x1 /usr/local/popcorn/x86_64/lib/libstack-transform.a(data.o)
                0x000000000041ee35                src_data__str_5__src_data_
 .rodata.src_data__str_6__src_data_
                0x000000000041ee72       0x3f 0x1 /usr/local/popcorn/x86_64/lib/libstack-transform.a(data.o)
                0x000000000041ee72                src_data__str_6__src_data_
 .rodata.src_data__str_7__src_data_
                0x000000000041eeb1       0x37 0x1 /usr/local/popcorn/x86_64/lib/libstack-transform.a(data.o)
                0x000000000041eeb1                src_data__str_7__src_data_
 .rodata.src_data__str_8__src_data_
                0x000000000041eee8       0x37 0x1 /usr/local/popcorn/x86_64/lib/libstack-transform.a(data.o)
                0x000000000041eee8                src_data__str_8__src_data_
 .rodata.src_data__str_9__src_data_
                0x000000000041ef1f       0x3f 0x1 /usr/local/popcorn/x86_64/lib/libstack-transform.a(data.o)
                0x000000000041ef1f                src_data__str_9__src_data_
 .rodata.src_data__str_10__src_data_
                0x000000000041ef5e       0x3f 0x1 /usr/local/popcorn/x86_64/lib/libstack-transform.a(data.o)
                0x000000000041ef5e                src_data__str_10__src_data_
 .rodata.elf_begin
                0x000000000041efa0       0x40 0x8 /usr/local/popcorn/x86_64/lib/libelf.a(begin.o)
 .rodata.begin_c__elf_init
                0x000000000041efe0       0xe0 0x8 /usr/local/popcorn/x86_64/lib/libelf.a(begin.o)
 .rodata.begin_c_fmag
                0x000000000041f0c0        0x3 0x1 /usr/local/popcorn/x86_64/lib/libelf.a(begin.o)
 .rodata.begin__str__ELF_
                0x000000000041f0c3        0x5 0x1 /usr/local/popcorn/x86_64/lib/libelf.a(begin.o)
                0x000000000041f0c3                begin__str__ELF_
 .rodata.begin__str_1___arch___
                0x000000000041f0c8        0x9 0x1 /usr/local/popcorn/x86_64/lib/libelf.a(begin.o)
                0x000000000041f0c8                begin__str_1___arch___
 .rodata.version__str_LIBELF_SAN
                0x000000000041f0d1       0x15 0x1 /usr/local/popcorn/x86_64/lib/libelf.a(version.o)
                0x000000000041f0d1                version__str_LIBELF_SAN
 .rodata.32_xlatetof_c_xlate32_11
                0x000000000041f0f0      0x220 0x10 /usr/local/popcorn/x86_64/lib/libelf.a(32.xlatetof.o)
 .rodata._elf_scn_type
                0x000000000041f310       0x88 0x8 /usr/local/popcorn/x86_64/lib/libelf.a(cook.o)
 .rodata._elf_cook
                0x000000000041f398      0x110 0x8 /usr/local/popcorn/x86_64/lib/libelf.a(cook.o)
 .rodata._elf_scn_init
                0x000000000041f4a8       0xa0 0x8 /usr/local/popcorn/x86_64/lib/libelf.a(cook.o)
                0x000000000041f4a8                _elf_scn_init
 .rodata._elf_data_init
                0x000000000041f548       0x58 0x8 /usr/local/popcorn/x86_64/lib/libelf.a(cook.o)
                0x000000000041f548                _elf_data_init
 .rodata.64_xlatetof_c_xlate64_11
                0x000000000041f5a0      0x220 0x10 /usr/local/popcorn/x86_64/lib/libelf.a(64.xlatetof.o)
 .rodata._elf_fmsize
                0x000000000041f7c0      0x220 0x10 /usr/local/popcorn/x86_64/lib/libelf.a(32.fsize.o)
                0x000000000041f7c0                _elf_fmsize
 .rodata.src_exit_assert__str_Assertion_
                0x000000000041f9e0       0x23 0x1 /usr/local/popcorn/x86_64/lib/libc.a(assert.o)
                0x000000000041f9e0                src_exit_assert__str_Assertion_
 .rodata.src_malloc_malloc_c_bin_tab
                0x000000000041fa10       0x3c 0x10 /usr/local/popcorn/x86_64/lib/libc.a(malloc.o)
 .rodata.src_malloc_popcorn_malloc_c_bin_tab
                0x000000000041fa50       0x3c 0x10 /usr/local/popcorn/x86_64/lib/libc.a(popcorn_malloc.o)
 .rodata.src_stdio_fopen__str_rwa_
                0x000000000041fa8c        0x4 0x1 /usr/local/popcorn/x86_64/lib/libc.a(fopen.o)
                0x000000000041fa8c                src_stdio_fopen__str_rwa_
 .rodata.vfscanf
                0x000000000041fa90      0x338 0x8 /usr/local/popcorn/x86_64/lib/libc.a(vfscanf.o)
 .rodata.src_stdlib_qsort_qsort_p_
                0x000000000041fdd0       0x10 0x10 /usr/local/popcorn/x86_64/lib/libc.a(qsort.o)
                0x000000000041fdd0                src_stdlib_qsort_qsort_p_
 ** merge constants
                0x000000000041fde0       0x38
 .rodata.src_internal_floatscan__str_infinity_
                0x000000000041fe18        0x9 0x1 /usr/local/popcorn/x86_64/lib/libc.a(floatscan.o)
                0x000000000041fe18                src_internal_floatscan__str_infinity_
 .rodata.src_internal_floatscan_c_decfloat_p10s
                0x000000000041fe30       0x20 0x10 /usr/local/popcorn/x86_64/lib/libc.a(floatscan.o)
 .rodata.src_internal_floatscan_switch_table_
                0x000000000041fe50        0xc 0x4 /usr/local/popcorn/x86_64/lib/libc.a(floatscan.o)
                0x000000000041fe50                src_internal_floatscan_switch_table_
 .rodata.src_internal_floatscan_switch_table_2_
                0x000000000041fe5c        0xc 0x4 /usr/local/popcorn/x86_64/lib/libc.a(floatscan.o)
                0x000000000041fe5c                src_internal_floatscan_switch_table_2_
 .rodata.src_internal_intscan_c_table
                0x000000000041fe70      0x101 0x10 /usr/local/popcorn/x86_64/lib/libc.a(intscan.o)
 .rodata.src_internal_intscan__str__________
                0x000000000041ff71        0x9 0x1 /usr/local/popcorn/x86_64/lib/libc.a(intscan.o)
                0x000000000041ff71                src_internal_intscan__str__________
 .rodata.src_stdio___fdopen__str_rwa_
                0x000000000041ff7a        0x4 0x1 /usr/local/popcorn/x86_64/lib/libc.a(__fdopen.o)
                0x000000000041ff7a                src_stdio___fdopen__str_rwa_
 .rodata.__fsmu8
                0x000000000041ff80       0xcc 0x10 /usr/local/popcorn/x86_64/lib/libc.a(internal.o)
                0x000000000041ff80                __fsmu8

.llvm_stackmaps
                0x0000000000420050      0xc10
 .llvm_stackmaps
                0x0000000000420050      0x3b8 0x8 popcorn-migratemep_x86_64.o
 .llvm_stackmaps
                0x0000000000420408       0x48 0x8 /usr/local/popcorn/x86_64/lib/libc.a(__libc_start_main.o)
 .llvm_stackmaps
                0x0000000000420450       0x80 0x8 /usr/local/popcorn/x86_64/lib/libc.a(pthread_create.o)
 .llvm_stackmaps
                0x00000000004204d0      0x3f8 0x8 /usr/local/popcorn/x86_64/lib/libmigrate.a(migrate.o)
 .llvm_stackmaps
                0x00000000004208c8      0x120 0x8 /usr/local/popcorn/x86_64/lib/libmigrate.a(trigger.o)
 .llvm_stackmaps
                0x00000000004209e8      0x278 0x8 /usr/local/popcorn/x86_64/lib/libmigrate.a(mapping.o)

.eh_frame       0x0000000000420c60     0x24b0
 ** eh_frame    0x0000000000420c60     0x24b0

.tbss           0x0000000000424fc0    0xde0b0
 .tbss.src_userspace_c_bounds
                0x0000000000424fc0       0x10 0x8 /usr/local/popcorn/x86_64/lib/libstack-transform.a(userspace.o)
 .tbss.src_rewrite_c_src_ctx
                0x0000000000424fd0     0xb050 0x8 /usr/local/popcorn/x86_64/lib/libstack-transform.a(rewrite.o)
 .tbss.src_rewrite_c_src_regs
                0x0000000000430020    0x62000 0x10 /usr/local/popcorn/x86_64/lib/libstack-transform.a(rewrite.o)
 .tbss.src_rewrite_c_src_callee
                0x0000000000492020     0x2000 0x10 /usr/local/popcorn/x86_64/lib/libstack-transform.a(rewrite.o)
 .tbss.src_rewrite_c_dest_ctx
                0x0000000000494020     0xb050 0x8 /usr/local/popcorn/x86_64/lib/libstack-transform.a(rewrite.o)
 .tbss.src_rewrite_c_dest_regs
                0x000000000049f070    0x62000 0x10 /usr/local/popcorn/x86_64/lib/libstack-transform.a(rewrite.o)
 .tbss.src_rewrite_c_dest_callee
                0x0000000000501070     0x2000 0x10 /usr/local/popcorn/x86_64/lib/libstack-transform.a(rewrite.o)

.init_array     0x0000000000424fc0       0x30
 .init_array    0x0000000000424fc0        0x8 0x8 /usr/local/popcorn/x86_64/lib/libmigrate.a(migrate.o)
 .init_array    0x0000000000424fc8        0x8 0x8 /usr/local/popcorn/x86_64/lib/libmigrate.a(trigger.o)
 .init_array    0x0000000000424fd0        0x8 0x8 /usr/local/popcorn/x86_64/lib/libmigrate.a(mapping.o)
 .init_array    0x0000000000424fd8        0x8 0x8 /usr/local/popcorn/x86_64/lib/libstack-transform.a(init.o)
 .init_array    0x0000000000424fe0        0x8 0x8 /usr/local/popcorn/x86_64/lib/libc.a(malloc.o)
 .init_array    0x0000000000424fe8        0x8 0x8 /usr/local/popcorn/x86_64/lib/libc.a(popcorn_malloc.o)

.fini_array     0x0000000000424ff0        0x8
 .fini_array    0x0000000000424ff0        0x8 0x8 /usr/local/popcorn/x86_64/lib/libmigrate.a(mapping.o)

.data           0x0000000000425000      0x1fc
 .data          0x0000000000425000        0x0 0x4 popcorn-migratemep_x86_64.o
 .data          0x0000000000425000        0x0 0x4 /usr/local/popcorn/x86_64/lib/crt1.o
 .data          0x0000000000425000        0x0 0x4 /usr/local/popcorn/x86_64/lib/libc.a(__libc_start_main.o)
 .data          0x0000000000425000        0x0 0x4 /usr/local/popcorn/x86_64/lib/libc.a(exit.o)
 .data          0x0000000000425000        0x0 0x4 /usr/local/popcorn/x86_64/lib/libc.a(libc.o)
 .data          0x0000000000425000        0x0 0x4 /usr/local/popcorn/x86_64/lib/libc.a(perror.o)
 .data          0x0000000000425000        0x0 0x4 /usr/local/popcorn/x86_64/lib/libc.a(printf.o)
 .data          0x0000000000425000        0x0 0x4 /usr/local/popcorn/x86_64/lib/libc.a(stderr.o)
 .data.src_stdio_stderr_c_f
                0x0000000000425000       0xe8 0x8 /usr/local/popcorn/x86_64/lib/libc.a(stderr.o)
 .data.__stderr_used
                0x00000000004250e8        0x8 0x8 /usr/local/popcorn/x86_64/lib/libc.a(stderr.o)
                0x00000000004250e8                __stderr_used
 .data          0x00000000004250f0        0x0 0x4 /usr/local/popcorn/x86_64/lib/libc.a(stdout.o)
 .data.src_stdio_stdout_c_f
                0x00000000004250f0       0xe8 0x8 /usr/local/popcorn/x86_64/lib/libc.a(stdout.o)
 .data.__stdout_used
                0x00000000004251d8        0x8 0x8 /usr/local/popcorn/x86_64/lib/libc.a(stdout.o)
                0x00000000004251d8                __stdout_used
 .data          0x00000000004251e0        0x0 0x4 /usr/local/popcorn/x86_64/lib/libc.a(vfprintf.o)
 .data          0x00000000004251e0        0x0 0x4 /usr/local/popcorn/x86_64/lib/libc.a(strlen.o)
 .data          0x00000000004251e0        0x0 0x4 /usr/local/popcorn/x86_64/lib/libc.a(strnlen.o)
 .data          0x00000000004251e0        0x0 0x4 /usr/local/popcorn/x86_64/lib/libc.a(memset.o)
 .data          0x00000000004251e0        0x0 0x4 /usr/local/popcorn/x86_64/lib/libc.a(pthread_create.o)
 .data.__default_stacksize
                0x00000000004251e0        0x8 0x8 /usr/local/popcorn/x86_64/lib/libc.a(pthread_create.o)
                0x00000000004251e0                __default_stacksize
 .data.__default_guardsize
                0x00000000004251e8        0x8 0x8 /usr/local/popcorn/x86_64/lib/libc.a(pthread_create.o)
                0x00000000004251e8                __default_guardsize
 .data          0x00000000004251f0        0x0 0x4 /usr/local/popcorn/x86_64/lib/libc.a(pthread_join.o)
 .data          0x00000000004251f0        0x0 0x4 /usr/local/popcorn/x86_64/lib/libc.a(pthread_setcancelstate.o)
 .data          0x00000000004251f0        0x0 0x4 /usr/local/popcorn/x86_64/lib/libc.a(pthread_testcancel.o)
 .data          0x00000000004251f0        0x0 0x4 /usr/local/popcorn/x86_64/lib/libc.a(vmlock.o)
 .data          0x00000000004251f0        0x0 0x4 /usr/local/popcorn/x86_64/lib/libc.a(__cleartid_exit_nostack.o)
 .data          0x00000000004251f0        0x0 0x4 /usr/local/popcorn/x86_64/lib/libc.a(__unmapself.o)
 .data          0x00000000004251f0        0x0 0x4 /usr/local/popcorn/x86_64/lib/libc.a(clone.o)
 .data          0x00000000004251f0        0x0 0x4 /usr/local/popcorn/x86_64/lib/libc.a(getpid.o)
 .data          0x00000000004251f0        0x0 0x4 /usr/local/popcorn/x86_64/lib/libc.a(gettid.o)
 .data          0x00000000004251f0        0x0 0x4 /usr/local/popcorn/x86_64/lib/libc.a(sleep.o)
 .data          0x00000000004251f0        0x0 0x4 /usr/local/popcorn/x86_64/lib/libc.a(__environ.o)
 .data          0x00000000004251f0        0x0 0x4 /usr/local/popcorn/x86_64/lib/libc.a(__init_tls.o)
 .data          0x00000000004251f0        0x0 0x4 /usr/local/popcorn/x86_64/lib/libc.a(__errno_location.o)
 .data          0x00000000004251f0        0x0 0x4 /usr/local/popcorn/x86_64/lib/libc.a(strerror.o)
 .data          0x00000000004251f0        0x0 0x4 /usr/local/popcorn/x86_64/lib/libc.a(_Exit.o)
 .data          0x00000000004251f0        0x0 0x4 /usr/local/popcorn/x86_64/lib/libc.a(__lctrans.o)
 .data          0x00000000004251f0        0x0 0x4 /usr/local/popcorn/x86_64/lib/libc.a(__fpclassifyl.o)
 .data          0x00000000004251f0        0x0 0x4 /usr/local/popcorn/x86_64/lib/libc.a(__signbitl.o)
 .data          0x00000000004251f0        0x0 0x4 /usr/local/popcorn/x86_64/lib/libc.a(frexpl.o)
 .data          0x00000000004251f0        0x0 0x4 /usr/local/popcorn/x86_64/lib/libc.a(mmap.o)
 .data          0x00000000004251f0        0x0 0x4 /usr/local/popcorn/x86_64/lib/libc.a(mprotect.o)
 .data          0x00000000004251f0        0x0 0x4 /usr/local/popcorn/x86_64/lib/libc.a(munmap.o)
 .data          0x00000000004251f0        0x0 0x4 /usr/local/popcorn/x86_64/lib/libc.a(wctomb.o)
 .data          0x00000000004251f0        0x0 0x4 /usr/local/popcorn/x86_64/lib/libc.a(block.o)
 .data          0x00000000004251f0        0x0 0x4 /usr/local/popcorn/x86_64/lib/libc.a(__lockfile.o)
 .data          0x00000000004251f0        0x0 0x4 /usr/local/popcorn/x86_64/lib/libc.a(__stdio_close.o)
 .data          0x00000000004251f0        0x0 0x4 /usr/local/popcorn/x86_64/lib/libc.a(__stdio_seek.o)
 .data          0x00000000004251f0        0x0 0x4 /usr/local/popcorn/x86_64/lib/libc.a(__stdio_write.o)
 .data          0x00000000004251f0        0x0 0x4 /usr/local/popcorn/x86_64/lib/libc.a(__stdout_write.o)
 .data          0x00000000004251f0        0x0 0x4 /usr/local/popcorn/x86_64/lib/libc.a(fputc.o)
 .data          0x00000000004251f0        0x0 0x4 /usr/local/popcorn/x86_64/lib/libc.a(fwrite.o)
 .data          0x00000000004251f0        0x0 0x4 /usr/local/popcorn/x86_64/lib/libc.a(ofl.o)
 .data          0x00000000004251f0        0x0 0x4 /usr/local/popcorn/x86_64/lib/libc.a(memchr.o)
 .data          0x00000000004251f0        0x0 0x4 /usr/local/popcorn/x86_64/lib/libc.a(memcpy.o)
 .data          0x00000000004251f0        0x0 0x4 /usr/local/popcorn/x86_64/lib/libc.a(__lock.o)
 .data          0x00000000004251f0        0x0 0x4 /usr/local/popcorn/x86_64/lib/libc.a(__timedwait.o)
 .data          0x00000000004251f0        0x0 0x4 /usr/local/popcorn/x86_64/lib/libc.a(__wait.o)
 .data          0x00000000004251f0        0x0 0x4 /usr/local/popcorn/x86_64/lib/libc.a(__set_thread_area.o)
 .data          0x00000000004251f0        0x0 0x4 /usr/local/popcorn/x86_64/lib/libc.a(clock_gettime.o)
 .data          0x00000000004251f0        0x0 0x4 /usr/local/popcorn/x86_64/lib/libc.a(nanosleep.o)
 .data          0x00000000004251f0        0x0 0x4 /usr/local/popcorn/x86_64/lib/libc.a(syscall_ret.o)
 .data          0x00000000004251f0        0x0 0x4 /usr/local/popcorn/x86_64/lib/libc.a(wcrtomb.o)
 .data          0x00000000004251f0        0x0 0x4 /usr/local/popcorn/x86_64/lib/libc.a(__overflow.o)
 .data          0x00000000004251f0        0x0 0x4 /usr/local/popcorn/x86_64/lib/libc.a(__towrite.o)
 .data          0x00000000004251f0        0x0 0x4 /usr/local/popcorn/x86_64/lib/libc.a(__syscall_cp.o)
 .data          0x00000000004251f0        0x0 0x4 /usr/local/popcorn/x86_64/lib/libc.a(syscall.o)
 .data          0x00000000004251f0        0x0 0x4 /usr/local/popcorn/x86_64/lib/libc.a(__stdio_exit.o)
 .data          0x00000000004251f0        0x0 0x4 /usr/local/popcorn/x86_64/lib/libmigrate.a(migrate.o)
 .data.src_migrate_c_origin_nid
                0x00000000004251f0        0x4 0x4 /usr/local/popcorn/x86_64/lib/libmigrate.a(migrate.o)
 .data          0x00000000004251f4        0x0 0x4 /usr/local/popcorn/x86_64/lib/libmigrate.a(trigger.o)
 .data.__migrate_flag
                0x00000000004251f4        0x4 0x4 /usr/local/popcorn/x86_64/lib/libmigrate.a(trigger.o)
                0x00000000004251f4                __migrate_flag
 .data          0x00000000004251f8        0x0 0x1 /usr/local/popcorn/x86_64/lib/libmigrate.a(migrate_x86_64.o)
 .data          0x00000000004251f8        0x0 0x1 /usr/local/popcorn/x86_64/lib/libmigrate.a(migrate_aarch64.o)
 .data          0x00000000004251f8        0x0 0x1 /usr/local/popcorn/x86_64/lib/libmigrate.a(migrate_powerpc64.o)
 .data          0x00000000004251f8        0x0 0x4 /usr/local/popcorn/x86_64/lib/libmigrate.a(mapping.o)
 .data          0x00000000004251f8        0x0 0x4 /usr/local/popcorn/x86_64/lib/libstack-transform.a(userspace.o)
 .data          0x00000000004251f8        0x0 0x4 /usr/local/popcorn/x86_64/lib/libstack-transform.a(init.o)
 .data          0x00000000004251f8        0x0 0x4 /usr/local/popcorn/x86_64/lib/libstack-transform.a(rewrite.o)
 .data          0x00000000004251f8        0x0 0x4 /usr/local/popcorn/x86_64/lib/libstack-transform.a(unwind.o)
 .data          0x00000000004251f8        0x0 0x4 /usr/local/popcorn/x86_64/lib/libstack-transform.a(util.o)
 .data          0x00000000004251f8        0x0 0x4 /usr/local/popcorn/x86_64/lib/libstack-transform.a(properties.o)
 .data          0x00000000004251f8        0x0 0x4 /usr/local/popcorn/x86_64/lib/libstack-transform.a(regs.o)
 .data          0x00000000004251f8        0x0 0x4 /usr/local/popcorn/x86_64/lib/libstack-transform.a(properties.o)
 .data          0x00000000004251f8        0x0 0x4 /usr/local/popcorn/x86_64/lib/libstack-transform.a(regs.o)
 .data          0x00000000004251f8        0x0 0x4 /usr/local/popcorn/x86_64/lib/libstack-transform.a(properties.o)
 .data          0x00000000004251f8        0x0 0x4 /usr/local/popcorn/x86_64/lib/libstack-transform.a(regs.o)
 .data          0x00000000004251f8        0x0 0x4 /usr/local/popcorn/x86_64/lib/libstack-transform.a(data.o)
 .data          0x00000000004251f8        0x0 0x4 /usr/local/popcorn/x86_64/lib/libelf.a(begin.o)
 .data          0x00000000004251f8        0x0 0x4 /usr/local/popcorn/x86_64/lib/libelf.a(end.o)
 .data          0x00000000004251f8        0x0 0x4 /usr/local/popcorn/x86_64/lib/libelf.a(getdata.o)
 .data          0x00000000004251f8        0x0 0x4 /usr/local/popcorn/x86_64/lib/libelf.a(getident.o)
 .data          0x00000000004251f8        0x0 0x4 /usr/local/popcorn/x86_64/lib/libelf.a(nextscn.o)
 .data          0x00000000004251f8        0x0 0x4 /usr/local/popcorn/x86_64/lib/libelf.a(strptr.o)
 .data          0x00000000004251f8        0x0 0x4 /usr/local/popcorn/x86_64/lib/libelf.a(version.o)
 .data          0x00000000004251f8        0x0 0x4 /usr/local/popcorn/x86_64/lib/libelf.a(32.getehdr.o)
 .data          0x00000000004251f8        0x0 0x4 /usr/local/popcorn/x86_64/lib/libelf.a(32.xlatetof.o)
 .data          0x00000000004251f8        0x0 0x4 /usr/local/popcorn/x86_64/lib/libelf.a(cook.o)
 .data          0x00000000004251f8        0x0 0x4 /usr/local/popcorn/x86_64/lib/libelf.a(data.o)
 .data._elf_sanity_checks
                0x00000000004251f8        0x4 0x4 /usr/local/popcorn/x86_64/lib/libelf.a(data.o)
                0x00000000004251f8                _elf_sanity_checks
 .data          0x00000000004251fc        0x0 0x4 /usr/local/popcorn/x86_64/lib/libelf.a(input.o)
 .data          0x00000000004251fc        0x0 0x4 /usr/local/popcorn/x86_64/lib/libelf.a(x.elfext.o)
 .data          0x00000000004251fc        0x0 0x4 /usr/local/popcorn/x86_64/lib/libelf.a(64.xlatetof.o)
 .data          0x00000000004251fc        0x0 0x4 /usr/local/popcorn/x86_64/lib/libelf.a(gelfshdr.o)
 .data          0x00000000004251fc        0x0 0x4 /usr/local/popcorn/x86_64/lib/libelf.a(swap64.o)
 .data          0x00000000004251fc        0x0 0x4 /usr/local/popcorn/x86_64/lib/libelf.a(verdef_32_tof.o)
 .data          0x00000000004251fc        0x0 0x4 /usr/local/popcorn/x86_64/lib/libelf.a(verdef_32_tom.o)
 .data          0x00000000004251fc        0x0 0x4 /usr/local/popcorn/x86_64/lib/libelf.a(verdef_64_tof.o)
 .data          0x00000000004251fc        0x0 0x4 /usr/local/popcorn/x86_64/lib/libelf.a(verdef_64_tom.o)
 .data          0x00000000004251fc        0x0 0x4 /usr/local/popcorn/x86_64/lib/libelf.a(getscn.o)
 .data          0x00000000004251fc        0x0 0x4 /usr/local/popcorn/x86_64/lib/libelf.a(newscn.o)
 .data          0x00000000004251fc        0x0 0x4 /usr/local/popcorn/x86_64/lib/libelf.a(32.fsize.o)
 .data          0x00000000004251fc        0x0 0x4 /usr/local/popcorn/x86_64/lib/libc.a(arch_crash.o)
 .data          0x00000000004251fc        0x0 0x4 /usr/local/popcorn/x86_64/lib/libc.a(getenv.o)
 .data          0x00000000004251fc        0x0 0x4 /usr/local/popcorn/x86_64/lib/libc.a(platform.o)
 .data          0x00000000004251fc        0x0 0x4 /usr/local/popcorn/x86_64/lib/libc.a(assert.o)
 .data          0x00000000004251fc        0x0 0x4 /usr/local/popcorn/x86_64/lib/libc.a(open.o)
 .data          0x00000000004251fc        0x0 0x4 /usr/local/popcorn/x86_64/lib/libc.a(calloc.o)
 .data          0x00000000004251fc        0x0 0x4 /usr/local/popcorn/x86_64/lib/libc.a(lite_malloc.o)
 .data          0x00000000004251fc        0x0 0x4 /usr/local/popcorn/x86_64/lib/libc.a(malloc.o)
 .data          0x00000000004251fc        0x0 0x4 /usr/local/popcorn/x86_64/lib/libc.a(popcorn_malloc.o)
 .data          0x00000000004251fc        0x0 0x4 /usr/local/popcorn/x86_64/lib/libc.a(getrlimit.o)
 .data          0x00000000004251fc        0x0 0x4 /usr/local/popcorn/x86_64/lib/libc.a(syscall.o)
 .data          0x00000000004251fc        0x0 0x4 /usr/local/popcorn/x86_64/lib/libc.a(madvise.o)
 .data          0x00000000004251fc        0x0 0x4 /usr/local/popcorn/x86_64/lib/libc.a(mremap.o)
 .data          0x00000000004251fc        0x0 0x4 /usr/local/popcorn/x86_64/lib/libc.a(sigaction.o)
 .data          0x00000000004251fc        0x0 0x4 /usr/local/popcorn/x86_64/lib/libc.a(sigemptyset.o)
 .data          0x00000000004251fc        0x0 0x4 /usr/local/popcorn/x86_64/lib/libc.a(sigrtmin.o)
 .data          0x00000000004251fc        0x0 0x4 /usr/local/popcorn/x86_64/lib/libc.a(restore.o)
 .data          0x00000000004251fc        0x0 0x4 /usr/local/popcorn/x86_64/lib/libc.a(fclose.o)
 .data          0x00000000004251fc        0x0 0x4 /usr/local/popcorn/x86_64/lib/libc.a(fflush.o)
 .data          0x00000000004251fc        0x0 0x4 /usr/local/popcorn/x86_64/lib/libc.a(fopen.o)
 .data          0x00000000004251fc        0x0 0x4 /usr/local/popcorn/x86_64/lib/libc.a(fprintf.o)
 .data          0x00000000004251fc        0x0 0x4 /usr/local/popcorn/x86_64/lib/libc.a(fscanf.o)
 .data          0x00000000004251fc        0x0 0x4 /usr/local/popcorn/x86_64/lib/libc.a(fseek.o)
 .data          0x00000000004251fc        0x0 0x4 /usr/local/popcorn/x86_64/lib/libc.a(getc.o)
 .data          0x00000000004251fc        0x0 0x4 /usr/local/popcorn/x86_64/lib/libc.a(getline.o)
 .data          0x00000000004251fc        0x0 0x4 /usr/local/popcorn/x86_64/lib/libc.a(snprintf.o)
 .data          0x00000000004251fc        0x0 0x4 /usr/local/popcorn/x86_64/lib/libc.a(sscanf.o)
 .data          0x00000000004251fc        0x0 0x4 /usr/local/popcorn/x86_64/lib/libc.a(vfscanf.o)
 .data          0x00000000004251fc        0x0 0x4 /usr/local/popcorn/x86_64/lib/libc.a(vsnprintf.o)
 .data          0x00000000004251fc        0x0 0x4 /usr/local/popcorn/x86_64/lib/libc.a(vsscanf.o)
 .data          0x00000000004251fc        0x0 0x4 /usr/local/popcorn/x86_64/lib/libc.a(bsearch.o)
 .data          0x00000000004251fc        0x0 0x4 /usr/local/popcorn/x86_64/lib/libc.a(qsort.o)
 .data          0x00000000004251fc        0x0 0x4 /usr/local/popcorn/x86_64/lib/libc.a(strtol.o)
 .data          0x00000000004251fc        0x0 0x4 /usr/local/popcorn/x86_64/lib/libc.a(strchr.o)
 .data          0x00000000004251fc        0x0 0x4 /usr/local/popcorn/x86_64/lib/libc.a(strchrnul.o)
 .data          0x00000000004251fc        0x0 0x4 /usr/local/popcorn/x86_64/lib/libc.a(strcmp.o)
 .data          0x00000000004251fc        0x0 0x4 /usr/local/popcorn/x86_64/lib/libc.a(strncmp.o)
 .data          0x00000000004251fc        0x0 0x4 /usr/local/popcorn/x86_64/lib/libc.a(memmove.o)
 .data          0x00000000004251fc        0x0 0x4 /usr/local/popcorn/x86_64/lib/libc.a(pthread_attr_get.o)
 .data          0x00000000004251fc        0x0 0x4 /usr/local/popcorn/x86_64/lib/libc.a(pthread_getattr_np.o)
 .data          0x00000000004251fc        0x0 0x4 /usr/local/popcorn/x86_64/lib/libc.a(pthread_migrate.o)
 .data          0x00000000004251fc        0x0 0x4 /usr/local/popcorn/x86_64/lib/libc.a(pthread_self.o)
 .data          0x00000000004251fc        0x0 0x4 /usr/local/popcorn/x86_64/lib/libc.a(close.o)
 .data          0x00000000004251fc        0x0 0x4 /usr/local/popcorn/x86_64/lib/libc.a(lseek.o)
 .data          0x00000000004251fc        0x0 0x4 /usr/local/popcorn/x86_64/lib/libc.a(read.o)
 .data          0x00000000004251fc        0x0 0x4 /usr/local/popcorn/x86_64/lib/libc.a(abort.o)
 .data          0x00000000004251fc        0x0 0x4 /usr/local/popcorn/x86_64/lib/libc.a(floatscan.o)
 .data          0x00000000004251fc        0x0 0x4 /usr/local/popcorn/x86_64/lib/libc.a(intscan.o)
 .data          0x00000000004251fc        0x0 0x4 /usr/local/popcorn/x86_64/lib/libc.a(shgetc.o)
 .data          0x00000000004251fc        0x0 0x4 /usr/local/popcorn/x86_64/lib/libc.a(expand_heap.o)
 .data          0x00000000004251fc        0x0 0x4 /usr/local/popcorn/x86_64/lib/libc.a(copysignl.o)
 .data          0x00000000004251fc        0x0 0x4 /usr/local/popcorn/x86_64/lib/libc.a(scalbn.o)
 .data          0x00000000004251fc        0x0 0x4 /usr/local/popcorn/x86_64/lib/libc.a(scalbnl.o)
 .data          0x00000000004251fc        0x0 0x4 /usr/local/popcorn/x86_64/lib/libc.a(fabs.o)
 .data          0x00000000004251fc        0x0 0x4 /usr/local/popcorn/x86_64/lib/libc.a(fmodl.o)
 .data          0x00000000004251fc        0x0 0x4 /usr/local/popcorn/x86_64/lib/libc.a(mbrtowc.o)
 .data          0x00000000004251fc        0x0 0x4 /usr/local/popcorn/x86_64/lib/libc.a(mbsinit.o)
 .data          0x00000000004251fc        0x0 0x4 /usr/local/popcorn/x86_64/lib/libc.a(raise.o)
 .data          0x00000000004251fc        0x0 0x4 /usr/local/popcorn/x86_64/lib/libc.a(__fdopen.o)
 .data          0x00000000004251fc        0x0 0x4 /usr/local/popcorn/x86_64/lib/libc.a(__fmodeflags.o)
 .data          0x00000000004251fc        0x0 0x4 /usr/local/popcorn/x86_64/lib/libc.a(__stdio_read.o)
 .data          0x00000000004251fc        0x0 0x4 /usr/local/popcorn/x86_64/lib/libc.a(__string_read.o)
 .data          0x00000000004251fc        0x0 0x4 /usr/local/popcorn/x86_64/lib/libc.a(__uflow.o)
 .data          0x00000000004251fc        0x0 0x4 /usr/local/popcorn/x86_64/lib/libc.a(getdelim.o)
 .data          0x00000000004251fc        0x0 0x4 /usr/local/popcorn/x86_64/lib/libc.a(ofl_add.o)
 .data          0x00000000004251fc        0x0 0x4 /usr/local/popcorn/x86_64/lib/libc.a(internal.o)
 .data          0x00000000004251fc        0x0 0x4 /usr/local/popcorn/x86_64/lib/libc.a(__toread.o)

.bss            0x0000000000426000    0x23080
 .bss           0x0000000000426000        0x0 0x4 popcorn-migratemep_x86_64.o
 .bss           0x0000000000426000        0x0 0x4 /usr/local/popcorn/x86_64/lib/crt1.o
 .bss           0x0000000000426000        0x0 0x4 /usr/local/popcorn/x86_64/lib/libc.a(__libc_start_main.o)
 .bss.__popcorn_stack_base
                0x0000000000426000        0x8 0x8 /usr/local/popcorn/x86_64/lib/libc.a(__libc_start_main.o)
                0x0000000000426000                __popcorn_stack_base
 .bss           0x0000000000426008        0x0 0x4 /usr/local/popcorn/x86_64/lib/libc.a(exit.o)
 .bss           0x0000000000426008        0x0 0x4 /usr/local/popcorn/x86_64/lib/libc.a(libc.o)
 .bss.__progname
                0x0000000000426008        0x8 0x8 /usr/local/popcorn/x86_64/lib/libc.a(libc.o)
                0x0000000000426008                __progname
                0x0000000000426008                program_invocation_short_name
 .bss.__progname_full
                0x0000000000426010        0x8 0x8 /usr/local/popcorn/x86_64/lib/libc.a(libc.o)
                0x0000000000426010                __progname_full
                0x0000000000426010                program_invocation_name
 .bss           0x0000000000426018        0x0 0x4 /usr/local/popcorn/x86_64/lib/libc.a(perror.o)
 .bss           0x0000000000426018        0x0 0x4 /usr/local/popcorn/x86_64/lib/libc.a(printf.o)
 .bss           0x0000000000426018        0x0 0x4 /usr/local/popcorn/x86_64/lib/libc.a(stderr.o)
 .bss.src_stdio_stderr_c_buf
                0x0000000000426018        0x8 0x1 /usr/local/popcorn/x86_64/lib/libc.a(stderr.o)
 .bss           0x0000000000426020        0x0 0x4 /usr/local/popcorn/x86_64/lib/libc.a(stdout.o)
 .bss.src_stdio_stdout_c_buf
                0x0000000000426020      0x408 0x10 /usr/local/popcorn/x86_64/lib/libc.a(stdout.o)
 .bss           0x0000000000426428        0x0 0x4 /usr/local/popcorn/x86_64/lib/libc.a(vfprintf.o)
 .bss           0x0000000000426428        0x0 0x4 /usr/local/popcorn/x86_64/lib/libc.a(strlen.o)
 .bss           0x0000000000426428        0x0 0x4 /usr/local/popcorn/x86_64/lib/libc.a(strnlen.o)
 .bss           0x0000000000426428        0x0 0x4 /usr/local/popcorn/x86_64/lib/libc.a(memset.o)
 .bss           0x0000000000426428        0x0 0x4 /usr/local/popcorn/x86_64/lib/libc.a(pthread_create.o)
 .bss.src_thread_pthread_create_c_dummy
                0x0000000000426428        0x8 0x8 /usr/local/popcorn/x86_64/lib/libc.a(pthread_create.o)
                0x0000000000426428                __pthread_tsd_size
 .bss.src_thread_pthread_create_c_dummy_tsd
                0x0000000000426430        0x8 0x8 /usr/local/popcorn/x86_64/lib/libc.a(pthread_create.o)
                0x0000000000426430                __pthread_tsd_main
 .bss.__block_new_threads
                0x0000000000426438        0x4 0x4 /usr/local/popcorn/x86_64/lib/libc.a(pthread_create.o)
                0x0000000000426438                __block_new_threads
 .bss.src_thread_pthread_create_c_dummy_file
                0x0000000000426440        0x8 0x8 /usr/local/popcorn/x86_64/lib/libc.a(pthread_create.o)
                0x0000000000426440                __stdin_used
 .bss           0x0000000000426448        0x0 0x4 /usr/local/popcorn/x86_64/lib/libc.a(pthread_join.o)
 .bss           0x0000000000426448        0x0 0x4 /usr/local/popcorn/x86_64/lib/libc.a(pthread_setcancelstate.o)
 .bss           0x0000000000426448        0x0 0x4 /usr/local/popcorn/x86_64/lib/libc.a(pthread_testcancel.o)
 .bss           0x0000000000426448        0x0 0x4 /usr/local/popcorn/x86_64/lib/libc.a(vmlock.o)
 .bss.src_thread_vmlock_c_vmlock
                0x0000000000426448        0x8 0x4 /usr/local/popcorn/x86_64/lib/libc.a(vmlock.o)
 .bss           0x0000000000426450        0x0 0x4 /usr/local/popcorn/x86_64/lib/libc.a(__cleartid_exit_nostack.o)
 .bss           0x0000000000426450        0x0 0x4 /usr/local/popcorn/x86_64/lib/libc.a(__unmapself.o)
 .bss           0x0000000000426450        0x0 0x4 /usr/local/popcorn/x86_64/lib/libc.a(clone.o)
 .bss           0x0000000000426450        0x0 0x4 /usr/local/popcorn/x86_64/lib/libc.a(getpid.o)
 .bss           0x0000000000426450        0x0 0x4 /usr/local/popcorn/x86_64/lib/libc.a(gettid.o)
 .bss           0x0000000000426450        0x0 0x4 /usr/local/popcorn/x86_64/lib/libc.a(sleep.o)
 .bss           0x0000000000426450        0x0 0x4 /usr/local/popcorn/x86_64/lib/libc.a(__environ.o)
 .bss.__environ
                0x0000000000426450        0x8 0x8 /usr/local/popcorn/x86_64/lib/libc.a(__environ.o)
                0x0000000000426450                ___environ
                0x0000000000426450                __environ
                0x0000000000426450                _environ
                0x0000000000426450                environ
 .bss           0x0000000000426458        0x0 0x4 /usr/local/popcorn/x86_64/lib/libc.a(__init_tls.o)
 .bss.src_env___init_tls_c_main_tls
                0x0000000000426458       0x30 0x8 /usr/local/popcorn/x86_64/lib/libc.a(__init_tls.o)
 .bss.src_env___init_tls_c_builtin_tls
                0x0000000000426490      0x1a8 0x10 /usr/local/popcorn/x86_64/lib/libc.a(__init_tls.o)
 .bss           0x0000000000426638        0x0 0x4 /usr/local/popcorn/x86_64/lib/libc.a(__errno_location.o)
 .bss           0x0000000000426638        0x0 0x4 /usr/local/popcorn/x86_64/lib/libc.a(strerror.o)
 .bss           0x0000000000426638        0x0 0x4 /usr/local/popcorn/x86_64/lib/libc.a(_Exit.o)
 .bss           0x0000000000426638        0x0 0x4 /usr/local/popcorn/x86_64/lib/libc.a(__lctrans.o)
 .bss           0x0000000000426638        0x0 0x4 /usr/local/popcorn/x86_64/lib/libc.a(__fpclassifyl.o)
 .bss           0x0000000000426638        0x0 0x4 /usr/local/popcorn/x86_64/lib/libc.a(__signbitl.o)
 .bss           0x0000000000426638        0x0 0x4 /usr/local/popcorn/x86_64/lib/libc.a(frexpl.o)
 .bss           0x0000000000426638        0x0 0x4 /usr/local/popcorn/x86_64/lib/libc.a(mmap.o)
 .bss           0x0000000000426638        0x0 0x4 /usr/local/popcorn/x86_64/lib/libc.a(mprotect.o)
 .bss           0x0000000000426638        0x0 0x4 /usr/local/popcorn/x86_64/lib/libc.a(munmap.o)
 .bss           0x0000000000426638        0x0 0x4 /usr/local/popcorn/x86_64/lib/libc.a(wctomb.o)
 .bss           0x0000000000426638        0x0 0x4 /usr/local/popcorn/x86_64/lib/libc.a(block.o)
 .bss           0x0000000000426638        0x0 0x4 /usr/local/popcorn/x86_64/lib/libc.a(__lockfile.o)
 .bss           0x0000000000426638        0x0 0x4 /usr/local/popcorn/x86_64/lib/libc.a(__stdio_close.o)
 .bss           0x0000000000426638        0x0 0x4 /usr/local/popcorn/x86_64/lib/libc.a(__stdio_seek.o)
 .bss           0x0000000000426638        0x0 0x4 /usr/local/popcorn/x86_64/lib/libc.a(__stdio_write.o)
 .bss           0x0000000000426638        0x0 0x4 /usr/local/popcorn/x86_64/lib/libc.a(__stdout_write.o)
 .bss           0x0000000000426638        0x0 0x4 /usr/local/popcorn/x86_64/lib/libc.a(fputc.o)
 .bss           0x0000000000426638        0x0 0x4 /usr/local/popcorn/x86_64/lib/libc.a(fwrite.o)
 .bss           0x0000000000426638        0x0 0x4 /usr/local/popcorn/x86_64/lib/libc.a(ofl.o)
 .bss.src_stdio_ofl_c_ofl_lock
                0x0000000000426638        0x8 0x4 /usr/local/popcorn/x86_64/lib/libc.a(ofl.o)
 .bss.src_stdio_ofl_c_ofl_head
                0x0000000000426640        0x8 0x8 /usr/local/popcorn/x86_64/lib/libc.a(ofl.o)
 .bss           0x0000000000426648        0x0 0x4 /usr/local/popcorn/x86_64/lib/libc.a(memchr.o)
 .bss           0x0000000000426648        0x0 0x4 /usr/local/popcorn/x86_64/lib/libc.a(memcpy.o)
 .bss           0x0000000000426648        0x0 0x4 /usr/local/popcorn/x86_64/lib/libc.a(__lock.o)
 .bss           0x0000000000426648        0x0 0x4 /usr/local/popcorn/x86_64/lib/libc.a(__timedwait.o)
 .bss           0x0000000000426648        0x0 0x4 /usr/local/popcorn/x86_64/lib/libc.a(__wait.o)
 .bss           0x0000000000426648        0x0 0x4 /usr/local/popcorn/x86_64/lib/libc.a(__set_thread_area.o)
 .bss           0x0000000000426648        0x0 0x4 /usr/local/popcorn/x86_64/lib/libc.a(clock_gettime.o)
 .bss           0x0000000000426648        0x0 0x4 /usr/local/popcorn/x86_64/lib/libc.a(nanosleep.o)
 .bss           0x0000000000426648        0x0 0x4 /usr/local/popcorn/x86_64/lib/libc.a(syscall_ret.o)
 .bss           0x0000000000426648        0x0 0x4 /usr/local/popcorn/x86_64/lib/libc.a(wcrtomb.o)
 .bss           0x0000000000426648        0x0 0x4 /usr/local/popcorn/x86_64/lib/libc.a(__overflow.o)
 .bss           0x0000000000426648        0x0 0x4 /usr/local/popcorn/x86_64/lib/libc.a(__towrite.o)
 .bss           0x0000000000426648        0x0 0x4 /usr/local/popcorn/x86_64/lib/libc.a(__syscall_cp.o)
 .bss           0x0000000000426648        0x0 0x4 /usr/local/popcorn/x86_64/lib/libc.a(syscall.o)
 .bss           0x0000000000426648        0x0 0x4 /usr/local/popcorn/x86_64/lib/libc.a(__stdio_exit.o)
 .bss.src_stdio___stdio_exit_c_dummy_file
                0x0000000000426648        0x8 0x8 /usr/local/popcorn/x86_64/lib/libc.a(__stdio_exit.o)
 .bss           0x0000000000426650        0x0 0x4 /usr/local/popcorn/x86_64/lib/libmigrate.a(migrate.o)
 .bss.src_migrate_c_ni
                0x0000000000426650      0x180 0x10 /usr/local/popcorn/x86_64/lib/libmigrate.a(migrate.o)
 .bss           0x00000000004267d0        0x0 0x4 /usr/local/popcorn/x86_64/lib/libmigrate.a(trigger.o)
 .bss           0x00000000004267d0        0x0 0x1 /usr/local/popcorn/x86_64/lib/libmigrate.a(migrate_x86_64.o)
 .bss           0x00000000004267d0        0x0 0x1 /usr/local/popcorn/x86_64/lib/libmigrate.a(migrate_aarch64.o)
 .bss           0x00000000004267d0        0x0 0x1 /usr/local/popcorn/x86_64/lib/libmigrate.a(migrate_powerpc64.o)
 .bss           0x00000000004267d0        0x0 0x4 /usr/local/popcorn/x86_64/lib/libmigrate.a(mapping.o)
 .bss.src_mapping_c_default_node
                0x00000000004267d0        0x4 0x4 /usr/local/popcorn/x86_64/lib/libmigrate.a(mapping.o)
 .bss.src_mapping_c_mappings
                0x00000000004267d8        0x8 0x8 /usr/local/popcorn/x86_64/lib/libmigrate.a(mapping.o)
 .bss.src_mapping_c_num_mappings
                0x00000000004267e0        0x8 0x8 /usr/local/popcorn/x86_64/lib/libmigrate.a(mapping.o)
 .bss           0x00000000004267e8        0x0 0x4 /usr/local/popcorn/x86_64/lib/libstack-transform.a(userspace.o)
 .bss.aarch64_fn
                0x00000000004267e8        0x8 0x8 /usr/local/popcorn/x86_64/lib/libstack-transform.a(userspace.o)
                0x00000000004267e8                aarch64_fn
 .bss.powerpc64_fn
                0x00000000004267f0        0x8 0x8 /usr/local/popcorn/x86_64/lib/libstack-transform.a(userspace.o)
                0x00000000004267f0                powerpc64_fn
 .bss.x86_64_fn
                0x00000000004267f8        0x8 0x8 /usr/local/popcorn/x86_64/lib/libstack-transform.a(userspace.o)
                0x00000000004267f8                x86_64_fn
 .bss.src_userspace_c_aarch64_handle
                0x0000000000426800        0x8 0x8 /usr/local/popcorn/x86_64/lib/libstack-transform.a(userspace.o)
 .bss.src_userspace_c_alloc_aarch64_fn
                0x0000000000426808        0x1 0x1 /usr/local/popcorn/x86_64/lib/libstack-transform.a(userspace.o)
 .bss.src_userspace_c_powerpc64_handle
                0x0000000000426810        0x8 0x8 /usr/local/popcorn/x86_64/lib/libstack-transform.a(userspace.o)
 .bss.src_userspace_c_alloc_powerpc64_fn
                0x0000000000426818        0x1 0x1 /usr/local/popcorn/x86_64/lib/libstack-transform.a(userspace.o)
 .bss.src_userspace_c_x86_64_handle
                0x0000000000426820        0x8 0x8 /usr/local/popcorn/x86_64/lib/libstack-transform.a(userspace.o)
 .bss.src_userspace_c_alloc_x86_64_fn
                0x0000000000426828        0x1 0x1 /usr/local/popcorn/x86_64/lib/libstack-transform.a(userspace.o)
 .bss           0x000000000042682c        0x0 0x4 /usr/local/popcorn/x86_64/lib/libstack-transform.a(init.o)
 .bss           0x000000000042682c        0x0 0x4 /usr/local/popcorn/x86_64/lib/libstack-transform.a(rewrite.o)
 .bss           0x000000000042682c        0x0 0x4 /usr/local/popcorn/x86_64/lib/libstack-transform.a(unwind.o)
 .bss           0x000000000042682c        0x0 0x4 /usr/local/popcorn/x86_64/lib/libstack-transform.a(util.o)
 .bss           0x000000000042682c        0x0 0x4 /usr/local/popcorn/x86_64/lib/libstack-transform.a(properties.o)
 .bss           0x000000000042682c        0x0 0x4 /usr/local/popcorn/x86_64/lib/libstack-transform.a(regs.o)
 .bss           0x000000000042682c        0x0 0x4 /usr/local/popcorn/x86_64/lib/libstack-transform.a(properties.o)
 .bss           0x000000000042682c        0x0 0x4 /usr/local/popcorn/x86_64/lib/libstack-transform.a(regs.o)
 .bss           0x000000000042682c        0x0 0x4 /usr/local/popcorn/x86_64/lib/libstack-transform.a(properties.o)
 .bss           0x000000000042682c        0x0 0x4 /usr/local/popcorn/x86_64/lib/libstack-transform.a(regs.o)
 .bss           0x000000000042682c        0x0 0x4 /usr/local/popcorn/x86_64/lib/libstack-transform.a(data.o)
 .bss           0x000000000042682c        0x0 0x4 /usr/local/popcorn/x86_64/lib/libelf.a(begin.o)
 .bss           0x000000000042682c        0x0 0x4 /usr/local/popcorn/x86_64/lib/libelf.a(end.o)
 .bss           0x000000000042682c        0x0 0x4 /usr/local/popcorn/x86_64/lib/libelf.a(getdata.o)
 .bss           0x000000000042682c        0x0 0x4 /usr/local/popcorn/x86_64/lib/libelf.a(getident.o)
 .bss           0x000000000042682c        0x0 0x4 /usr/local/popcorn/x86_64/lib/libelf.a(nextscn.o)
 .bss           0x000000000042682c        0x0 0x4 /usr/local/popcorn/x86_64/lib/libelf.a(strptr.o)
 .bss           0x000000000042682c        0x0 0x4 /usr/local/popcorn/x86_64/lib/libelf.a(version.o)
 .bss           0x000000000042682c        0x0 0x4 /usr/local/popcorn/x86_64/lib/libelf.a(32.getehdr.o)
 .bss           0x000000000042682c        0x0 0x4 /usr/local/popcorn/x86_64/lib/libelf.a(32.xlatetof.o)
 .bss           0x000000000042682c        0x0 0x4 /usr/local/popcorn/x86_64/lib/libelf.a(cook.o)
 .bss           0x000000000042682c        0x0 0x4 /usr/local/popcorn/x86_64/lib/libelf.a(data.o)
 .bss._elf_version
                0x000000000042682c        0x4 0x4 /usr/local/popcorn/x86_64/lib/libelf.a(data.o)
                0x000000000042682c                _elf_version
 .bss._elf_errno
                0x0000000000426830        0x4 0x4 /usr/local/popcorn/x86_64/lib/libelf.a(data.o)
                0x0000000000426830                _elf_errno
 .bss._elf_fill
                0x0000000000426834        0x4 0x4 /usr/local/popcorn/x86_64/lib/libelf.a(data.o)
                0x0000000000426834                _elf_fill
 .bss           0x0000000000426838        0x0 0x4 /usr/local/popcorn/x86_64/lib/libelf.a(input.o)
 .bss           0x0000000000426838        0x0 0x4 /usr/local/popcorn/x86_64/lib/libelf.a(x.elfext.o)
 .bss           0x0000000000426838        0x0 0x4 /usr/local/popcorn/x86_64/lib/libelf.a(64.xlatetof.o)
 .bss           0x0000000000426838        0x0 0x4 /usr/local/popcorn/x86_64/lib/libelf.a(gelfshdr.o)
 .bss           0x0000000000426838        0x0 0x4 /usr/local/popcorn/x86_64/lib/libelf.a(swap64.o)
 .bss           0x0000000000426838        0x0 0x4 /usr/local/popcorn/x86_64/lib/libelf.a(verdef_32_tof.o)
 .bss           0x0000000000426838        0x0 0x4 /usr/local/popcorn/x86_64/lib/libelf.a(verdef_32_tom.o)
 .bss           0x0000000000426838        0x0 0x4 /usr/local/popcorn/x86_64/lib/libelf.a(verdef_64_tof.o)
 .bss           0x0000000000426838        0x0 0x4 /usr/local/popcorn/x86_64/lib/libelf.a(verdef_64_tom.o)
 .bss           0x0000000000426838        0x0 0x4 /usr/local/popcorn/x86_64/lib/libelf.a(getscn.o)
 .bss           0x0000000000426838        0x0 0x4 /usr/local/popcorn/x86_64/lib/libelf.a(newscn.o)
 .bss           0x0000000000426838        0x0 0x4 /usr/local/popcorn/x86_64/lib/libelf.a(32.fsize.o)
 .bss           0x0000000000426838        0x0 0x4 /usr/local/popcorn/x86_64/lib/libc.a(arch_crash.o)
 .bss           0x0000000000426838        0x0 0x4 /usr/local/popcorn/x86_64/lib/libc.a(getenv.o)
 .bss           0x0000000000426838        0x0 0x4 /usr/local/popcorn/x86_64/lib/libc.a(platform.o)
 .bss           0x0000000000426838        0x0 0x4 /usr/local/popcorn/x86_64/lib/libc.a(assert.o)
 .bss           0x0000000000426838        0x0 0x4 /usr/local/popcorn/x86_64/lib/libc.a(open.o)
 .bss           0x0000000000426838        0x0 0x4 /usr/local/popcorn/x86_64/lib/libc.a(calloc.o)
 .bss           0x0000000000426838        0x0 0x4 /usr/local/popcorn/x86_64/lib/libc.a(lite_malloc.o)
 .bss.src_malloc_lite_malloc_c___simple_malloc_cur
                0x0000000000426838        0x8 0x8 /usr/local/popcorn/x86_64/lib/libc.a(lite_malloc.o)
 .bss.src_malloc_lite_malloc_c___simple_malloc_end
                0x0000000000426840        0x8 0x8 /usr/local/popcorn/x86_64/lib/libc.a(lite_malloc.o)
 .bss.src_malloc_lite_malloc_c___simple_malloc_lock
                0x0000000000426848        0x8 0x4 /usr/local/popcorn/x86_64/lib/libc.a(lite_malloc.o)
 .bss           0x0000000000426850        0x0 0x4 /usr/local/popcorn/x86_64/lib/libc.a(malloc.o)
 .bss.src_malloc_malloc_c_mal
                0x0000000000427000     0x1000 0x1000 /usr/local/popcorn/x86_64/lib/libc.a(malloc.o)
 .bss.src_malloc_malloc_c_expand_heap_heap_lock
                0x0000000000428000        0x8 0x4 /usr/local/popcorn/x86_64/lib/libc.a(malloc.o)
 .bss.src_malloc_malloc_c_expand_heap_end
                0x0000000000428008        0x8 0x8 /usr/local/popcorn/x86_64/lib/libc.a(malloc.o)
 .bss           0x0000000000428010        0x0 0x4 /usr/local/popcorn/x86_64/lib/libc.a(popcorn_malloc.o)
 .bss.src_malloc_popcorn_malloc_c_expand_heap_heap_lock
                0x0000000000428010      0x100 0x10 /usr/local/popcorn/x86_64/lib/libc.a(popcorn_malloc.o)
 .bss.src_malloc_popcorn_malloc_c_expand_heap_end
                0x0000000000428110      0x100 0x10 /usr/local/popcorn/x86_64/lib/libc.a(popcorn_malloc.o)
 .bss           0x0000000000428210        0x0 0x4 /usr/local/popcorn/x86_64/lib/libc.a(getrlimit.o)
 .bss           0x0000000000428210        0x0 0x4 /usr/local/popcorn/x86_64/lib/libc.a(syscall.o)
 .bss           0x0000000000428210        0x0 0x4 /usr/local/popcorn/x86_64/lib/libc.a(madvise.o)
 .bss           0x0000000000428210        0x0 0x4 /usr/local/popcorn/x86_64/lib/libc.a(mremap.o)
 .bss           0x0000000000428210        0x0 0x4 /usr/local/popcorn/x86_64/lib/libc.a(sigaction.o)
 .bss.src_signal_sigaction_c_handler_set
                0x0000000000428210        0x8 0x8 /usr/local/popcorn/x86_64/lib/libc.a(sigaction.o)
 .bss.src_signal_sigaction_c_unmask_done
                0x0000000000428218        0x1 0x1 /usr/local/popcorn/x86_64/lib/libc.a(sigaction.o)
 .bss           0x000000000042821c        0x0 0x4 /usr/local/popcorn/x86_64/lib/libc.a(sigemptyset.o)
 .bss           0x000000000042821c        0x0 0x4 /usr/local/popcorn/x86_64/lib/libc.a(sigrtmin.o)
 .bss           0x000000000042821c        0x0 0x4 /usr/local/popcorn/x86_64/lib/libc.a(restore.o)
 .bss           0x000000000042821c        0x0 0x4 /usr/local/popcorn/x86_64/lib/libc.a(fclose.o)
 .bss           0x000000000042821c        0x0 0x4 /usr/local/popcorn/x86_64/lib/libc.a(fflush.o)
 .bss.src_stdio_fflush_c_dummy
                0x0000000000428220        0x8 0x8 /usr/local/popcorn/x86_64/lib/libc.a(fflush.o)
 .bss           0x0000000000428228        0x0 0x4 /usr/local/popcorn/x86_64/lib/libc.a(fopen.o)
 .bss           0x0000000000428228        0x0 0x4 /usr/local/popcorn/x86_64/lib/libc.a(fprintf.o)
 .bss           0x0000000000428228        0x0 0x4 /usr/local/popcorn/x86_64/lib/libc.a(fscanf.o)
 .bss           0x0000000000428228        0x0 0x4 /usr/local/popcorn/x86_64/lib/libc.a(fseek.o)
 .bss           0x0000000000428228        0x0 0x4 /usr/local/popcorn/x86_64/lib/libc.a(getc.o)
 .bss           0x0000000000428228        0x0 0x4 /usr/local/popcorn/x86_64/lib/libc.a(getline.o)
 .bss           0x0000000000428228        0x0 0x4 /usr/local/popcorn/x86_64/lib/libc.a(snprintf.o)
 .bss           0x0000000000428228        0x0 0x4 /usr/local/popcorn/x86_64/lib/libc.a(sscanf.o)
 .bss           0x0000000000428228        0x0 0x4 /usr/local/popcorn/x86_64/lib/libc.a(vfscanf.o)
 .bss           0x0000000000428228        0x0 0x4 /usr/local/popcorn/x86_64/lib/libc.a(vsnprintf.o)
 .bss           0x0000000000428228        0x0 0x4 /usr/local/popcorn/x86_64/lib/libc.a(vsscanf.o)
 .bss           0x0000000000428228        0x0 0x4 /usr/local/popcorn/x86_64/lib/libc.a(bsearch.o)
 .bss           0x0000000000428228        0x0 0x4 /usr/local/popcorn/x86_64/lib/libc.a(qsort.o)
 .bss           0x0000000000428228        0x0 0x4 /usr/local/popcorn/x86_64/lib/libc.a(strtol.o)
 .bss           0x0000000000428228        0x0 0x4 /usr/local/popcorn/x86_64/lib/libc.a(strchr.o)
 .bss           0x0000000000428228        0x0 0x4 /usr/local/popcorn/x86_64/lib/libc.a(strchrnul.o)
 .bss           0x0000000000428228        0x0 0x4 /usr/local/popcorn/x86_64/lib/libc.a(strcmp.o)
 .bss           0x0000000000428228        0x0 0x4 /usr/local/popcorn/x86_64/lib/libc.a(strncmp.o)
 .bss           0x0000000000428228        0x0 0x4 /usr/local/popcorn/x86_64/lib/libc.a(memmove.o)
 .bss           0x0000000000428228        0x0 0x4 /usr/local/popcorn/x86_64/lib/libc.a(pthread_attr_get.o)
 .bss           0x0000000000428228        0x0 0x4 /usr/local/popcorn/x86_64/lib/libc.a(pthread_getattr_np.o)
 .bss           0x0000000000428228        0x0 0x4 /usr/local/popcorn/x86_64/lib/libc.a(pthread_migrate.o)
 .bss           0x0000000000428228        0x0 0x4 /usr/local/popcorn/x86_64/lib/libc.a(pthread_self.o)
 .bss           0x0000000000428228        0x0 0x4 /usr/local/popcorn/x86_64/lib/libc.a(close.o)
 .bss           0x0000000000428228        0x0 0x4 /usr/local/popcorn/x86_64/lib/libc.a(lseek.o)
 .bss           0x0000000000428228        0x0 0x4 /usr/local/popcorn/x86_64/lib/libc.a(read.o)
 .bss           0x0000000000428228        0x0 0x4 /usr/local/popcorn/x86_64/lib/libc.a(abort.o)
 .bss           0x0000000000428228        0x0 0x4 /usr/local/popcorn/x86_64/lib/libc.a(floatscan.o)
 .bss           0x0000000000428228        0x0 0x4 /usr/local/popcorn/x86_64/lib/libc.a(intscan.o)
 .bss           0x0000000000428228        0x0 0x4 /usr/local/popcorn/x86_64/lib/libc.a(shgetc.o)
 .bss           0x0000000000428228        0x0 0x4 /usr/local/popcorn/x86_64/lib/libc.a(expand_heap.o)
 .bss.src_malloc_expand_heap_c___expand_heap_brk
                0x0000000000428228        0x8 0x8 /usr/local/popcorn/x86_64/lib/libc.a(expand_heap.o)
 .bss.src_malloc_expand_heap_c___expand_heap_mmap_step
                0x0000000000428230        0x4 0x4 /usr/local/popcorn/x86_64/lib/libc.a(expand_heap.o)
 .bss.src_malloc_expand_heap_c___expand_heap_node_node_arenas
                0x0000000000428240      0x100 0x10 /usr/local/popcorn/x86_64/lib/libc.a(expand_heap.o)
 .bss.src_malloc_expand_heap_c___expand_heap_node_node_sizes
                0x0000000000428340      0x100 0x10 /usr/local/popcorn/x86_64/lib/libc.a(expand_heap.o)
 .bss.src_malloc_expand_heap_c_arena_start
                0x0000000000428440        0x8 0x8 /usr/local/popcorn/x86_64/lib/libc.a(expand_heap.o)
 .bss.src_malloc_expand_heap_c_set_arena_start_lock
                0x0000000000428448        0x8 0x4 /usr/local/popcorn/x86_64/lib/libc.a(expand_heap.o)
 .bss           0x0000000000428450        0x0 0x4 /usr/local/popcorn/x86_64/lib/libc.a(copysignl.o)
 .bss           0x0000000000428450        0x0 0x4 /usr/local/popcorn/x86_64/lib/libc.a(scalbn.o)
 .bss           0x0000000000428450        0x0 0x4 /usr/local/popcorn/x86_64/lib/libc.a(scalbnl.o)
 .bss           0x0000000000428450        0x0 0x4 /usr/local/popcorn/x86_64/lib/libc.a(fabs.o)
 .bss           0x0000000000428450        0x0 0x4 /usr/local/popcorn/x86_64/lib/libc.a(fmodl.o)
 .bss           0x0000000000428450        0x0 0x4 /usr/local/popcorn/x86_64/lib/libc.a(mbrtowc.o)
 .bss.src_multibyte_mbrtowc_c_mbrtowc_internal_state
                0x0000000000428450        0x4 0x4 /usr/local/popcorn/x86_64/lib/libc.a(mbrtowc.o)
 .bss           0x0000000000428454        0x0 0x4 /usr/local/popcorn/x86_64/lib/libc.a(mbsinit.o)
 .bss           0x0000000000428454        0x0 0x4 /usr/local/popcorn/x86_64/lib/libc.a(raise.o)
 .bss           0x0000000000428454        0x0 0x4 /usr/local/popcorn/x86_64/lib/libc.a(__fdopen.o)
 .bss           0x0000000000428454        0x0 0x4 /usr/local/popcorn/x86_64/lib/libc.a(__fmodeflags.o)
 .bss           0x0000000000428454        0x0 0x4 /usr/local/popcorn/x86_64/lib/libc.a(__stdio_read.o)
 .bss           0x0000000000428454        0x0 0x4 /usr/local/popcorn/x86_64/lib/libc.a(__string_read.o)
 .bss           0x0000000000428454        0x0 0x4 /usr/local/popcorn/x86_64/lib/libc.a(__uflow.o)
 .bss           0x0000000000428454        0x0 0x4 /usr/local/popcorn/x86_64/lib/libc.a(getdelim.o)
 .bss           0x0000000000428454        0x0 0x4 /usr/local/popcorn/x86_64/lib/libc.a(ofl_add.o)
 .bss           0x0000000000428454        0x0 0x4 /usr/local/popcorn/x86_64/lib/libc.a(internal.o)
 .bss           0x0000000000428454        0x0 0x4 /usr/local/popcorn/x86_64/lib/libc.a(__toread.o)
 ** common      0x0000000000429000    0x20080

.debug_str      0x0000000000000000     0x3ed2
 ** merge strings
                0x0000000000000000     0x3ed2

.debug_loc      0x0000000000000000    0x15a80
 .debug_loc     0x0000000000000000        0x0 0x1 popcorn-migratemep_x86_64.o
 .debug_loc     0x0000000000000000       0x23 0x1 /usr/local/popcorn/x86_64/lib/crt1.o
 .debug_loc     0x0000000000000023      0x251 0x1 /usr/local/popcorn/x86_64/lib/libc.a(__libc_start_main.o)
 .debug_loc     0x0000000000000274       0x72 0x1 /usr/local/popcorn/x86_64/lib/libc.a(exit.o)
 .debug_loc     0x00000000000002e6        0x0 0x1 /usr/local/popcorn/x86_64/lib/libc.a(libc.o)
 .debug_loc     0x00000000000002e6       0xa1 0x1 /usr/local/popcorn/x86_64/lib/libc.a(perror.o)
 .debug_loc     0x0000000000000387       0x49 0x1 /usr/local/popcorn/x86_64/lib/libc.a(printf.o)
 .debug_loc     0x00000000000003d0        0x0 0x1 /usr/local/popcorn/x86_64/lib/libc.a(stderr.o)
 .debug_loc     0x00000000000003d0        0x0 0x1 /usr/local/popcorn/x86_64/lib/libc.a(stdout.o)
 .debug_loc     0x00000000000003d0     0x44dc 0x1 /usr/local/popcorn/x86_64/lib/libc.a(vfprintf.o)
 .debug_loc     0x00000000000048ac       0xb8 0x1 /usr/local/popcorn/x86_64/lib/libc.a(strlen.o)
 .debug_loc     0x0000000000004964       0x8f 0x1 /usr/local/popcorn/x86_64/lib/libc.a(strnlen.o)
 .debug_loc     0x00000000000049f3      0xc04 0x1 /usr/local/popcorn/x86_64/lib/libc.a(pthread_create.o)
 .debug_loc     0x00000000000055f7      0x14f 0x1 /usr/local/popcorn/x86_64/lib/libc.a(pthread_join.o)
 .debug_loc     0x0000000000005746       0x46 0x1 /usr/local/popcorn/x86_64/lib/libc.a(pthread_setcancelstate.o)
 .debug_loc     0x000000000000578c        0x0 0x1 /usr/local/popcorn/x86_64/lib/libc.a(pthread_testcancel.o)
 .debug_loc     0x000000000000578c       0xc8 0x1 /usr/local/popcorn/x86_64/lib/libc.a(vmlock.o)
 .debug_loc     0x0000000000005854        0x0 0x1 /usr/local/popcorn/x86_64/lib/libc.a(getpid.o)
 .debug_loc     0x0000000000005854        0x0 0x1 /usr/local/popcorn/x86_64/lib/libc.a(gettid.o)
 .debug_loc     0x0000000000005854       0x25 0x1 /usr/local/popcorn/x86_64/lib/libc.a(sleep.o)
 .debug_loc     0x0000000000005879        0x0 0x1 /usr/local/popcorn/x86_64/lib/libc.a(__environ.o)
 .debug_loc     0x0000000000005879      0x2b4 0x1 /usr/local/popcorn/x86_64/lib/libc.a(__init_tls.o)
 .debug_loc     0x0000000000005b2d       0x23 0x1 /usr/local/popcorn/x86_64/lib/libc.a(__errno_location.o)
 .debug_loc     0x0000000000005b50       0x5d 0x1 /usr/local/popcorn/x86_64/lib/libc.a(strerror.o)
 .debug_loc     0x0000000000005bad       0x25 0x1 /usr/local/popcorn/x86_64/lib/libc.a(_Exit.o)
 .debug_loc     0x0000000000005bd2       0x59 0x1 /usr/local/popcorn/x86_64/lib/libc.a(__lctrans.o)
 .debug_loc     0x0000000000005c2b       0x3a 0x1 /usr/local/popcorn/x86_64/lib/libc.a(__fpclassifyl.o)
 .debug_loc     0x0000000000005c65        0x0 0x1 /usr/local/popcorn/x86_64/lib/libc.a(__signbitl.o)
 .debug_loc     0x0000000000005c65       0xa6 0x1 /usr/local/popcorn/x86_64/lib/libc.a(frexpl.o)
 .debug_loc     0x0000000000005d0b      0x263 0x1 /usr/local/popcorn/x86_64/lib/libc.a(mmap.o)
 .debug_loc     0x0000000000005f6e       0xb1 0x1 /usr/local/popcorn/x86_64/lib/libc.a(mprotect.o)
 .debug_loc     0x000000000000601f       0x92 0x1 /usr/local/popcorn/x86_64/lib/libc.a(munmap.o)
 .debug_loc     0x00000000000060b1        0x0 0x1 /usr/local/popcorn/x86_64/lib/libc.a(wctomb.o)
 .debug_loc     0x00000000000060b1       0xdb 0x1 /usr/local/popcorn/x86_64/lib/libc.a(block.o)
 .debug_loc     0x000000000000618c      0x162 0x1 /usr/local/popcorn/x86_64/lib/libc.a(__lockfile.o)
 .debug_loc     0x00000000000062ee       0x80 0x1 /usr/local/popcorn/x86_64/lib/libc.a(__stdio_close.o)
 .debug_loc     0x000000000000636e       0x48 0x1 /usr/local/popcorn/x86_64/lib/libc.a(__stdio_seek.o)
 .debug_loc     0x00000000000063b6      0x1ca 0x1 /usr/local/popcorn/x86_64/lib/libc.a(__stdio_write.o)
 .debug_loc     0x0000000000006580       0xc5 0x1 /usr/local/popcorn/x86_64/lib/libc.a(__stdout_write.o)
 .debug_loc     0x0000000000006645       0x83 0x1 /usr/local/popcorn/x86_64/lib/libc.a(fputc.o)
 .debug_loc     0x00000000000066c8      0x231 0x1 /usr/local/popcorn/x86_64/lib/libc.a(fwrite.o)
 .debug_loc     0x00000000000068f9        0x0 0x1 /usr/local/popcorn/x86_64/lib/libc.a(ofl.o)
 .debug_loc     0x00000000000068f9      0x15d 0x1 /usr/local/popcorn/x86_64/lib/libc.a(memchr.o)
 .debug_loc     0x0000000000006a56       0xbd 0x1 /usr/local/popcorn/x86_64/lib/libc.a(__lock.o)
 .debug_loc     0x0000000000006b13      0x34f 0x1 /usr/local/popcorn/x86_64/lib/libc.a(__timedwait.o)
 .debug_loc     0x0000000000006e62      0x165 0x1 /usr/local/popcorn/x86_64/lib/libc.a(__wait.o)
 .debug_loc     0x0000000000006fc7      0x134 0x1 /usr/local/popcorn/x86_64/lib/libc.a(clock_gettime.o)
 .debug_loc     0x00000000000070fb       0x92 0x1 /usr/local/popcorn/x86_64/lib/libc.a(nanosleep.o)
 .debug_loc     0x000000000000718d       0x36 0x1 /usr/local/popcorn/x86_64/lib/libc.a(syscall_ret.o)
 .debug_loc     0x00000000000071c3       0x72 0x1 /usr/local/popcorn/x86_64/lib/libc.a(wcrtomb.o)
 .debug_loc     0x0000000000007235       0xe6 0x1 /usr/local/popcorn/x86_64/lib/libc.a(__overflow.o)
 .debug_loc     0x000000000000731b        0x0 0x1 /usr/local/popcorn/x86_64/lib/libc.a(__towrite.o)
 .debug_loc     0x000000000000731b       0x24 0x1 /usr/local/popcorn/x86_64/lib/libc.a(__syscall_cp.o)
 .debug_loc     0x000000000000733f       0x36 0x1 /usr/local/popcorn/x86_64/lib/libc.a(__stdio_exit.o)
 .debug_loc     0x0000000000007375      0x479 0x1 /usr/local/popcorn/x86_64/lib/libmigrate.a(migrate.o)
 .debug_loc     0x00000000000077ee       0x48 0x1 /usr/local/popcorn/x86_64/lib/libmigrate.a(trigger.o)
 .debug_loc     0x0000000000007836      0x261 0x1 /usr/local/popcorn/x86_64/lib/libmigrate.a(mapping.o)
 .debug_loc     0x0000000000007a97      0x52c 0x1 /usr/local/popcorn/x86_64/lib/libstack-transform.a(userspace.o)
 .debug_loc     0x0000000000007fc3       0xb2 0x1 /usr/local/popcorn/x86_64/lib/libstack-transform.a(init.o)
 .debug_loc     0x0000000000008075      0x827 0x1 /usr/local/popcorn/x86_64/lib/libstack-transform.a(rewrite.o)
 .debug_loc     0x000000000000889c      0x7c5 0x1 /usr/local/popcorn/x86_64/lib/libstack-transform.a(unwind.o)
 .debug_loc     0x0000000000009061      0x71b 0x1 /usr/local/popcorn/x86_64/lib/libstack-transform.a(util.o)
 .debug_loc     0x000000000000977c       0x74 0x1 /usr/local/popcorn/x86_64/lib/libstack-transform.a(properties.o)
 .debug_loc     0x00000000000097f0      0x6c5 0x1 /usr/local/popcorn/x86_64/lib/libstack-transform.a(regs.o)
 .debug_loc     0x0000000000009eb5       0xbd 0x1 /usr/local/popcorn/x86_64/lib/libstack-transform.a(properties.o)
 .debug_loc     0x0000000000009f72      0x6db 0x1 /usr/local/popcorn/x86_64/lib/libstack-transform.a(regs.o)
 .debug_loc     0x000000000000a64d       0x74 0x1 /usr/local/popcorn/x86_64/lib/libstack-transform.a(properties.o)
 .debug_loc     0x000000000000a6c1      0x4b7 0x1 /usr/local/popcorn/x86_64/lib/libstack-transform.a(regs.o)
 .debug_loc     0x000000000000ab78      0xc96 0x1 /usr/local/popcorn/x86_64/lib/libstack-transform.a(data.o)
 .debug_loc     0x000000000000b80e       0xd8 0x1 /usr/local/popcorn/x86_64/lib/libc.a(arch_crash.o)
 .debug_loc     0x000000000000b8e6       0x7c 0x1 /usr/local/popcorn/x86_64/lib/libc.a(getenv.o)
 .debug_loc     0x000000000000b962       0xd7 0x1 /usr/local/popcorn/x86_64/lib/libc.a(platform.o)
 .debug_loc     0x000000000000ba39       0xdc 0x1 /usr/local/popcorn/x86_64/lib/libc.a(assert.o)
 .debug_loc     0x000000000000bb15       0x95 0x1 /usr/local/popcorn/x86_64/lib/libc.a(open.o)
 .debug_loc     0x000000000000bbaa      0x229 0x1 /usr/local/popcorn/x86_64/lib/libc.a(calloc.o)
 .debug_loc     0x000000000000bdd3      0x197 0x1 /usr/local/popcorn/x86_64/lib/libc.a(lite_malloc.o)
 .debug_loc     0x000000000000bf6a     0x13b8 0x1 /usr/local/popcorn/x86_64/lib/libc.a(malloc.o)
 .debug_loc     0x000000000000d322     0x200a 0x1 /usr/local/popcorn/x86_64/lib/libc.a(popcorn_malloc.o)
 .debug_loc     0x000000000000f32c       0xc6 0x1 /usr/local/popcorn/x86_64/lib/libc.a(getrlimit.o)
 .debug_loc     0x000000000000f3f2      0x118 0x1 /usr/local/popcorn/x86_64/lib/libc.a(syscall.o)
 .debug_loc     0x000000000000f50a       0x25 0x1 /usr/local/popcorn/x86_64/lib/libc.a(madvise.o)
 .debug_loc     0x000000000000f52f      0x14d 0x1 /usr/local/popcorn/x86_64/lib/libc.a(mremap.o)
 .debug_loc     0x000000000000f67c      0x10f 0x1 /usr/local/popcorn/x86_64/lib/libc.a(sigaction.o)
 .debug_loc     0x000000000000f78b        0x0 0x1 /usr/local/popcorn/x86_64/lib/libc.a(sigemptyset.o)
 .debug_loc     0x000000000000f78b        0x0 0x1 /usr/local/popcorn/x86_64/lib/libc.a(sigrtmin.o)
 .debug_loc     0x000000000000f78b       0xb8 0x1 /usr/local/popcorn/x86_64/lib/libc.a(fclose.o)
 .debug_loc     0x000000000000f843       0xcb 0x1 /usr/local/popcorn/x86_64/lib/libc.a(fflush.o)
 .debug_loc     0x000000000000f90e      0x165 0x1 /usr/local/popcorn/x86_64/lib/libc.a(fopen.o)
 .debug_loc     0x000000000000fa73        0x0 0x1 /usr/local/popcorn/x86_64/lib/libc.a(fprintf.o)
 .debug_loc     0x000000000000fa73        0x0 0x1 /usr/local/popcorn/x86_64/lib/libc.a(fscanf.o)
 .debug_loc     0x000000000000fa73      0x1ac 0x1 /usr/local/popcorn/x86_64/lib/libc.a(fseek.o)
 .debug_loc     0x000000000000fc1f       0x49 0x1 /usr/local/popcorn/x86_64/lib/libc.a(getc.o)
 .debug_loc     0x000000000000fc68       0x49 0x1 /usr/local/popcorn/x86_64/lib/libc.a(getline.o)
 .debug_loc     0x000000000000fcb1        0x0 0x1 /usr/local/popcorn/x86_64/lib/libc.a(snprintf.o)
 .debug_loc     0x000000000000fcb1        0x0 0x1 /usr/local/popcorn/x86_64/lib/libc.a(sscanf.o)
 .debug_loc     0x000000000000fcb1      0xf84 0x1 /usr/local/popcorn/x86_64/lib/libc.a(vfscanf.o)
 .debug_loc     0x0000000000010c35      0x230 0x1 /usr/local/popcorn/x86_64/lib/libc.a(vsnprintf.o)
 .debug_loc     0x0000000000010e65       0xec 0x1 /usr/local/popcorn/x86_64/lib/libc.a(vsscanf.o)
 .debug_loc     0x0000000000010f51      0x191 0x1 /usr/local/popcorn/x86_64/lib/libc.a(bsearch.o)
 .debug_loc     0x00000000000110e2      0xf9b 0x1 /usr/local/popcorn/x86_64/lib/libc.a(qsort.o)
 .debug_loc     0x000000000001207d      0x181 0x1 /usr/local/popcorn/x86_64/lib/libc.a(strtol.o)
 .debug_loc     0x00000000000121fe       0x5d 0x1 /usr/local/popcorn/x86_64/lib/libc.a(strchr.o)
 .debug_loc     0x000000000001225b       0xc8 0x1 /usr/local/popcorn/x86_64/lib/libc.a(strchrnul.o)
 .debug_loc     0x0000000000012323       0x6c 0x1 /usr/local/popcorn/x86_64/lib/libc.a(strcmp.o)
 .debug_loc     0x000000000001238f       0xd5 0x1 /usr/local/popcorn/x86_64/lib/libc.a(strncmp.o)
 .debug_loc     0x0000000000012464        0x0 0x1 /usr/local/popcorn/x86_64/lib/libc.a(pthread_attr_get.o)
 .debug_loc     0x0000000000012464       0xf1 0x1 /usr/local/popcorn/x86_64/lib/libc.a(pthread_getattr_np.o)
 .debug_loc     0x0000000000012555       0x23 0x1 /usr/local/popcorn/x86_64/lib/libc.a(pthread_migrate.o)
 .debug_loc     0x0000000000012578        0x0 0x1 /usr/local/popcorn/x86_64/lib/libc.a(pthread_self.o)
 .debug_loc     0x0000000000012578       0x74 0x1 /usr/local/popcorn/x86_64/lib/libc.a(close.o)
 .debug_loc     0x00000000000125ec       0x4a 0x1 /usr/local/popcorn/x86_64/lib/libc.a(lseek.o)
 .debug_loc     0x0000000000012636       0xb7 0x1 /usr/local/popcorn/x86_64/lib/libc.a(read.o)
 .debug_loc     0x00000000000126ed        0x0 0x1 /usr/local/popcorn/x86_64/lib/libc.a(abort.o)
 .debug_loc     0x00000000000126ed     0x1666 0x1 /usr/local/popcorn/x86_64/lib/libc.a(floatscan.o)
 .debug_loc     0x0000000000013d53      0x76d 0x1 /usr/local/popcorn/x86_64/lib/libc.a(intscan.o)
 .debug_loc     0x00000000000144c0       0x83 0x1 /usr/local/popcorn/x86_64/lib/libc.a(shgetc.o)
 .debug_loc     0x0000000000014543      0x5d1 0x1 /usr/local/popcorn/x86_64/lib/libc.a(expand_heap.o)
 .debug_loc     0x0000000000014b14        0x0 0x1 /usr/local/popcorn/x86_64/lib/libc.a(copysignl.o)
 .debug_loc     0x0000000000014b14      0x148 0x1 /usr/local/popcorn/x86_64/lib/libc.a(scalbn.o)
 .debug_loc     0x0000000000014c5c       0xa3 0x1 /usr/local/popcorn/x86_64/lib/libc.a(scalbnl.o)
 .debug_loc     0x0000000000014cff      0x219 0x1 /usr/local/popcorn/x86_64/lib/libc.a(mbrtowc.o)
 .debug_loc     0x0000000000014f18        0x0 0x1 /usr/local/popcorn/x86_64/lib/libc.a(mbsinit.o)
 .debug_loc     0x0000000000014f18       0xa5 0x1 /usr/local/popcorn/x86_64/lib/libc.a(raise.o)
 .debug_loc     0x0000000000014fbd      0x18d 0x1 /usr/local/popcorn/x86_64/lib/libc.a(__fdopen.o)
 .debug_loc     0x000000000001514a       0xaf 0x1 /usr/local/popcorn/x86_64/lib/libc.a(__fmodeflags.o)
 .debug_loc     0x00000000000151f9      0x147 0x1 /usr/local/popcorn/x86_64/lib/libc.a(__stdio_read.o)
 .debug_loc     0x0000000000015340      0x144 0x1 /usr/local/popcorn/x86_64/lib/libc.a(__string_read.o)
 .debug_loc     0x0000000000015484       0x5a 0x1 /usr/local/popcorn/x86_64/lib/libc.a(__uflow.o)
 .debug_loc     0x00000000000154de      0x513 0x1 /usr/local/popcorn/x86_64/lib/libc.a(getdelim.o)
 .debug_loc     0x00000000000159f1       0x59 0x1 /usr/local/popcorn/x86_64/lib/libc.a(ofl_add.o)
 .debug_loc     0x0000000000015a4a        0x0 0x1 /usr/local/popcorn/x86_64/lib/libc.a(internal.o)
 .debug_loc     0x0000000000015a4a       0x36 0x1 /usr/local/popcorn/x86_64/lib/libc.a(__toread.o)

.debug_abbrev   0x0000000000000000     0x880c
 .debug_abbrev  0x0000000000000000       0x8b 0x1 popcorn-migratemep_x86_64.o
 .debug_abbrev  0x000000000000008b       0x67 0x1 /usr/local/popcorn/x86_64/lib/crt1.o
 .debug_abbrev  0x00000000000000f2      0x1c0 0x1 /usr/local/popcorn/x86_64/lib/libc.a(__libc_start_main.o)
 .debug_abbrev  0x00000000000002b2       0xa9 0x1 /usr/local/popcorn/x86_64/lib/libc.a(exit.o)
 .debug_abbrev  0x000000000000035b       0x96 0x1 /usr/local/popcorn/x86_64/lib/libc.a(libc.o)
 .debug_abbrev  0x00000000000003f1       0xdf 0x1 /usr/local/popcorn/x86_64/lib/libc.a(perror.o)
 .debug_abbrev  0x00000000000004d0       0xc0 0x1 /usr/local/popcorn/x86_64/lib/libc.a(printf.o)
 .debug_abbrev  0x0000000000000590       0xc2 0x1 /usr/local/popcorn/x86_64/lib/libc.a(stderr.o)
 .debug_abbrev  0x0000000000000652       0xcb 0x1 /usr/local/popcorn/x86_64/lib/libc.a(stdout.o)
 .debug_abbrev  0x000000000000071d      0x2be 0x1 /usr/local/popcorn/x86_64/lib/libc.a(vfprintf.o)
 .debug_abbrev  0x00000000000009db       0x8c 0x1 /usr/local/popcorn/x86_64/lib/libc.a(strlen.o)
 .debug_abbrev  0x0000000000000a67       0x78 0x1 /usr/local/popcorn/x86_64/lib/libc.a(strnlen.o)
 .debug_abbrev  0x0000000000000adf       0x28 0x1 /usr/local/popcorn/x86_64/lib/libc.a(memset.o)
 .debug_abbrev  0x0000000000000b07      0x2bd 0x1 /usr/local/popcorn/x86_64/lib/libc.a(pthread_create.o)
 .debug_abbrev  0x0000000000000dc4      0x1a9 0x1 /usr/local/popcorn/x86_64/lib/libc.a(pthread_join.o)
 .debug_abbrev  0x0000000000000f6d      0x14b 0x1 /usr/local/popcorn/x86_64/lib/libc.a(pthread_setcancelstate.o)
 .debug_abbrev  0x00000000000010b8       0x47 0x1 /usr/local/popcorn/x86_64/lib/libc.a(pthread_testcancel.o)
 .debug_abbrev  0x00000000000010ff      0x10b 0x1 /usr/local/popcorn/x86_64/lib/libc.a(vmlock.o)
 .debug_abbrev  0x000000000000120a       0x28 0x1 /usr/local/popcorn/x86_64/lib/libc.a(__cleartid_exit_nostack.o)
 .debug_abbrev  0x0000000000001232       0x28 0x1 /usr/local/popcorn/x86_64/lib/libc.a(__unmapself.o)
 .debug_abbrev  0x000000000000125a       0x28 0x1 /usr/local/popcorn/x86_64/lib/libc.a(clone.o)
 .debug_abbrev  0x0000000000001282       0x9b 0x1 /usr/local/popcorn/x86_64/lib/libc.a(getpid.o)
 .debug_abbrev  0x000000000000131d       0x9b 0x1 /usr/local/popcorn/x86_64/lib/libc.a(gettid.o)
 .debug_abbrev  0x00000000000013b8       0x86 0x1 /usr/local/popcorn/x86_64/lib/libc.a(sleep.o)
 .debug_abbrev  0x000000000000143e       0x36 0x1 /usr/local/popcorn/x86_64/lib/libc.a(__environ.o)
 .debug_abbrev  0x0000000000001474      0x1cd 0x1 /usr/local/popcorn/x86_64/lib/libc.a(__init_tls.o)
 .debug_abbrev  0x0000000000001641      0x12d 0x1 /usr/local/popcorn/x86_64/lib/libc.a(__errno_location.o)
 .debug_abbrev  0x000000000000176e      0x17d 0x1 /usr/local/popcorn/x86_64/lib/libc.a(strerror.o)
 .debug_abbrev  0x00000000000018eb       0x92 0x1 /usr/local/popcorn/x86_64/lib/libc.a(_Exit.o)
 .debug_abbrev  0x000000000000197d      0x162 0x1 /usr/local/popcorn/x86_64/lib/libc.a(__lctrans.o)
 .debug_abbrev  0x0000000000001adf       0xad 0x1 /usr/local/popcorn/x86_64/lib/libc.a(__fpclassifyl.o)
 .debug_abbrev  0x0000000000001b8c       0x91 0x1 /usr/local/popcorn/x86_64/lib/libc.a(__signbitl.o)
 .debug_abbrev  0x0000000000001c1d       0xa5 0x1 /usr/local/popcorn/x86_64/lib/libc.a(frexpl.o)
 .debug_abbrev  0x0000000000001cc2       0xd7 0x1 /usr/local/popcorn/x86_64/lib/libc.a(mmap.o)
 .debug_abbrev  0x0000000000001d99       0xc5 0x1 /usr/local/popcorn/x86_64/lib/libc.a(mprotect.o)
 .debug_abbrev  0x0000000000001e5e       0xc8 0x1 /usr/local/popcorn/x86_64/lib/libc.a(munmap.o)
 .debug_abbrev  0x0000000000001f26       0x62 0x1 /usr/local/popcorn/x86_64/lib/libc.a(wctomb.o)
 .debug_abbrev  0x0000000000001f88       0xda 0x1 /usr/local/popcorn/x86_64/lib/libc.a(block.o)
 .debug_abbrev  0x0000000000002062      0x1c1 0x1 /usr/local/popcorn/x86_64/lib/libc.a(__lockfile.o)
 .debug_abbrev  0x0000000000002223      0x13c 0x1 /usr/local/popcorn/x86_64/lib/libc.a(__stdio_close.o)
 .debug_abbrev  0x000000000000235f      0x130 0x1 /usr/local/popcorn/x86_64/lib/libc.a(__stdio_seek.o)
 .debug_abbrev  0x000000000000248f      0x168 0x1 /usr/local/popcorn/x86_64/lib/libc.a(__stdio_write.o)
 .debug_abbrev  0x00000000000025f7      0x121 0x1 /usr/local/popcorn/x86_64/lib/libc.a(__stdout_write.o)
 .debug_abbrev  0x0000000000002718       0xd2 0x1 /usr/local/popcorn/x86_64/lib/libc.a(fputc.o)
 .debug_abbrev  0x00000000000027ea      0x112 0x1 /usr/local/popcorn/x86_64/lib/libc.a(fwrite.o)
 .debug_abbrev  0x00000000000028fc       0xed 0x1 /usr/local/popcorn/x86_64/lib/libc.a(ofl.o)
 .debug_abbrev  0x00000000000029e9       0x8b 0x1 /usr/local/popcorn/x86_64/lib/libc.a(memchr.o)
 .debug_abbrev  0x0000000000002a74       0x28 0x1 /usr/local/popcorn/x86_64/lib/libc.a(memcpy.o)
 .debug_abbrev  0x0000000000002a9c       0xee 0x1 /usr/local/popcorn/x86_64/lib/libc.a(__lock.o)
 .debug_abbrev  0x0000000000002b8a       0xaa 0x1 /usr/local/popcorn/x86_64/lib/libc.a(__timedwait.o)
 .debug_abbrev  0x0000000000002c34      0x120 0x1 /usr/local/popcorn/x86_64/lib/libc.a(__wait.o)
 .debug_abbrev  0x0000000000002d54       0x28 0x1 /usr/local/popcorn/x86_64/lib/libc.a(__set_thread_area.o)
 .debug_abbrev  0x0000000000002d7c       0xee 0x1 /usr/local/popcorn/x86_64/lib/libc.a(clock_gettime.o)
 .debug_abbrev  0x0000000000002e6a       0x85 0x1 /usr/local/popcorn/x86_64/lib/libc.a(nanosleep.o)
 .debug_abbrev  0x0000000000002eef       0x4e 0x1 /usr/local/popcorn/x86_64/lib/libc.a(syscall_ret.o)
 .debug_abbrev  0x0000000000002f3d      0x16a 0x1 /usr/local/popcorn/x86_64/lib/libc.a(wcrtomb.o)
 .debug_abbrev  0x00000000000030a7       0xe1 0x1 /usr/local/popcorn/x86_64/lib/libc.a(__overflow.o)
 .debug_abbrev  0x0000000000003188       0xeb 0x1 /usr/local/popcorn/x86_64/lib/libc.a(__towrite.o)
 .debug_abbrev  0x0000000000003273       0x85 0x1 /usr/local/popcorn/x86_64/lib/libc.a(__syscall_cp.o)
 .debug_abbrev  0x00000000000032f8       0x28 0x1 /usr/local/popcorn/x86_64/lib/libc.a(syscall.o)
 .debug_abbrev  0x0000000000003320      0x105 0x1 /usr/local/popcorn/x86_64/lib/libc.a(__stdio_exit.o)
 .debug_abbrev  0x0000000000003425      0x215 0x1 /usr/local/popcorn/x86_64/lib/libmigrate.a(migrate.o)
 .debug_abbrev  0x000000000000363a      0x13b 0x1 /usr/local/popcorn/x86_64/lib/libmigrate.a(trigger.o)
 .debug_abbrev  0x0000000000003775      0x129 0x1 /usr/local/popcorn/x86_64/lib/libmigrate.a(mapping.o)
 .debug_abbrev  0x000000000000389e      0x25c 0x1 /usr/local/popcorn/x86_64/lib/libstack-transform.a(userspace.o)
 .debug_abbrev  0x0000000000003afa      0x172 0x1 /usr/local/popcorn/x86_64/lib/libstack-transform.a(init.o)
 .debug_abbrev  0x0000000000003c6c      0x29c 0x1 /usr/local/popcorn/x86_64/lib/libstack-transform.a(rewrite.o)
 .debug_abbrev  0x0000000000003f08      0x205 0x1 /usr/local/popcorn/x86_64/lib/libstack-transform.a(unwind.o)
 .debug_abbrev  0x000000000000410d      0x1a0 0x1 /usr/local/popcorn/x86_64/lib/libstack-transform.a(util.o)
 .debug_abbrev  0x00000000000042ad       0xe2 0x1 /usr/local/popcorn/x86_64/lib/libstack-transform.a(properties.o)
 .debug_abbrev  0x000000000000438f      0x12a 0x1 /usr/local/popcorn/x86_64/lib/libstack-transform.a(regs.o)
 .debug_abbrev  0x00000000000044b9       0xf1 0x1 /usr/local/popcorn/x86_64/lib/libstack-transform.a(properties.o)
 .debug_abbrev  0x00000000000045aa      0x12a 0x1 /usr/local/popcorn/x86_64/lib/libstack-transform.a(regs.o)
 .debug_abbrev  0x00000000000046d4       0xe2 0x1 /usr/local/popcorn/x86_64/lib/libstack-transform.a(properties.o)
 .debug_abbrev  0x00000000000047b6      0x12a 0x1 /usr/local/popcorn/x86_64/lib/libstack-transform.a(regs.o)
 .debug_abbrev  0x00000000000048e0      0x267 0x1 /usr/local/popcorn/x86_64/lib/libstack-transform.a(data.o)
 .debug_abbrev  0x0000000000004b47       0xb1 0x1 /usr/local/popcorn/x86_64/lib/libc.a(arch_crash.o)
 .debug_abbrev  0x0000000000004bf8       0x81 0x1 /usr/local/popcorn/x86_64/lib/libc.a(getenv.o)
 .debug_abbrev  0x0000000000004c79      0x118 0x1 /usr/local/popcorn/x86_64/lib/libc.a(platform.o)
 .debug_abbrev  0x0000000000004d91       0x5a 0x1 /usr/local/popcorn/x86_64/lib/libc.a(assert.o)
 .debug_abbrev  0x0000000000004deb      0x12f 0x1 /usr/local/popcorn/x86_64/lib/libc.a(open.o)
 .debug_abbrev  0x0000000000004f1a       0xab 0x1 /usr/local/popcorn/x86_64/lib/libc.a(calloc.o)
 .debug_abbrev  0x0000000000004fc5       0xac 0x1 /usr/local/popcorn/x86_64/lib/libc.a(lite_malloc.o)
 .debug_abbrev  0x0000000000005071      0x29b 0x1 /usr/local/popcorn/x86_64/lib/libc.a(malloc.o)
 .debug_abbrev  0x000000000000530c      0x256 0x1 /usr/local/popcorn/x86_64/lib/libc.a(popcorn_malloc.o)
 .debug_abbrev  0x0000000000005562      0x106 0x1 /usr/local/popcorn/x86_64/lib/libc.a(getrlimit.o)
 .debug_abbrev  0x0000000000005668      0x11b 0x1 /usr/local/popcorn/x86_64/lib/libc.a(syscall.o)
 .debug_abbrev  0x0000000000005783       0xbe 0x1 /usr/local/popcorn/x86_64/lib/libc.a(madvise.o)
 .debug_abbrev  0x0000000000005841      0x113 0x1 /usr/local/popcorn/x86_64/lib/libc.a(mremap.o)
 .debug_abbrev  0x0000000000005954      0x1db 0x1 /usr/local/popcorn/x86_64/lib/libc.a(sigaction.o)
 .debug_abbrev  0x0000000000005b2f       0x99 0x1 /usr/local/popcorn/x86_64/lib/libc.a(sigemptyset.o)
 .debug_abbrev  0x0000000000005bc8       0x3d 0x1 /usr/local/popcorn/x86_64/lib/libc.a(sigrtmin.o)
 .debug_abbrev  0x0000000000005c05       0x28 0x1 /usr/local/popcorn/x86_64/lib/libc.a(restore.o)
 .debug_abbrev  0x0000000000005c2d      0x11f 0x1 /usr/local/popcorn/x86_64/lib/libc.a(fclose.o)
 .debug_abbrev  0x0000000000005d4c       0xf9 0x1 /usr/local/popcorn/x86_64/lib/libc.a(fflush.o)
 .debug_abbrev  0x0000000000005e45      0x149 0x1 /usr/local/popcorn/x86_64/lib/libc.a(fopen.o)
 .debug_abbrev  0x0000000000005f8e       0xd6 0x1 /usr/local/popcorn/x86_64/lib/libc.a(fprintf.o)
 .debug_abbrev  0x0000000000006064       0xd6 0x1 /usr/local/popcorn/x86_64/lib/libc.a(fscanf.o)
 .debug_abbrev  0x000000000000613a       0xfd 0x1 /usr/local/popcorn/x86_64/lib/libc.a(fseek.o)
 .debug_abbrev  0x0000000000006237       0xdf 0x1 /usr/local/popcorn/x86_64/lib/libc.a(getc.o)
 .debug_abbrev  0x0000000000006316       0x8e 0x1 /usr/local/popcorn/x86_64/lib/libc.a(getline.o)
 .debug_abbrev  0x00000000000063a4       0xc0 0x1 /usr/local/popcorn/x86_64/lib/libc.a(snprintf.o)
 .debug_abbrev  0x0000000000006464       0xc0 0x1 /usr/local/popcorn/x86_64/lib/libc.a(sscanf.o)
 .debug_abbrev  0x0000000000006524      0x1e4 0x1 /usr/local/popcorn/x86_64/lib/libc.a(vfscanf.o)
 .debug_abbrev  0x0000000000006708      0x13c 0x1 /usr/local/popcorn/x86_64/lib/libc.a(vsnprintf.o)
 .debug_abbrev  0x0000000000006844      0x12f 0x1 /usr/local/popcorn/x86_64/lib/libc.a(vsscanf.o)
 .debug_abbrev  0x0000000000006973       0x8b 0x1 /usr/local/popcorn/x86_64/lib/libc.a(bsearch.o)
 .debug_abbrev  0x00000000000069fe      0x1a6 0x1 /usr/local/popcorn/x86_64/lib/libc.a(qsort.o)
 .debug_abbrev  0x0000000000006ba4      0x166 0x1 /usr/local/popcorn/x86_64/lib/libc.a(strtol.o)
 .debug_abbrev  0x0000000000006d0a       0x7a 0x1 /usr/local/popcorn/x86_64/lib/libc.a(strchr.o)
 .debug_abbrev  0x0000000000006d84       0x8c 0x1 /usr/local/popcorn/x86_64/lib/libc.a(strchrnul.o)
 .debug_abbrev  0x0000000000006e10       0x5c 0x1 /usr/local/popcorn/x86_64/lib/libc.a(strcmp.o)
 .debug_abbrev  0x0000000000006e6c       0x7d 0x1 /usr/local/popcorn/x86_64/lib/libc.a(strncmp.o)
 .debug_abbrev  0x0000000000006ee9       0x28 0x1 /usr/local/popcorn/x86_64/lib/libc.a(memmove.o)
 .debug_abbrev  0x0000000000006f11       0xfd 0x1 /usr/local/popcorn/x86_64/lib/libc.a(pthread_attr_get.o)
 .debug_abbrev  0x000000000000700e      0x128 0x1 /usr/local/popcorn/x86_64/lib/libc.a(pthread_getattr_np.o)
 .debug_abbrev  0x0000000000007136      0x15e 0x1 /usr/local/popcorn/x86_64/lib/libc.a(pthread_migrate.o)
 .debug_abbrev  0x0000000000007294      0x129 0x1 /usr/local/popcorn/x86_64/lib/libc.a(pthread_self.o)
 .debug_abbrev  0x00000000000073bd       0x78 0x1 /usr/local/popcorn/x86_64/lib/libc.a(close.o)
 .debug_abbrev  0x0000000000007435       0xb9 0x1 /usr/local/popcorn/x86_64/lib/libc.a(lseek.o)
 .debug_abbrev  0x00000000000074ee       0x60 0x1 /usr/local/popcorn/x86_64/lib/libc.a(read.o)
 .debug_abbrev  0x000000000000754e       0x51 0x1 /usr/local/popcorn/x86_64/lib/libc.a(abort.o)
 .debug_abbrev  0x000000000000759f      0x1fa 0x1 /usr/local/popcorn/x86_64/lib/libc.a(floatscan.o)
 .debug_abbrev  0x0000000000007799      0x12e 0x1 /usr/local/popcorn/x86_64/lib/libc.a(intscan.o)
 .debug_abbrev  0x00000000000078c7      0x10b 0x1 /usr/local/popcorn/x86_64/lib/libc.a(shgetc.o)
 .debug_abbrev  0x00000000000079d2      0x14a 0x1 /usr/local/popcorn/x86_64/lib/libc.a(expand_heap.o)
 .debug_abbrev  0x0000000000007b1c       0x91 0x1 /usr/local/popcorn/x86_64/lib/libc.a(copysignl.o)
 .debug_abbrev  0x0000000000007bad       0x93 0x1 /usr/local/popcorn/x86_64/lib/libc.a(scalbn.o)
 .debug_abbrev  0x0000000000007c40       0xa0 0x1 /usr/local/popcorn/x86_64/lib/libc.a(scalbnl.o)
 .debug_abbrev  0x0000000000007ce0       0x28 0x1 /usr/local/popcorn/x86_64/lib/libc.a(fabs.o)
 .debug_abbrev  0x0000000000007d08       0x28 0x1 /usr/local/popcorn/x86_64/lib/libc.a(fmodl.o)
 .debug_abbrev  0x0000000000007d30      0x179 0x1 /usr/local/popcorn/x86_64/lib/libc.a(mbrtowc.o)
 .debug_abbrev  0x0000000000007ea9       0x85 0x1 /usr/local/popcorn/x86_64/lib/libc.a(mbsinit.o)
 .debug_abbrev  0x0000000000007f2e       0xf0 0x1 /usr/local/popcorn/x86_64/lib/libc.a(raise.o)
 .debug_abbrev  0x000000000000801e      0x14b 0x1 /usr/local/popcorn/x86_64/lib/libc.a(__fdopen.o)
 .debug_abbrev  0x0000000000008169       0x6b 0x1 /usr/local/popcorn/x86_64/lib/libc.a(__fmodeflags.o)
 .debug_abbrev  0x00000000000081d4      0x15b 0x1 /usr/local/popcorn/x86_64/lib/libc.a(__stdio_read.o)
 .debug_abbrev  0x000000000000832f       0xe1 0x1 /usr/local/popcorn/x86_64/lib/libc.a(__string_read.o)
 .debug_abbrev  0x0000000000008410       0xe1 0x1 /usr/local/popcorn/x86_64/lib/libc.a(__uflow.o)
 .debug_abbrev  0x00000000000084f1       0xf1 0x1 /usr/local/popcorn/x86_64/lib/libc.a(getdelim.o)
 .debug_abbrev  0x00000000000085e2       0xe1 0x1 /usr/local/popcorn/x86_64/lib/libc.a(ofl_add.o)
 .debug_abbrev  0x00000000000086c3       0x5e 0x1 /usr/local/popcorn/x86_64/lib/libc.a(internal.o)
 .debug_abbrev  0x0000000000008721       0xeb 0x1 /usr/local/popcorn/x86_64/lib/libc.a(__toread.o)

.debug_info     0x0000000000000000    0x1d7ea
 .debug_info    0x0000000000000000       0xcb 0x1 popcorn-migratemep_x86_64.o
 .debug_info    0x00000000000000cb       0x91 0x1 /usr/local/popcorn/x86_64/lib/crt1.o
 .debug_info    0x000000000000015c      0x30b 0x1 /usr/local/popcorn/x86_64/lib/libc.a(__libc_start_main.o)
 .debug_info    0x0000000000000467       0xb0 0x1 /usr/local/popcorn/x86_64/lib/libc.a(exit.o)
 .debug_info    0x0000000000000517      0x1d7 0x1 /usr/local/popcorn/x86_64/lib/libc.a(libc.o)
 .debug_info    0x00000000000006ee      0x334 0x1 /usr/local/popcorn/x86_64/lib/libc.a(perror.o)
 .debug_info    0x0000000000000a22      0x105 0x1 /usr/local/popcorn/x86_64/lib/libc.a(printf.o)
 .debug_info    0x0000000000000b27      0x336 0x1 /usr/local/popcorn/x86_64/lib/libc.a(stderr.o)
 .debug_info    0x0000000000000e5d      0x337 0x1 /usr/local/popcorn/x86_64/lib/libc.a(stdout.o)
 .debug_info    0x0000000000001194     0x111f 0x1 /usr/local/popcorn/x86_64/lib/libc.a(vfprintf.o)
 .debug_info    0x00000000000022b3       0xae 0x1 /usr/local/popcorn/x86_64/lib/libc.a(strlen.o)
 .debug_info    0x0000000000002361       0x95 0x1 /usr/local/popcorn/x86_64/lib/libc.a(strnlen.o)
 .debug_info    0x00000000000023f6       0xa2 0x1 /usr/local/popcorn/x86_64/lib/libc.a(memset.o)
 .debug_info    0x0000000000002498      0xf98 0x1 /usr/local/popcorn/x86_64/lib/libc.a(pthread_create.o)
 .debug_info    0x0000000000003430      0x4dd 0x1 /usr/local/popcorn/x86_64/lib/libc.a(pthread_join.o)
 .debug_info    0x000000000000390d      0x3d2 0x1 /usr/local/popcorn/x86_64/lib/libc.a(pthread_setcancelstate.o)
 .debug_info    0x0000000000003cdf       0x55 0x1 /usr/local/popcorn/x86_64/lib/libc.a(pthread_testcancel.o)
 .debug_info    0x0000000000003d34      0x22e 0x1 /usr/local/popcorn/x86_64/lib/libc.a(vmlock.o)
 .debug_info    0x0000000000003f62       0xc3 0x1 /usr/local/popcorn/x86_64/lib/libc.a(__cleartid_exit_nostack.o)
 .debug_info    0x0000000000004025       0xab 0x1 /usr/local/popcorn/x86_64/lib/libc.a(__unmapself.o)
 .debug_info    0x00000000000040d0       0xa1 0x1 /usr/local/popcorn/x86_64/lib/libc.a(clone.o)
 .debug_info    0x0000000000004171       0xaa 0x1 /usr/local/popcorn/x86_64/lib/libc.a(getpid.o)
 .debug_info    0x000000000000421b       0xab 0x1 /usr/local/popcorn/x86_64/lib/libc.a(gettid.o)
 .debug_info    0x00000000000042c6       0x9f 0x1 /usr/local/popcorn/x86_64/lib/libc.a(sleep.o)
 .debug_info    0x0000000000004365       0x45 0x1 /usr/local/popcorn/x86_64/lib/libc.a(__environ.o)
 .debug_info    0x00000000000043aa      0x763 0x1 /usr/local/popcorn/x86_64/lib/libc.a(__init_tls.o)
 .debug_info    0x0000000000004b0d      0x3a7 0x1 /usr/local/popcorn/x86_64/lib/libc.a(__errno_location.o)
 .debug_info    0x0000000000004eb4      0x498 0x1 /usr/local/popcorn/x86_64/lib/libc.a(strerror.o)
 .debug_info    0x000000000000534c       0xc7 0x1 /usr/local/popcorn/x86_64/lib/libc.a(_Exit.o)
 .debug_info    0x0000000000005413      0x469 0x1 /usr/local/popcorn/x86_64/lib/libc.a(__lctrans.o)
 .debug_info    0x000000000000587c       0xed 0x1 /usr/local/popcorn/x86_64/lib/libc.a(__fpclassifyl.o)
 .debug_info    0x0000000000005969       0xd3 0x1 /usr/local/popcorn/x86_64/lib/libc.a(__signbitl.o)
 .debug_info    0x0000000000005a3c       0xf2 0x1 /usr/local/popcorn/x86_64/lib/libc.a(frexpl.o)
 .debug_info    0x0000000000005b2e      0x195 0x1 /usr/local/popcorn/x86_64/lib/libc.a(mmap.o)
 .debug_info    0x0000000000005cc3      0x122 0x1 /usr/local/popcorn/x86_64/lib/libc.a(mprotect.o)
 .debug_info    0x0000000000005de5       0xf3 0x1 /usr/local/popcorn/x86_64/lib/libc.a(munmap.o)
 .debug_info    0x0000000000005ed8       0x7f 0x1 /usr/local/popcorn/x86_64/lib/libc.a(wctomb.o)
 .debug_info    0x0000000000005f57      0x1c9 0x1 /usr/local/popcorn/x86_64/lib/libc.a(block.o)
 .debug_info    0x0000000000006120      0x783 0x1 /usr/local/popcorn/x86_64/lib/libc.a(__lockfile.o)
 .debug_info    0x00000000000068a3      0x37b 0x1 /usr/local/popcorn/x86_64/lib/libc.a(__stdio_close.o)
 .debug_info    0x0000000000006c1e      0x38d 0x1 /usr/local/popcorn/x86_64/lib/libc.a(__stdio_seek.o)
 .debug_info    0x0000000000006fab      0x405 0x1 /usr/local/popcorn/x86_64/lib/libc.a(__stdio_write.o)
 .debug_info    0x00000000000073b0      0x3d9 0x1 /usr/local/popcorn/x86_64/lib/libc.a(__stdout_write.o)
 .debug_info    0x0000000000007789      0x310 0x1 /usr/local/popcorn/x86_64/lib/libc.a(fputc.o)
 .debug_info    0x0000000000007a99      0x3dc 0x1 /usr/local/popcorn/x86_64/lib/libc.a(fwrite.o)
 .debug_info    0x0000000000007e75      0x341 0x1 /usr/local/popcorn/x86_64/lib/libc.a(ofl.o)
 .debug_info    0x00000000000081b6       0xf3 0x1 /usr/local/popcorn/x86_64/lib/libc.a(memchr.o)
 .debug_info    0x00000000000082a9       0xc2 0x1 /usr/local/popcorn/x86_64/lib/libc.a(memcpy.o)
 .debug_info    0x000000000000836b      0x1e9 0x1 /usr/local/popcorn/x86_64/lib/libc.a(__lock.o)
 .debug_info    0x0000000000008554      0x1a1 0x1 /usr/local/popcorn/x86_64/lib/libc.a(__timedwait.o)
 .debug_info    0x00000000000086f5      0x1d5 0x1 /usr/local/popcorn/x86_64/lib/libc.a(__wait.o)
 .debug_info    0x00000000000088ca       0xb7 0x1 /usr/local/popcorn/x86_64/lib/libc.a(__set_thread_area.o)
 .debug_info    0x0000000000008981      0x165 0x1 /usr/local/popcorn/x86_64/lib/libc.a(clock_gettime.o)
 .debug_info    0x0000000000008ae6       0xaf 0x1 /usr/local/popcorn/x86_64/lib/libc.a(nanosleep.o)
 .debug_info    0x0000000000008b95       0x62 0x1 /usr/local/popcorn/x86_64/lib/libc.a(syscall_ret.o)
 .debug_info    0x0000000000008bf7      0x462 0x1 /usr/local/popcorn/x86_64/lib/libc.a(wcrtomb.o)
 .debug_info    0x0000000000009059      0x31f 0x1 /usr/local/popcorn/x86_64/lib/libc.a(__overflow.o)
 .debug_info    0x0000000000009378      0x314 0x1 /usr/local/popcorn/x86_64/lib/libc.a(__towrite.o)
 .debug_info    0x000000000000968c      0x12a 0x1 /usr/local/popcorn/x86_64/lib/libc.a(__syscall_cp.o)
 .debug_info    0x00000000000097b6       0xa5 0x1 /usr/local/popcorn/x86_64/lib/libc.a(syscall.o)
 .debug_info    0x000000000000985b      0x338 0x1 /usr/local/popcorn/x86_64/lib/libc.a(__stdio_exit.o)
 .debug_info    0x0000000000009b93      0x42e 0x1 /usr/local/popcorn/x86_64/lib/libmigrate.a(migrate.o)
 .debug_info    0x0000000000009fc1      0x3de 0x1 /usr/local/popcorn/x86_64/lib/libmigrate.a(trigger.o)
 .debug_info    0x000000000000a39f      0x2a6 0x1 /usr/local/popcorn/x86_64/lib/libmigrate.a(mapping.o)
 .debug_info    0x000000000000a645      0xce3 0x1 /usr/local/popcorn/x86_64/lib/libstack-transform.a(userspace.o)
 .debug_info    0x000000000000b328      0x868 0x1 /usr/local/popcorn/x86_64/lib/libstack-transform.a(init.o)
 .debug_info    0x000000000000bb90      0xeb9 0x1 /usr/local/popcorn/x86_64/lib/libstack-transform.a(rewrite.o)
 .debug_info    0x000000000000ca49      0xd3c 0x1 /usr/local/popcorn/x86_64/lib/libstack-transform.a(unwind.o)
 .debug_info    0x000000000000d785      0xc2a 0x1 /usr/local/popcorn/x86_64/lib/libstack-transform.a(util.o)
 .debug_info    0x000000000000e3af      0x1f1 0x1 /usr/local/popcorn/x86_64/lib/libstack-transform.a(properties.o)
 .debug_info    0x000000000000e5a0      0x61c 0x1 /usr/local/popcorn/x86_64/lib/libstack-transform.a(regs.o)
 .debug_info    0x000000000000ebbc      0x20c 0x1 /usr/local/popcorn/x86_64/lib/libstack-transform.a(properties.o)
 .debug_info    0x000000000000edc8      0x613 0x1 /usr/local/popcorn/x86_64/lib/libstack-transform.a(regs.o)
 .debug_info    0x000000000000f3db      0x1f1 0x1 /usr/local/popcorn/x86_64/lib/libstack-transform.a(properties.o)
 .debug_info    0x000000000000f5cc      0x74c 0x1 /usr/local/popcorn/x86_64/lib/libstack-transform.a(regs.o)
 .debug_info    0x000000000000fd18      0xf03 0x1 /usr/local/popcorn/x86_64/lib/libstack-transform.a(data.o)
 .debug_info    0x0000000000010c1b      0x1c4 0x1 /usr/local/popcorn/x86_64/lib/libc.a(arch_crash.o)
 .debug_info    0x0000000000010ddf       0xad 0x1 /usr/local/popcorn/x86_64/lib/libc.a(getenv.o)
 .debug_info    0x0000000000010e8c      0x252 0x1 /usr/local/popcorn/x86_64/lib/libc.a(platform.o)
 .debug_info    0x00000000000110de       0x95 0x1 /usr/local/popcorn/x86_64/lib/libc.a(assert.o)
 .debug_info    0x0000000000011173      0x1b3 0x1 /usr/local/popcorn/x86_64/lib/libc.a(open.o)
 .debug_info    0x0000000000011326      0x138 0x1 /usr/local/popcorn/x86_64/lib/libc.a(calloc.o)
 .debug_info    0x000000000001145e      0x12d 0x1 /usr/local/popcorn/x86_64/lib/libc.a(lite_malloc.o)
 .debug_info    0x000000000001158b     0x14c0 0x1 /usr/local/popcorn/x86_64/lib/libc.a(malloc.o)
 .debug_info    0x0000000000012a4b     0x1b2b 0x1 /usr/local/popcorn/x86_64/lib/libc.a(popcorn_malloc.o)
 .debug_info    0x0000000000014576      0x1c7 0x1 /usr/local/popcorn/x86_64/lib/libc.a(getrlimit.o)
 .debug_info    0x000000000001473d      0x204 0x1 /usr/local/popcorn/x86_64/lib/libc.a(syscall.o)
 .debug_info    0x0000000000014941       0xf4 0x1 /usr/local/popcorn/x86_64/lib/libc.a(madvise.o)
 .debug_info    0x0000000000014a35      0x1d9 0x1 /usr/local/popcorn/x86_64/lib/libc.a(mremap.o)
 .debug_info    0x0000000000014c0e      0x5dd 0x1 /usr/local/popcorn/x86_64/lib/libc.a(sigaction.o)
 .debug_info    0x00000000000151eb       0x9b 0x1 /usr/local/popcorn/x86_64/lib/libc.a(sigemptyset.o)
 .debug_info    0x0000000000015286       0x4b 0x1 /usr/local/popcorn/x86_64/lib/libc.a(sigrtmin.o)
 .debug_info    0x00000000000152d1       0xa8 0x1 /usr/local/popcorn/x86_64/lib/libc.a(restore.o)
 .debug_info    0x0000000000015379      0x36f 0x1 /usr/local/popcorn/x86_64/lib/libc.a(fclose.o)
 .debug_info    0x00000000000156e8      0x364 0x1 /usr/local/popcorn/x86_64/lib/libc.a(fflush.o)
 .debug_info    0x0000000000015a4c      0x450 0x1 /usr/local/popcorn/x86_64/lib/libc.a(fopen.o)
 .debug_info    0x0000000000015e9c      0x12b 0x1 /usr/local/popcorn/x86_64/lib/libc.a(fprintf.o)
 .debug_info    0x0000000000015fc7      0x12b 0x1 /usr/local/popcorn/x86_64/lib/libc.a(fscanf.o)
 .debug_info    0x00000000000160f2      0x3c3 0x1 /usr/local/popcorn/x86_64/lib/libc.a(fseek.o)
 .debug_info    0x00000000000164b5      0x30c 0x1 /usr/local/popcorn/x86_64/lib/libc.a(getc.o)
 .debug_info    0x00000000000167c1       0xcd 0x1 /usr/local/popcorn/x86_64/lib/libc.a(getline.o)
 .debug_info    0x000000000001688e      0x139 0x1 /usr/local/popcorn/x86_64/lib/libc.a(snprintf.o)
 .debug_info    0x00000000000169c7      0x110 0x1 /usr/local/popcorn/x86_64/lib/libc.a(sscanf.o)
 .debug_info    0x0000000000016ad7      0x6bc 0x1 /usr/local/popcorn/x86_64/lib/libc.a(vfscanf.o)
 .debug_info    0x0000000000017193      0x45a 0x1 /usr/local/popcorn/x86_64/lib/libc.a(vsnprintf.o)
 .debug_info    0x00000000000175ed      0x3bb 0x1 /usr/local/popcorn/x86_64/lib/libc.a(vsscanf.o)
 .debug_info    0x00000000000179a8       0xef 0x1 /usr/local/popcorn/x86_64/lib/libc.a(bsearch.o)
 .debug_info    0x0000000000017a97      0x61b 0x1 /usr/local/popcorn/x86_64/lib/libc.a(qsort.o)
 .debug_info    0x00000000000180b2      0x5ba 0x1 /usr/local/popcorn/x86_64/lib/libc.a(strtol.o)
 .debug_info    0x000000000001866c       0x99 0x1 /usr/local/popcorn/x86_64/lib/libc.a(strchr.o)
 .debug_info    0x0000000000018705       0xcd 0x1 /usr/local/popcorn/x86_64/lib/libc.a(strchrnul.o)
 .debug_info    0x00000000000187d2       0x87 0x1 /usr/local/popcorn/x86_64/lib/libc.a(strcmp.o)
 .debug_info    0x0000000000018859       0xcc 0x1 /usr/local/popcorn/x86_64/lib/libc.a(strncmp.o)
 .debug_info    0x0000000000018925       0xa4 0x1 /usr/local/popcorn/x86_64/lib/libc.a(memmove.o)
 .debug_info    0x00000000000189c9      0x599 0x1 /usr/local/popcorn/x86_64/lib/libc.a(pthread_attr_get.o)
 .debug_info    0x0000000000018f62      0x431 0x1 /usr/local/popcorn/x86_64/lib/libc.a(pthread_getattr_np.o)
 .debug_info    0x0000000000019393      0x3e0 0x1 /usr/local/popcorn/x86_64/lib/libc.a(pthread_migrate.o)
 .debug_info    0x0000000000019773      0x3ac 0x1 /usr/local/popcorn/x86_64/lib/libc.a(pthread_self.o)
 .debug_info    0x0000000000019b1f       0x9a 0x1 /usr/local/popcorn/x86_64/lib/libc.a(close.o)
 .debug_info    0x0000000000019bb9       0xf5 0x1 /usr/local/popcorn/x86_64/lib/libc.a(lseek.o)
 .debug_info    0x0000000000019cae       0x9e 0x1 /usr/local/popcorn/x86_64/lib/libc.a(read.o)
 .debug_info    0x0000000000019d4c       0x5c 0x1 /usr/local/popcorn/x86_64/lib/libc.a(abort.o)
 .debug_info    0x0000000000019da8      0x8ec 0x1 /usr/local/popcorn/x86_64/lib/libc.a(floatscan.o)
 .debug_info    0x000000000001a694      0x3ce 0x1 /usr/local/popcorn/x86_64/lib/libc.a(intscan.o)
 .debug_info    0x000000000001aa62      0x340 0x1 /usr/local/popcorn/x86_64/lib/libc.a(shgetc.o)
 .debug_info    0x000000000001ada2      0x590 0x1 /usr/local/popcorn/x86_64/lib/libc.a(expand_heap.o)
 .debug_info    0x000000000001b332       0xea 0x1 /usr/local/popcorn/x86_64/lib/libc.a(copysignl.o)
 .debug_info    0x000000000001b41c       0xc7 0x1 /usr/local/popcorn/x86_64/lib/libc.a(scalbn.o)
 .debug_info    0x000000000001b4e3       0xe6 0x1 /usr/local/popcorn/x86_64/lib/libc.a(scalbnl.o)
 .debug_info    0x000000000001b5c9       0x9e 0x1 /usr/local/popcorn/x86_64/lib/libc.a(fabs.o)
 .debug_info    0x000000000001b667       0xa0 0x1 /usr/local/popcorn/x86_64/lib/libc.a(fmodl.o)
 .debug_info    0x000000000001b707      0x4f8 0x1 /usr/local/popcorn/x86_64/lib/libc.a(mbrtowc.o)
 .debug_info    0x000000000001bbff       0x9f 0x1 /usr/local/popcorn/x86_64/lib/libc.a(mbsinit.o)
 .debug_info    0x000000000001bc9e      0x168 0x1 /usr/local/popcorn/x86_64/lib/libc.a(raise.o)
 .debug_info    0x000000000001be06      0x4d7 0x1 /usr/local/popcorn/x86_64/lib/libc.a(__fdopen.o)
 .debug_info    0x000000000001c2dd       0x7b 0x1 /usr/local/popcorn/x86_64/lib/libc.a(__fmodeflags.o)
 .debug_info    0x000000000001c358      0x3e4 0x1 /usr/local/popcorn/x86_64/lib/libc.a(__stdio_read.o)
 .debug_info    0x000000000001c73c      0x34c 0x1 /usr/local/popcorn/x86_64/lib/libc.a(__string_read.o)
 .debug_info    0x000000000001ca88      0x310 0x1 /usr/local/popcorn/x86_64/lib/libc.a(__uflow.o)
 .debug_info    0x000000000001cd98      0x3c9 0x1 /usr/local/popcorn/x86_64/lib/libc.a(getdelim.o)
 .debug_info    0x000000000001d161      0x315 0x1 /usr/local/popcorn/x86_64/lib/libc.a(ofl_add.o)
 .debug_info    0x000000000001d476       0x5e 0x1 /usr/local/popcorn/x86_64/lib/libc.a(internal.o)
 .debug_info    0x000000000001d4d4      0x316 0x1 /usr/local/popcorn/x86_64/lib/libc.a(__toread.o)

.debug_ranges   0x0000000000000000     0x4de0
 .debug_ranges  0x0000000000000000       0x40 0x1 popcorn-migratemep_x86_64.o
 .debug_ranges  0x0000000000000040        0x0 0x1 /usr/local/popcorn/x86_64/lib/crt1.o
 .debug_ranges  0x0000000000000040       0x60 0x1 /usr/local/popcorn/x86_64/lib/libc.a(__libc_start_main.o)
 .debug_ranges  0x00000000000000a0       0x40 0x1 /usr/local/popcorn/x86_64/lib/libc.a(exit.o)
 .debug_ranges  0x00000000000000e0        0x0 0x1 /usr/local/popcorn/x86_64/lib/libc.a(libc.o)
 .debug_ranges  0x00000000000000e0        0x0 0x1 /usr/local/popcorn/x86_64/lib/libc.a(perror.o)
 .debug_ranges  0x00000000000000e0        0x0 0x1 /usr/local/popcorn/x86_64/lib/libc.a(printf.o)
 .debug_ranges  0x00000000000000e0        0x0 0x1 /usr/local/popcorn/x86_64/lib/libc.a(stderr.o)
 .debug_ranges  0x00000000000000e0        0x0 0x1 /usr/local/popcorn/x86_64/lib/libc.a(stdout.o)
 .debug_ranges  0x00000000000000e0      0xb90 0x1 /usr/local/popcorn/x86_64/lib/libc.a(vfprintf.o)
 .debug_ranges  0x0000000000000c70        0x0 0x1 /usr/local/popcorn/x86_64/lib/libc.a(strlen.o)
 .debug_ranges  0x0000000000000c70        0x0 0x1 /usr/local/popcorn/x86_64/lib/libc.a(strnlen.o)
 .debug_ranges  0x0000000000000c70      0x130 0x1 /usr/local/popcorn/x86_64/lib/libc.a(pthread_create.o)
 .debug_ranges  0x0000000000000da0       0x40 0x1 /usr/local/popcorn/x86_64/lib/libc.a(pthread_join.o)
 .debug_ranges  0x0000000000000de0        0x0 0x1 /usr/local/popcorn/x86_64/lib/libc.a(pthread_setcancelstate.o)
 .debug_ranges  0x0000000000000de0       0x30 0x1 /usr/local/popcorn/x86_64/lib/libc.a(pthread_testcancel.o)
 .debug_ranges  0x0000000000000e10       0x40 0x1 /usr/local/popcorn/x86_64/lib/libc.a(vmlock.o)
 .debug_ranges  0x0000000000000e50        0x0 0x1 /usr/local/popcorn/x86_64/lib/libc.a(getpid.o)
 .debug_ranges  0x0000000000000e50        0x0 0x1 /usr/local/popcorn/x86_64/lib/libc.a(gettid.o)
 .debug_ranges  0x0000000000000e50        0x0 0x1 /usr/local/popcorn/x86_64/lib/libc.a(sleep.o)
 .debug_ranges  0x0000000000000e50        0x0 0x1 /usr/local/popcorn/x86_64/lib/libc.a(__environ.o)
 .debug_ranges  0x0000000000000e50       0x40 0x1 /usr/local/popcorn/x86_64/lib/libc.a(__init_tls.o)
 .debug_ranges  0x0000000000000e90        0x0 0x1 /usr/local/popcorn/x86_64/lib/libc.a(__errno_location.o)
 .debug_ranges  0x0000000000000e90       0x30 0x1 /usr/local/popcorn/x86_64/lib/libc.a(strerror.o)
 .debug_ranges  0x0000000000000ec0        0x0 0x1 /usr/local/popcorn/x86_64/lib/libc.a(_Exit.o)
 .debug_ranges  0x0000000000000ec0       0x40 0x1 /usr/local/popcorn/x86_64/lib/libc.a(__lctrans.o)
 .debug_ranges  0x0000000000000f00        0x0 0x1 /usr/local/popcorn/x86_64/lib/libc.a(__fpclassifyl.o)
 .debug_ranges  0x0000000000000f00        0x0 0x1 /usr/local/popcorn/x86_64/lib/libc.a(__signbitl.o)
 .debug_ranges  0x0000000000000f00        0x0 0x1 /usr/local/popcorn/x86_64/lib/libc.a(frexpl.o)
 .debug_ranges  0x0000000000000f00       0x30 0x1 /usr/local/popcorn/x86_64/lib/libc.a(mmap.o)
 .debug_ranges  0x0000000000000f30        0x0 0x1 /usr/local/popcorn/x86_64/lib/libc.a(mprotect.o)
 .debug_ranges  0x0000000000000f30       0x30 0x1 /usr/local/popcorn/x86_64/lib/libc.a(munmap.o)
 .debug_ranges  0x0000000000000f60        0x0 0x1 /usr/local/popcorn/x86_64/lib/libc.a(wctomb.o)
 .debug_ranges  0x0000000000000f60       0x40 0x1 /usr/local/popcorn/x86_64/lib/libc.a(block.o)
 .debug_ranges  0x0000000000000fa0       0x60 0x1 /usr/local/popcorn/x86_64/lib/libc.a(__lockfile.o)
 .debug_ranges  0x0000000000001000       0x30 0x1 /usr/local/popcorn/x86_64/lib/libc.a(__stdio_close.o)
 .debug_ranges  0x0000000000001030        0x0 0x1 /usr/local/popcorn/x86_64/lib/libc.a(__stdio_seek.o)
 .debug_ranges  0x0000000000001030       0x30 0x1 /usr/local/popcorn/x86_64/lib/libc.a(__stdio_write.o)
 .debug_ranges  0x0000000000001060        0x0 0x1 /usr/local/popcorn/x86_64/lib/libc.a(__stdout_write.o)
 .debug_ranges  0x0000000000001060        0x0 0x1 /usr/local/popcorn/x86_64/lib/libc.a(fputc.o)
 .debug_ranges  0x0000000000001060       0x30 0x1 /usr/local/popcorn/x86_64/lib/libc.a(fwrite.o)
 .debug_ranges  0x0000000000001090       0x30 0x1 /usr/local/popcorn/x86_64/lib/libc.a(ofl.o)
 .debug_ranges  0x00000000000010c0        0x0 0x1 /usr/local/popcorn/x86_64/lib/libc.a(memchr.o)
 .debug_ranges  0x00000000000010c0       0x70 0x1 /usr/local/popcorn/x86_64/lib/libc.a(__lock.o)
 .debug_ranges  0x0000000000001130       0x30 0x1 /usr/local/popcorn/x86_64/lib/libc.a(__timedwait.o)
 .debug_ranges  0x0000000000001160       0x30 0x1 /usr/local/popcorn/x86_64/lib/libc.a(__wait.o)
 .debug_ranges  0x0000000000001190        0x0 0x1 /usr/local/popcorn/x86_64/lib/libc.a(clock_gettime.o)
 .debug_ranges  0x0000000000001190        0x0 0x1 /usr/local/popcorn/x86_64/lib/libc.a(nanosleep.o)
 .debug_ranges  0x0000000000001190        0x0 0x1 /usr/local/popcorn/x86_64/lib/libc.a(syscall_ret.o)
 .debug_ranges  0x0000000000001190        0x0 0x1 /usr/local/popcorn/x86_64/lib/libc.a(wcrtomb.o)
 .debug_ranges  0x0000000000001190        0x0 0x1 /usr/local/popcorn/x86_64/lib/libc.a(__overflow.o)
 .debug_ranges  0x0000000000001190       0x30 0x1 /usr/local/popcorn/x86_64/lib/libc.a(__towrite.o)
 .debug_ranges  0x00000000000011c0       0x30 0x1 /usr/local/popcorn/x86_64/lib/libc.a(__syscall_cp.o)
 .debug_ranges  0x00000000000011f0       0x30 0x1 /usr/local/popcorn/x86_64/lib/libc.a(__stdio_exit.o)
 .debug_ranges  0x0000000000001220      0x150 0x1 /usr/local/popcorn/x86_64/lib/libmigrate.a(migrate.o)
 .debug_ranges  0x0000000000001370       0x40 0x1 /usr/local/popcorn/x86_64/lib/libmigrate.a(trigger.o)
 .debug_ranges  0x00000000000013b0       0x70 0x1 /usr/local/popcorn/x86_64/lib/libmigrate.a(mapping.o)
 .debug_ranges  0x0000000000001420       0xe0 0x1 /usr/local/popcorn/x86_64/lib/libstack-transform.a(userspace.o)
 .debug_ranges  0x0000000000001500       0x50 0x1 /usr/local/popcorn/x86_64/lib/libstack-transform.a(init.o)
 .debug_ranges  0x0000000000001550      0x1b0 0x1 /usr/local/popcorn/x86_64/lib/libstack-transform.a(rewrite.o)
 .debug_ranges  0x0000000000001700      0x190 0x1 /usr/local/popcorn/x86_64/lib/libstack-transform.a(unwind.o)
 .debug_ranges  0x0000000000001890      0x100 0x1 /usr/local/popcorn/x86_64/lib/libstack-transform.a(util.o)
 .debug_ranges  0x0000000000001990       0x40 0x1 /usr/local/popcorn/x86_64/lib/libstack-transform.a(properties.o)
 .debug_ranges  0x00000000000019d0      0x120 0x1 /usr/local/popcorn/x86_64/lib/libstack-transform.a(regs.o)
 .debug_ranges  0x0000000000001af0       0x40 0x1 /usr/local/popcorn/x86_64/lib/libstack-transform.a(properties.o)
 .debug_ranges  0x0000000000001b30      0x120 0x1 /usr/local/popcorn/x86_64/lib/libstack-transform.a(regs.o)
 .debug_ranges  0x0000000000001c50       0x40 0x1 /usr/local/popcorn/x86_64/lib/libstack-transform.a(properties.o)
 .debug_ranges  0x0000000000001c90      0x120 0x1 /usr/local/popcorn/x86_64/lib/libstack-transform.a(regs.o)
 .debug_ranges  0x0000000000001db0      0x400 0x1 /usr/local/popcorn/x86_64/lib/libstack-transform.a(data.o)
 .debug_ranges  0x00000000000021b0       0x50 0x1 /usr/local/popcorn/x86_64/lib/libc.a(arch_crash.o)
 .debug_ranges  0x0000000000002200        0x0 0x1 /usr/local/popcorn/x86_64/lib/libc.a(getenv.o)
 .debug_ranges  0x0000000000002200       0x40 0x1 /usr/local/popcorn/x86_64/lib/libc.a(platform.o)
 .debug_ranges  0x0000000000002240        0x0 0x1 /usr/local/popcorn/x86_64/lib/libc.a(assert.o)
 .debug_ranges  0x0000000000002240        0x0 0x1 /usr/local/popcorn/x86_64/lib/libc.a(open.o)
 .debug_ranges  0x0000000000002240       0x40 0x1 /usr/local/popcorn/x86_64/lib/libc.a(calloc.o)
 .debug_ranges  0x0000000000002280       0x40 0x1 /usr/local/popcorn/x86_64/lib/libc.a(lite_malloc.o)
 .debug_ranges  0x00000000000022c0      0xc50 0x1 /usr/local/popcorn/x86_64/lib/libc.a(malloc.o)
 .debug_ranges  0x0000000000002f10     0x12d0 0x1 /usr/local/popcorn/x86_64/lib/libc.a(popcorn_malloc.o)
 .debug_ranges  0x00000000000041e0        0x0 0x1 /usr/local/popcorn/x86_64/lib/libc.a(getrlimit.o)
 .debug_ranges  0x00000000000041e0        0x0 0x1 /usr/local/popcorn/x86_64/lib/libc.a(syscall.o)
 .debug_ranges  0x00000000000041e0        0x0 0x1 /usr/local/popcorn/x86_64/lib/libc.a(madvise.o)
 .debug_ranges  0x00000000000041e0       0x30 0x1 /usr/local/popcorn/x86_64/lib/libc.a(mremap.o)
 .debug_ranges  0x0000000000004210       0x40 0x1 /usr/local/popcorn/x86_64/lib/libc.a(sigaction.o)
 .debug_ranges  0x0000000000004250        0x0 0x1 /usr/local/popcorn/x86_64/lib/libc.a(sigemptyset.o)
 .debug_ranges  0x0000000000004250        0x0 0x1 /usr/local/popcorn/x86_64/lib/libc.a(sigrtmin.o)
 .debug_ranges  0x0000000000004250       0x30 0x1 /usr/local/popcorn/x86_64/lib/libc.a(fclose.o)
 .debug_ranges  0x0000000000004280        0x0 0x1 /usr/local/popcorn/x86_64/lib/libc.a(fflush.o)
 .debug_ranges  0x0000000000004280        0x0 0x1 /usr/local/popcorn/x86_64/lib/libc.a(fopen.o)
 .debug_ranges  0x0000000000004280        0x0 0x1 /usr/local/popcorn/x86_64/lib/libc.a(fprintf.o)
 .debug_ranges  0x0000000000004280        0x0 0x1 /usr/local/popcorn/x86_64/lib/libc.a(fscanf.o)
 .debug_ranges  0x0000000000004280       0x40 0x1 /usr/local/popcorn/x86_64/lib/libc.a(fseek.o)
 .debug_ranges  0x00000000000042c0        0x0 0x1 /usr/local/popcorn/x86_64/lib/libc.a(getc.o)
 .debug_ranges  0x00000000000042c0        0x0 0x1 /usr/local/popcorn/x86_64/lib/libc.a(getline.o)
 .debug_ranges  0x00000000000042c0        0x0 0x1 /usr/local/popcorn/x86_64/lib/libc.a(snprintf.o)
 .debug_ranges  0x00000000000042c0        0x0 0x1 /usr/local/popcorn/x86_64/lib/libc.a(sscanf.o)
 .debug_ranges  0x00000000000042c0       0x90 0x1 /usr/local/popcorn/x86_64/lib/libc.a(vfscanf.o)
 .debug_ranges  0x0000000000004350       0x30 0x1 /usr/local/popcorn/x86_64/lib/libc.a(vsnprintf.o)
 .debug_ranges  0x0000000000004380       0x30 0x1 /usr/local/popcorn/x86_64/lib/libc.a(vsscanf.o)
 .debug_ranges  0x00000000000043b0        0x0 0x1 /usr/local/popcorn/x86_64/lib/libc.a(bsearch.o)
 .debug_ranges  0x00000000000043b0      0x1e0 0x1 /usr/local/popcorn/x86_64/lib/libc.a(qsort.o)
 .debug_ranges  0x0000000000004590       0x80 0x1 /usr/local/popcorn/x86_64/lib/libc.a(strtol.o)
 .debug_ranges  0x0000000000004610        0x0 0x1 /usr/local/popcorn/x86_64/lib/libc.a(strchr.o)
 .debug_ranges  0x0000000000004610        0x0 0x1 /usr/local/popcorn/x86_64/lib/libc.a(strchrnul.o)
 .debug_ranges  0x0000000000004610        0x0 0x1 /usr/local/popcorn/x86_64/lib/libc.a(strcmp.o)
 .debug_ranges  0x0000000000004610        0x0 0x1 /usr/local/popcorn/x86_64/lib/libc.a(strncmp.o)
 .debug_ranges  0x0000000000004610      0x110 0x1 /usr/local/popcorn/x86_64/lib/libc.a(pthread_attr_get.o)
 .debug_ranges  0x0000000000004720        0x0 0x1 /usr/local/popcorn/x86_64/lib/libc.a(pthread_getattr_np.o)
 .debug_ranges  0x0000000000004720       0x30 0x1 /usr/local/popcorn/x86_64/lib/libc.a(pthread_migrate.o)
 .debug_ranges  0x0000000000004750        0x0 0x1 /usr/local/popcorn/x86_64/lib/libc.a(pthread_self.o)
 .debug_ranges  0x0000000000004750       0x30 0x1 /usr/local/popcorn/x86_64/lib/libc.a(close.o)
 .debug_ranges  0x0000000000004780        0x0 0x1 /usr/local/popcorn/x86_64/lib/libc.a(lseek.o)
 .debug_ranges  0x0000000000004780        0x0 0x1 /usr/local/popcorn/x86_64/lib/libc.a(read.o)
 .debug_ranges  0x0000000000004780        0x0 0x1 /usr/local/popcorn/x86_64/lib/libc.a(abort.o)
 .debug_ranges  0x0000000000004780      0x540 0x1 /usr/local/popcorn/x86_64/lib/libc.a(floatscan.o)
 .debug_ranges  0x0000000000004cc0        0x0 0x1 /usr/local/popcorn/x86_64/lib/libc.a(intscan.o)
 .debug_ranges  0x0000000000004cc0       0x30 0x1 /usr/local/popcorn/x86_64/lib/libc.a(shgetc.o)
 .debug_ranges  0x0000000000004cf0       0xc0 0x1 /usr/local/popcorn/x86_64/lib/libc.a(expand_heap.o)
 .debug_ranges  0x0000000000004db0        0x0 0x1 /usr/local/popcorn/x86_64/lib/libc.a(copysignl.o)
 .debug_ranges  0x0000000000004db0        0x0 0x1 /usr/local/popcorn/x86_64/lib/libc.a(scalbn.o)
 .debug_ranges  0x0000000000004db0        0x0 0x1 /usr/local/popcorn/x86_64/lib/libc.a(scalbnl.o)
 .debug_ranges  0x0000000000004db0        0x0 0x1 /usr/local/popcorn/x86_64/lib/libc.a(mbrtowc.o)
 .debug_ranges  0x0000000000004db0        0x0 0x1 /usr/local/popcorn/x86_64/lib/libc.a(mbsinit.o)
 .debug_ranges  0x0000000000004db0        0x0 0x1 /usr/local/popcorn/x86_64/lib/libc.a(raise.o)
 .debug_ranges  0x0000000000004db0        0x0 0x1 /usr/local/popcorn/x86_64/lib/libc.a(__fdopen.o)
 .debug_ranges  0x0000000000004db0        0x0 0x1 /usr/local/popcorn/x86_64/lib/libc.a(__fmodeflags.o)
 .debug_ranges  0x0000000000004db0        0x0 0x1 /usr/local/popcorn/x86_64/lib/libc.a(__stdio_read.o)
 .debug_ranges  0x0000000000004db0        0x0 0x1 /usr/local/popcorn/x86_64/lib/libc.a(__string_read.o)
 .debug_ranges  0x0000000000004db0        0x0 0x1 /usr/local/popcorn/x86_64/lib/libc.a(__uflow.o)
 .debug_ranges  0x0000000000004db0        0x0 0x1 /usr/local/popcorn/x86_64/lib/libc.a(getdelim.o)
 .debug_ranges  0x0000000000004db0        0x0 0x1 /usr/local/popcorn/x86_64/lib/libc.a(ofl_add.o)
 .debug_ranges  0x0000000000004db0        0x0 0x1 /usr/local/popcorn/x86_64/lib/libc.a(internal.o)
 .debug_ranges  0x0000000000004db0       0x30 0x1 /usr/local/popcorn/x86_64/lib/libc.a(__toread.o)

.debug_pubnames
                0x0000000000000000     0x2fad
 .debug_pubnames
                0x0000000000000000       0x34 0x1 popcorn-migratemep_x86_64.o
 .debug_pubnames
                0x0000000000000034       0x1f 0x1 /usr/local/popcorn/x86_64/lib/crt1.o
 .debug_pubnames
                0x0000000000000053       0xa4 0x1 /usr/local/popcorn/x86_64/lib/libc.a(__libc_start_main.o)
 .debug_pubnames
                0x00000000000000f7       0x38 0x1 /usr/local/popcorn/x86_64/lib/libc.a(exit.o)
 .debug_pubnames
                0x000000000000012f       0x5a 0x1 /usr/local/popcorn/x86_64/lib/libc.a(libc.o)
 .debug_pubnames
                0x0000000000000189       0x1d 0x1 /usr/local/popcorn/x86_64/lib/libc.a(perror.o)
 .debug_pubnames
                0x00000000000001a6       0x1d 0x1 /usr/local/popcorn/x86_64/lib/libc.a(printf.o)
 .debug_pubnames
                0x00000000000001c3       0x3d 0x1 /usr/local/popcorn/x86_64/lib/libc.a(stderr.o)
 .debug_pubnames
                0x0000000000000200       0x3d 0x1 /usr/local/popcorn/x86_64/lib/libc.a(stdout.o)
 .debug_pubnames
                0x000000000000023d       0xb9 0x1 /usr/local/popcorn/x86_64/lib/libc.a(vfprintf.o)
 .debug_pubnames
                0x00000000000002f6       0x1d 0x1 /usr/local/popcorn/x86_64/lib/libc.a(strlen.o)
 .debug_pubnames
                0x0000000000000313       0x1e 0x1 /usr/local/popcorn/x86_64/lib/libc.a(strnlen.o)
 .debug_pubnames
                0x0000000000000331      0x1a0 0x1 /usr/local/popcorn/x86_64/lib/libc.a(pthread_create.o)
 .debug_pubnames
                0x00000000000004d1       0x73 0x1 /usr/local/popcorn/x86_64/lib/libc.a(pthread_join.o)
 .debug_pubnames
                0x0000000000000544       0x42 0x1 /usr/local/popcorn/x86_64/lib/libc.a(pthread_setcancelstate.o)
 .debug_pubnames
                0x0000000000000586       0x35 0x1 /usr/local/popcorn/x86_64/lib/libc.a(pthread_testcancel.o)
 .debug_pubnames
                0x00000000000005bb       0x7d 0x1 /usr/local/popcorn/x86_64/lib/libc.a(vmlock.o)
 .debug_pubnames
                0x0000000000000638       0x2c 0x1 /usr/local/popcorn/x86_64/lib/libc.a(getpid.o)
 .debug_pubnames
                0x0000000000000664       0x2c 0x1 /usr/local/popcorn/x86_64/lib/libc.a(gettid.o)
 .debug_pubnames
                0x0000000000000690       0x1c 0x1 /usr/local/popcorn/x86_64/lib/libc.a(sleep.o)
 .debug_pubnames
                0x00000000000006ac       0x20 0x1 /usr/local/popcorn/x86_64/lib/libc.a(__environ.o)
 .debug_pubnames
                0x00000000000006cc       0x8a 0x1 /usr/local/popcorn/x86_64/lib/libc.a(__init_tls.o)
 .debug_pubnames
                0x0000000000000756       0x3a 0x1 /usr/local/popcorn/x86_64/lib/libc.a(__errno_location.o)
 .debug_pubnames
                0x0000000000000790       0x58 0x1 /usr/local/popcorn/x86_64/lib/libc.a(strerror.o)
 .debug_pubnames
                0x00000000000007e8       0x2b 0x1 /usr/local/popcorn/x86_64/lib/libc.a(_Exit.o)
 .debug_pubnames
                0x0000000000000813       0x4f 0x1 /usr/local/popcorn/x86_64/lib/libc.a(__lctrans.o)
 .debug_pubnames
                0x0000000000000862       0x24 0x1 /usr/local/popcorn/x86_64/lib/libc.a(__fpclassifyl.o)
 .debug_pubnames
                0x0000000000000886       0x21 0x1 /usr/local/popcorn/x86_64/lib/libc.a(__signbitl.o)
 .debug_pubnames
                0x00000000000008a7       0x1d 0x1 /usr/local/popcorn/x86_64/lib/libc.a(frexpl.o)
 .debug_pubnames
                0x00000000000008c4       0x36 0x1 /usr/local/popcorn/x86_64/lib/libc.a(mmap.o)
 .debug_pubnames
                0x00000000000008fa       0x30 0x1 /usr/local/popcorn/x86_64/lib/libc.a(mprotect.o)
 .debug_pubnames
                0x000000000000092a       0x38 0x1 /usr/local/popcorn/x86_64/lib/libc.a(munmap.o)
 .debug_pubnames
                0x0000000000000962       0x1d 0x1 /usr/local/popcorn/x86_64/lib/libc.a(wctomb.o)
 .debug_pubnames
                0x000000000000097f       0x78 0x1 /usr/local/popcorn/x86_64/lib/libc.a(block.o)
 .debug_pubnames
                0x00000000000009f7       0x75 0x1 /usr/local/popcorn/x86_64/lib/libc.a(__lockfile.o)
 .debug_pubnames
                0x0000000000000a6c       0x3d 0x1 /usr/local/popcorn/x86_64/lib/libc.a(__stdio_close.o)
 .debug_pubnames
                0x0000000000000aa9       0x32 0x1 /usr/local/popcorn/x86_64/lib/libc.a(__stdio_seek.o)
 .debug_pubnames
                0x0000000000000adb       0x33 0x1 /usr/local/popcorn/x86_64/lib/libc.a(__stdio_write.o)
 .debug_pubnames
                0x0000000000000b0e       0x34 0x1 /usr/local/popcorn/x86_64/lib/libc.a(__stdout_write.o)
 .debug_pubnames
                0x0000000000000b42       0x1c 0x1 /usr/local/popcorn/x86_64/lib/libc.a(fputc.o)
 .debug_pubnames
                0x0000000000000b5e       0x2b 0x1 /usr/local/popcorn/x86_64/lib/libc.a(fwrite.o)
 .debug_pubnames
                0x0000000000000b89       0x4c 0x1 /usr/local/popcorn/x86_64/lib/libc.a(ofl.o)
 .debug_pubnames
                0x0000000000000bd5       0x1d 0x1 /usr/local/popcorn/x86_64/lib/libc.a(memchr.o)
 .debug_pubnames
                0x0000000000000bf2       0x5b 0x1 /usr/local/popcorn/x86_64/lib/libc.a(__lock.o)
 .debug_pubnames
                0x0000000000000c4d       0x35 0x1 /usr/local/popcorn/x86_64/lib/libc.a(__timedwait.o)
 .debug_pubnames
                0x0000000000000c82       0x4b 0x1 /usr/local/popcorn/x86_64/lib/libc.a(__wait.o)
 .debug_pubnames
                0x0000000000000ccd       0x35 0x1 /usr/local/popcorn/x86_64/lib/libc.a(clock_gettime.o)
 .debug_pubnames
                0x0000000000000d02       0x20 0x1 /usr/local/popcorn/x86_64/lib/libc.a(nanosleep.o)
 .debug_pubnames
                0x0000000000000d22       0x24 0x1 /usr/local/popcorn/x86_64/lib/libc.a(syscall_ret.o)
 .debug_pubnames
                0x0000000000000d46       0x31 0x1 /usr/local/popcorn/x86_64/lib/libc.a(wcrtomb.o)
 .debug_pubnames
                0x0000000000000d77       0x21 0x1 /usr/local/popcorn/x86_64/lib/libc.a(__overflow.o)
 .debug_pubnames
                0x0000000000000d98       0x3f 0x1 /usr/local/popcorn/x86_64/lib/libc.a(__towrite.o)
 .debug_pubnames
                0x0000000000000dd7       0x2c 0x1 /usr/local/popcorn/x86_64/lib/libc.a(__syscall_cp.o)
 .debug_pubnames
                0x0000000000000e03       0x41 0x1 /usr/local/popcorn/x86_64/lib/libc.a(__stdio_exit.o)
 .debug_pubnames
                0x0000000000000e44      0x10d 0x1 /usr/local/popcorn/x86_64/lib/libmigrate.a(migrate.o)
 .debug_pubnames
                0x0000000000000f51       0x77 0x1 /usr/local/popcorn/x86_64/lib/libmigrate.a(trigger.o)
 .debug_pubnames
                0x0000000000000fc8       0xb4 0x1 /usr/local/popcorn/x86_64/lib/libmigrate.a(mapping.o)
 .debug_pubnames
                0x000000000000107c      0x179 0x1 /usr/local/popcorn/x86_64/lib/libstack-transform.a(userspace.o)
 .debug_pubnames
                0x00000000000011f5       0x49 0x1 /usr/local/popcorn/x86_64/lib/libstack-transform.a(init.o)
 .debug_pubnames
                0x000000000000123e      0x183 0x1 /usr/local/popcorn/x86_64/lib/libstack-transform.a(rewrite.o)
 .debug_pubnames
                0x00000000000013c1      0x129 0x1 /usr/local/popcorn/x86_64/lib/libstack-transform.a(unwind.o)
 .debug_pubnames
                0x00000000000014ea       0xda 0x1 /usr/local/popcorn/x86_64/lib/libstack-transform.a(util.o)
 .debug_pubnames
                0x00000000000015c4       0xad 0x1 /usr/local/popcorn/x86_64/lib/libstack-transform.a(properties.o)
 .debug_pubnames
                0x0000000000001671      0x189 0x1 /usr/local/popcorn/x86_64/lib/libstack-transform.a(regs.o)
 .debug_pubnames
                0x00000000000017fa       0xb9 0x1 /usr/local/popcorn/x86_64/lib/libstack-transform.a(properties.o)
 .debug_pubnames
                0x00000000000018b3      0x1ad 0x1 /usr/local/popcorn/x86_64/lib/libstack-transform.a(regs.o)
 .debug_pubnames
                0x0000000000001a60       0xa7 0x1 /usr/local/popcorn/x86_64/lib/libstack-transform.a(properties.o)
 .debug_pubnames
                0x0000000000001b07      0x177 0x1 /usr/local/popcorn/x86_64/lib/libstack-transform.a(regs.o)
 .debug_pubnames
                0x0000000000001c7e      0x113 0x1 /usr/local/popcorn/x86_64/lib/libstack-transform.a(data.o)
 .debug_pubnames
                0x0000000000001d91       0x5b 0x1 /usr/local/popcorn/x86_64/lib/libc.a(arch_crash.o)
 .debug_pubnames
                0x0000000000001dec       0x1d 0x1 /usr/local/popcorn/x86_64/lib/libc.a(getenv.o)
 .debug_pubnames
                0x0000000000001e09       0x75 0x1 /usr/local/popcorn/x86_64/lib/libc.a(platform.o)
 .debug_pubnames
                0x0000000000001e7e       0x24 0x1 /usr/local/popcorn/x86_64/lib/libc.a(assert.o)
 .debug_pubnames
                0x0000000000001ea2       0x2a 0x1 /usr/local/popcorn/x86_64/lib/libc.a(open.o)
 .debug_pubnames
                0x0000000000001ecc       0x47 0x1 /usr/local/popcorn/x86_64/lib/libc.a(calloc.o)
 .debug_pubnames
                0x0000000000001f13       0x3f 0x1 /usr/local/popcorn/x86_64/lib/libc.a(lite_malloc.o)
 .debug_pubnames
                0x0000000000001f52      0x197 0x1 /usr/local/popcorn/x86_64/lib/libc.a(malloc.o)
 .debug_pubnames
                0x00000000000020e9      0x1e6 0x1 /usr/local/popcorn/x86_64/lib/libc.a(popcorn_malloc.o)
 .debug_pubnames
                0x00000000000022cf       0x3e 0x1 /usr/local/popcorn/x86_64/lib/libc.a(getrlimit.o)
 .debug_pubnames
                0x000000000000230d       0x2d 0x1 /usr/local/popcorn/x86_64/lib/libc.a(syscall.o)
 .debug_pubnames
                0x000000000000233a       0x2f 0x1 /usr/local/popcorn/x86_64/lib/libc.a(madvise.o)
 .debug_pubnames
                0x0000000000002369       0x38 0x1 /usr/local/popcorn/x86_64/lib/libc.a(mremap.o)
 .debug_pubnames
                0x00000000000023a1       0x93 0x1 /usr/local/popcorn/x86_64/lib/libc.a(sigaction.o)
 .debug_pubnames
                0x0000000000002434       0x22 0x1 /usr/local/popcorn/x86_64/lib/libc.a(sigemptyset.o)
 .debug_pubnames
                0x0000000000002456       0x2e 0x1 /usr/local/popcorn/x86_64/lib/libc.a(sigrtmin.o)
 .debug_pubnames
                0x0000000000002484       0x27 0x1 /usr/local/popcorn/x86_64/lib/libc.a(fclose.o)
 .debug_pubnames
                0x00000000000024ab       0x27 0x1 /usr/local/popcorn/x86_64/lib/libc.a(fflush.o)
 .debug_pubnames
                0x00000000000024d2       0x3a 0x1 /usr/local/popcorn/x86_64/lib/libc.a(fopen.o)
 .debug_pubnames
                0x000000000000250c       0x1e 0x1 /usr/local/popcorn/x86_64/lib/libc.a(fprintf.o)
 .debug_pubnames
                0x000000000000252a       0x1d 0x1 /usr/local/popcorn/x86_64/lib/libc.a(fscanf.o)
 .debug_pubnames
                0x0000000000002547       0x3f 0x1 /usr/local/popcorn/x86_64/lib/libc.a(fseek.o)
 .debug_pubnames
                0x0000000000002586       0x1b 0x1 /usr/local/popcorn/x86_64/lib/libc.a(getc.o)
 .debug_pubnames
                0x00000000000025a1       0x1e 0x1 /usr/local/popcorn/x86_64/lib/libc.a(getline.o)
 .debug_pubnames
                0x00000000000025bf       0x1f 0x1 /usr/local/popcorn/x86_64/lib/libc.a(snprintf.o)
 .debug_pubnames
                0x00000000000025de       0x1d 0x1 /usr/local/popcorn/x86_64/lib/libc.a(sscanf.o)
 .debug_pubnames
                0x00000000000025fb       0x44 0x1 /usr/local/popcorn/x86_64/lib/libc.a(vfscanf.o)
 .debug_pubnames
                0x000000000000263f       0x2d 0x1 /usr/local/popcorn/x86_64/lib/libc.a(vsnprintf.o)
 .debug_pubnames
                0x000000000000266c       0x2a 0x1 /usr/local/popcorn/x86_64/lib/libc.a(vsscanf.o)
 .debug_pubnames
                0x0000000000002696       0x1e 0x1 /usr/local/popcorn/x86_64/lib/libc.a(bsearch.o)
 .debug_pubnames
                0x00000000000026b4       0x7c 0x1 /usr/local/popcorn/x86_64/lib/libc.a(qsort.o)
 .debug_pubnames
                0x0000000000002730       0x69 0x1 /usr/local/popcorn/x86_64/lib/libc.a(strtol.o)
 .debug_pubnames
                0x0000000000002799       0x1d 0x1 /usr/local/popcorn/x86_64/lib/libc.a(strchr.o)
 .debug_pubnames
                0x00000000000027b6       0x22 0x1 /usr/local/popcorn/x86_64/lib/libc.a(strchrnul.o)
 .debug_pubnames
                0x00000000000027d8       0x1d 0x1 /usr/local/popcorn/x86_64/lib/libc.a(strcmp.o)
 .debug_pubnames
                0x00000000000027f5       0x1e 0x1 /usr/local/popcorn/x86_64/lib/libc.a(strncmp.o)
 .debug_pubnames
                0x0000000000002813      0x206 0x1 /usr/local/popcorn/x86_64/lib/libc.a(pthread_attr_get.o)
 .debug_pubnames
                0x0000000000002a19       0x29 0x1 /usr/local/popcorn/x86_64/lib/libc.a(pthread_getattr_np.o)
 .debug_pubnames
                0x0000000000002a42       0x5f 0x1 /usr/local/popcorn/x86_64/lib/libc.a(pthread_migrate.o)
 .debug_pubnames
                0x0000000000002aa1       0x41 0x1 /usr/local/popcorn/x86_64/lib/libc.a(pthread_self.o)
 .debug_pubnames
                0x0000000000002ae2       0x26 0x1 /usr/local/popcorn/x86_64/lib/libc.a(close.o)
 .debug_pubnames
                0x0000000000002b08       0x2b 0x1 /usr/local/popcorn/x86_64/lib/libc.a(lseek.o)
 .debug_pubnames
                0x0000000000002b33       0x1b 0x1 /usr/local/popcorn/x86_64/lib/libc.a(read.o)
 .debug_pubnames
                0x0000000000002b4e       0x28 0x1 /usr/local/popcorn/x86_64/lib/libc.a(abort.o)
 .debug_pubnames
                0x0000000000002b76       0x66 0x1 /usr/local/popcorn/x86_64/lib/libc.a(floatscan.o)
 .debug_pubnames
                0x0000000000002bdc       0x38 0x1 /usr/local/popcorn/x86_64/lib/libc.a(intscan.o)
 .debug_pubnames
                0x0000000000002c14       0x2b 0x1 /usr/local/popcorn/x86_64/lib/libc.a(shgetc.o)
 .debug_pubnames
                0x0000000000002c3f      0x109 0x1 /usr/local/popcorn/x86_64/lib/libc.a(expand_heap.o)
 .debug_pubnames
                0x0000000000002d48       0x20 0x1 /usr/local/popcorn/x86_64/lib/libc.a(copysignl.o)
 .debug_pubnames
                0x0000000000002d68       0x1d 0x1 /usr/local/popcorn/x86_64/lib/libc.a(scalbn.o)
 .debug_pubnames
                0x0000000000002d85       0x1e 0x1 /usr/local/popcorn/x86_64/lib/libc.a(scalbnl.o)
 .debug_pubnames
                0x0000000000002da3       0x44 0x1 /usr/local/popcorn/x86_64/lib/libc.a(mbrtowc.o)
 .debug_pubnames
                0x0000000000002de7       0x1e 0x1 /usr/local/popcorn/x86_64/lib/libc.a(mbsinit.o)
 .debug_pubnames
                0x0000000000002e05       0x3a 0x1 /usr/local/popcorn/x86_64/lib/libc.a(raise.o)
 .debug_pubnames
                0x0000000000002e3f       0x3d 0x1 /usr/local/popcorn/x86_64/lib/libc.a(__fdopen.o)
 .debug_pubnames
                0x0000000000002e7c       0x23 0x1 /usr/local/popcorn/x86_64/lib/libc.a(__fmodeflags.o)
 .debug_pubnames
                0x0000000000002e9f       0x32 0x1 /usr/local/popcorn/x86_64/lib/libc.a(__stdio_read.o)
 .debug_pubnames
                0x0000000000002ed1       0x24 0x1 /usr/local/popcorn/x86_64/lib/libc.a(__string_read.o)
 .debug_pubnames
                0x0000000000002ef5       0x1e 0x1 /usr/local/popcorn/x86_64/lib/libc.a(__uflow.o)
 .debug_pubnames
                0x0000000000002f13       0x1f 0x1 /usr/local/popcorn/x86_64/lib/libc.a(getdelim.o)
 .debug_pubnames
                0x0000000000002f32       0x20 0x1 /usr/local/popcorn/x86_64/lib/libc.a(ofl_add.o)
 .debug_pubnames
                0x0000000000002f52       0x1e 0x1 /usr/local/popcorn/x86_64/lib/libc.a(internal.o)
 .debug_pubnames
                0x0000000000002f70       0x3d 0x1 /usr/local/popcorn/x86_64/lib/libc.a(__toread.o)

.debug_pubtypes
                0x0000000000000000     0x5074
 .debug_pubtypes
                0x0000000000000000       0x28 0x1 popcorn-migratemep_x86_64.o
 .debug_pubtypes
                0x0000000000000028       0x30 0x1 /usr/local/popcorn/x86_64/lib/crt1.o
 .debug_pubtypes
                0x0000000000000058       0x74 0x1 /usr/local/popcorn/x86_64/lib/libc.a(__libc_start_main.o)
 .debug_pubtypes
                0x00000000000000cc       0x3e 0x1 /usr/local/popcorn/x86_64/lib/libc.a(exit.o)
 .debug_pubtypes
                0x000000000000010a       0x72 0x1 /usr/local/popcorn/x86_64/lib/libc.a(libc.o)
 .debug_pubtypes
                0x000000000000017c       0xc2 0x1 /usr/local/popcorn/x86_64/lib/libc.a(perror.o)
 .debug_pubtypes
                0x000000000000023e       0x68 0x1 /usr/local/popcorn/x86_64/lib/libc.a(printf.o)
 .debug_pubtypes
                0x00000000000002a6       0xc2 0x1 /usr/local/popcorn/x86_64/lib/libc.a(stderr.o)
 .debug_pubtypes
                0x0000000000000368       0xc2 0x1 /usr/local/popcorn/x86_64/lib/libc.a(stdout.o)
 .debug_pubtypes
                0x000000000000042a      0x1a5 0x1 /usr/local/popcorn/x86_64/lib/libc.a(vfprintf.o)
 .debug_pubtypes
                0x00000000000005cf       0x4a 0x1 /usr/local/popcorn/x86_64/lib/libc.a(strlen.o)
 .debug_pubtypes
                0x0000000000000619       0x3c 0x1 /usr/local/popcorn/x86_64/lib/libc.a(strnlen.o)
 .debug_pubtypes
                0x0000000000000655      0x151 0x1 /usr/local/popcorn/x86_64/lib/libc.a(pthread_create.o)
 .debug_pubtypes
                0x00000000000007a6       0xdb 0x1 /usr/local/popcorn/x86_64/lib/libc.a(pthread_join.o)
 .debug_pubtypes
                0x0000000000000881       0xb5 0x1 /usr/local/popcorn/x86_64/lib/libc.a(pthread_setcancelstate.o)
 .debug_pubtypes
                0x0000000000000936       0x3d 0x1 /usr/local/popcorn/x86_64/lib/libc.a(vmlock.o)
 .debug_pubtypes
                0x0000000000000973       0x47 0x1 /usr/local/popcorn/x86_64/lib/libc.a(getpid.o)
 .debug_pubtypes
                0x00000000000009ba       0x47 0x1 /usr/local/popcorn/x86_64/lib/libc.a(gettid.o)
 .debug_pubtypes
                0x0000000000000a01       0x48 0x1 /usr/local/popcorn/x86_64/lib/libc.a(sleep.o)
 .debug_pubtypes
                0x0000000000000a49       0x1b 0x1 /usr/local/popcorn/x86_64/lib/libc.a(__environ.o)
 .debug_pubtypes
                0x0000000000000a64      0x161 0x1 /usr/local/popcorn/x86_64/lib/libc.a(__init_tls.o)
 .debug_pubtypes
                0x0000000000000bc5       0xb5 0x1 /usr/local/popcorn/x86_64/lib/libc.a(__errno_location.o)
 .debug_pubtypes
                0x0000000000000c7a       0xc6 0x1 /usr/local/popcorn/x86_64/lib/libc.a(strerror.o)
 .debug_pubtypes
                0x0000000000000d40       0x3d 0x1 /usr/local/popcorn/x86_64/lib/libc.a(_Exit.o)
 .debug_pubtypes
                0x0000000000000d7d       0xc6 0x1 /usr/local/popcorn/x86_64/lib/libc.a(__lctrans.o)
 .debug_pubtypes
                0x0000000000000e43       0x79 0x1 /usr/local/popcorn/x86_64/lib/libc.a(__fpclassifyl.o)
 .debug_pubtypes
                0x0000000000000ebc       0x79 0x1 /usr/local/popcorn/x86_64/lib/libc.a(__signbitl.o)
 .debug_pubtypes
                0x0000000000000f35       0x79 0x1 /usr/local/popcorn/x86_64/lib/libc.a(frexpl.o)
 .debug_pubtypes
                0x0000000000000fae       0x52 0x1 /usr/local/popcorn/x86_64/lib/libc.a(mmap.o)
 .debug_pubtypes
                0x0000000000001000       0x51 0x1 /usr/local/popcorn/x86_64/lib/libc.a(mprotect.o)
 .debug_pubtypes
                0x0000000000001051       0x48 0x1 /usr/local/popcorn/x86_64/lib/libc.a(munmap.o)
 .debug_pubtypes
                0x0000000000001099       0x2f 0x1 /usr/local/popcorn/x86_64/lib/libc.a(wctomb.o)
 .debug_pubtypes
                0x00000000000010c8       0x35 0x1 /usr/local/popcorn/x86_64/lib/libc.a(block.o)
 .debug_pubtypes
                0x00000000000010fd      0x100 0x1 /usr/local/popcorn/x86_64/lib/libc.a(__lockfile.o)
 .debug_pubtypes
                0x00000000000011fd       0xc2 0x1 /usr/local/popcorn/x86_64/lib/libc.a(__stdio_close.o)
 .debug_pubtypes
                0x00000000000012bf       0xc2 0x1 /usr/local/popcorn/x86_64/lib/libc.a(__stdio_seek.o)
 .debug_pubtypes
                0x0000000000001381       0xd8 0x1 /usr/local/popcorn/x86_64/lib/libc.a(__stdio_write.o)
 .debug_pubtypes
                0x0000000000001459       0xe1 0x1 /usr/local/popcorn/x86_64/lib/libc.a(__stdout_write.o)
 .debug_pubtypes
                0x000000000000153a       0xc2 0x1 /usr/local/popcorn/x86_64/lib/libc.a(fputc.o)
 .debug_pubtypes
                0x00000000000015fc       0xc2 0x1 /usr/local/popcorn/x86_64/lib/libc.a(fwrite.o)
 .debug_pubtypes
                0x00000000000016be       0xc2 0x1 /usr/local/popcorn/x86_64/lib/libc.a(ofl.o)
 .debug_pubtypes
                0x0000000000001780       0x5b 0x1 /usr/local/popcorn/x86_64/lib/libc.a(memchr.o)
 .debug_pubtypes
                0x00000000000017db       0x3d 0x1 /usr/local/popcorn/x86_64/lib/libc.a(__lock.o)
 .debug_pubtypes
                0x0000000000001818       0x4d 0x1 /usr/local/popcorn/x86_64/lib/libc.a(__timedwait.o)
 .debug_pubtypes
                0x0000000000001865       0x3d 0x1 /usr/local/popcorn/x86_64/lib/libc.a(__wait.o)
 .debug_pubtypes
                0x00000000000018a2       0x63 0x1 /usr/local/popcorn/x86_64/lib/libc.a(clock_gettime.o)
 .debug_pubtypes
                0x0000000000001905       0x3f 0x1 /usr/local/popcorn/x86_64/lib/libc.a(nanosleep.o)
 .debug_pubtypes
                0x0000000000001944       0x35 0x1 /usr/local/popcorn/x86_64/lib/libc.a(syscall_ret.o)
 .debug_pubtypes
                0x0000000000001979      0x101 0x1 /usr/local/popcorn/x86_64/lib/libc.a(wcrtomb.o)
 .debug_pubtypes
                0x0000000000001a7a       0xc2 0x1 /usr/local/popcorn/x86_64/lib/libc.a(__overflow.o)
 .debug_pubtypes
                0x0000000000001b3c       0xc2 0x1 /usr/local/popcorn/x86_64/lib/libc.a(__towrite.o)
 .debug_pubtypes
                0x0000000000001bfe       0x31 0x1 /usr/local/popcorn/x86_64/lib/libc.a(__syscall_cp.o)
 .debug_pubtypes
                0x0000000000001c2f       0xc2 0x1 /usr/local/popcorn/x86_64/lib/libc.a(__stdio_exit.o)
 .debug_pubtypes
                0x0000000000001cf1       0x87 0x1 /usr/local/popcorn/x86_64/lib/libmigrate.a(migrate.o)
 .debug_pubtypes
                0x0000000000001d78       0xc4 0x1 /usr/local/popcorn/x86_64/lib/libmigrate.a(trigger.o)
 .debug_pubtypes
                0x0000000000001e3c       0x67 0x1 /usr/local/popcorn/x86_64/lib/libmigrate.a(mapping.o)
 .debug_pubtypes
                0x0000000000001ea3      0x1ec 0x1 /usr/local/popcorn/x86_64/lib/libstack-transform.a(userspace.o)
 .debug_pubtypes
                0x000000000000208f      0x1cf 0x1 /usr/local/popcorn/x86_64/lib/libstack-transform.a(init.o)
 .debug_pubtypes
                0x000000000000225e      0x1ec 0x1 /usr/local/popcorn/x86_64/lib/libstack-transform.a(rewrite.o)
 .debug_pubtypes
                0x000000000000244a      0x1ec 0x1 /usr/local/popcorn/x86_64/lib/libstack-transform.a(unwind.o)
 .debug_pubtypes
                0x0000000000002636      0x20e 0x1 /usr/local/popcorn/x86_64/lib/libstack-transform.a(util.o)
 .debug_pubtypes
                0x0000000000002844       0x8f 0x1 /usr/local/popcorn/x86_64/lib/libstack-transform.a(properties.o)
 .debug_pubtypes
                0x00000000000028d3       0xa0 0x1 /usr/local/popcorn/x86_64/lib/libstack-transform.a(regs.o)
 .debug_pubtypes
                0x0000000000002973       0x8f 0x1 /usr/local/popcorn/x86_64/lib/libstack-transform.a(properties.o)
 .debug_pubtypes
                0x0000000000002a02       0x8c 0x1 /usr/local/popcorn/x86_64/lib/libstack-transform.a(regs.o)
 .debug_pubtypes
                0x0000000000002a8e       0x8f 0x1 /usr/local/popcorn/x86_64/lib/libstack-transform.a(properties.o)
 .debug_pubtypes
                0x0000000000002b1d       0xcd 0x1 /usr/local/popcorn/x86_64/lib/libstack-transform.a(regs.o)
 .debug_pubtypes
                0x0000000000002bea      0x20c 0x1 /usr/local/popcorn/x86_64/lib/libstack-transform.a(data.o)
 .debug_pubtypes
                0x0000000000002df6       0x29 0x1 /usr/local/popcorn/x86_64/lib/libc.a(arch_crash.o)
 .debug_pubtypes
                0x0000000000002e1f       0x3c 0x1 /usr/local/popcorn/x86_64/lib/libc.a(getenv.o)
 .debug_pubtypes
                0x0000000000002e5b       0x89 0x1 /usr/local/popcorn/x86_64/lib/libc.a(platform.o)
 .debug_pubtypes
                0x0000000000002ee4       0x23 0x1 /usr/local/popcorn/x86_64/lib/libc.a(assert.o)
 .debug_pubtypes
                0x0000000000002f07       0x96 0x1 /usr/local/popcorn/x86_64/lib/libc.a(open.o)
 .debug_pubtypes
                0x0000000000002f9d       0x3b 0x1 /usr/local/popcorn/x86_64/lib/libc.a(calloc.o)
 .debug_pubtypes
                0x0000000000002fd8       0x52 0x1 /usr/local/popcorn/x86_64/lib/libc.a(lite_malloc.o)
 .debug_pubtypes
                0x000000000000302a       0x90 0x1 /usr/local/popcorn/x86_64/lib/libc.a(malloc.o)
 .debug_pubtypes
                0x00000000000030ba       0x90 0x1 /usr/local/popcorn/x86_64/lib/libc.a(popcorn_malloc.o)
 .debug_pubtypes
                0x000000000000314a       0x6e 0x1 /usr/local/popcorn/x86_64/lib/libc.a(getrlimit.o)
 .debug_pubtypes
                0x00000000000031b8       0x8c 0x1 /usr/local/popcorn/x86_64/lib/libc.a(syscall.o)
 .debug_pubtypes
                0x0000000000003244       0x48 0x1 /usr/local/popcorn/x86_64/lib/libc.a(madvise.o)
 .debug_pubtypes
                0x000000000000328c       0x8d 0x1 /usr/local/popcorn/x86_64/lib/libc.a(mremap.o)
 .debug_pubtypes
                0x0000000000003319       0xef 0x1 /usr/local/popcorn/x86_64/lib/libc.a(sigaction.o)
 .debug_pubtypes
                0x0000000000003408       0x4c 0x1 /usr/local/popcorn/x86_64/lib/libc.a(sigemptyset.o)
 .debug_pubtypes
                0x0000000000003454       0x1a 0x1 /usr/local/popcorn/x86_64/lib/libc.a(sigrtmin.o)
 .debug_pubtypes
                0x000000000000346e       0xc2 0x1 /usr/local/popcorn/x86_64/lib/libc.a(fclose.o)
 .debug_pubtypes
                0x0000000000003530       0xc2 0x1 /usr/local/popcorn/x86_64/lib/libc.a(fflush.o)
 .debug_pubtypes
                0x00000000000035f2       0xc2 0x1 /usr/local/popcorn/x86_64/lib/libc.a(fopen.o)
 .debug_pubtypes
                0x00000000000036b4       0x71 0x1 /usr/local/popcorn/x86_64/lib/libc.a(fprintf.o)
 .debug_pubtypes
                0x0000000000003725       0x71 0x1 /usr/local/popcorn/x86_64/lib/libc.a(fscanf.o)
 .debug_pubtypes
                0x0000000000003796       0xc2 0x1 /usr/local/popcorn/x86_64/lib/libc.a(fseek.o)
 .debug_pubtypes
                0x0000000000003858       0xc2 0x1 /usr/local/popcorn/x86_64/lib/libc.a(getc.o)
 .debug_pubtypes
                0x000000000000391a       0x5e 0x1 /usr/local/popcorn/x86_64/lib/libc.a(getline.o)
 .debug_pubtypes
                0x0000000000003978       0x89 0x1 /usr/local/popcorn/x86_64/lib/libc.a(snprintf.o)
 .debug_pubtypes
                0x0000000000003a01       0x68 0x1 /usr/local/popcorn/x86_64/lib/libc.a(sscanf.o)
 .debug_pubtypes
                0x0000000000003a69      0x180 0x1 /usr/local/popcorn/x86_64/lib/libc.a(vfscanf.o)
 .debug_pubtypes
                0x0000000000003be9       0xdf 0x1 /usr/local/popcorn/x86_64/lib/libc.a(vsnprintf.o)
 .debug_pubtypes
                0x0000000000003cc8       0xd4 0x1 /usr/local/popcorn/x86_64/lib/libc.a(vsscanf.o)
 .debug_pubtypes
                0x0000000000003d9c       0x44 0x1 /usr/local/popcorn/x86_64/lib/libc.a(bsearch.o)
 .debug_pubtypes
                0x0000000000003de0       0x6e 0x1 /usr/local/popcorn/x86_64/lib/libc.a(qsort.o)
 .debug_pubtypes
                0x0000000000003e4e      0x10a 0x1 /usr/local/popcorn/x86_64/lib/libc.a(strtol.o)
 .debug_pubtypes
                0x0000000000003f58       0x35 0x1 /usr/local/popcorn/x86_64/lib/libc.a(strchr.o)
 .debug_pubtypes
                0x0000000000003f8d       0x64 0x1 /usr/local/popcorn/x86_64/lib/libc.a(strchrnul.o)
 .debug_pubtypes
                0x0000000000003ff1       0x35 0x1 /usr/local/popcorn/x86_64/lib/libc.a(strcmp.o)
 .debug_pubtypes
                0x0000000000004026       0x56 0x1 /usr/local/popcorn/x86_64/lib/libc.a(strncmp.o)
 .debug_pubtypes
                0x000000000000407c      0x104 0x1 /usr/local/popcorn/x86_64/lib/libc.a(pthread_attr_get.o)
 .debug_pubtypes
                0x0000000000004180       0xd6 0x1 /usr/local/popcorn/x86_64/lib/libc.a(pthread_getattr_np.o)
 .debug_pubtypes
                0x0000000000004256       0xb5 0x1 /usr/local/popcorn/x86_64/lib/libc.a(pthread_migrate.o)
 .debug_pubtypes
                0x000000000000430b       0xc3 0x1 /usr/local/popcorn/x86_64/lib/libc.a(pthread_self.o)
 .debug_pubtypes
                0x00000000000043ce       0x27 0x1 /usr/local/popcorn/x86_64/lib/libc.a(close.o)
 .debug_pubtypes
                0x00000000000043f5       0x47 0x1 /usr/local/popcorn/x86_64/lib/libc.a(lseek.o)
 .debug_pubtypes
                0x000000000000443c       0x54 0x1 /usr/local/popcorn/x86_64/lib/libc.a(read.o)
 .debug_pubtypes
                0x0000000000004490       0xfe 0x1 /usr/local/popcorn/x86_64/lib/libc.a(floatscan.o)
 .debug_pubtypes
                0x000000000000458e       0xdd 0x1 /usr/local/popcorn/x86_64/lib/libc.a(intscan.o)
 .debug_pubtypes
                0x000000000000466b       0xc2 0x1 /usr/local/popcorn/x86_64/lib/libc.a(shgetc.o)
 .debug_pubtypes
                0x000000000000472d       0x67 0x1 /usr/local/popcorn/x86_64/lib/libc.a(expand_heap.o)
 .debug_pubtypes
                0x0000000000004794       0x71 0x1 /usr/local/popcorn/x86_64/lib/libc.a(copysignl.o)
 .debug_pubtypes
                0x0000000000004805       0x55 0x1 /usr/local/popcorn/x86_64/lib/libc.a(scalbn.o)
 .debug_pubtypes
                0x000000000000485a       0x79 0x1 /usr/local/popcorn/x86_64/lib/libc.a(scalbnl.o)
 .debug_pubtypes
                0x00000000000048d3      0x11d 0x1 /usr/local/popcorn/x86_64/lib/libc.a(mbrtowc.o)
 .debug_pubtypes
                0x00000000000049f0       0x49 0x1 /usr/local/popcorn/x86_64/lib/libc.a(mbsinit.o)
 .debug_pubtypes
                0x0000000000004a39       0x59 0x1 /usr/local/popcorn/x86_64/lib/libc.a(raise.o)
 .debug_pubtypes
                0x0000000000004a92       0xe1 0x1 /usr/local/popcorn/x86_64/lib/libc.a(__fdopen.o)
 .debug_pubtypes
                0x0000000000004b73       0x23 0x1 /usr/local/popcorn/x86_64/lib/libc.a(__fmodeflags.o)
 .debug_pubtypes
                0x0000000000004b96       0xd8 0x1 /usr/local/popcorn/x86_64/lib/libc.a(__stdio_read.o)
 .debug_pubtypes
                0x0000000000004c6e       0xc2 0x1 /usr/local/popcorn/x86_64/lib/libc.a(__string_read.o)
 .debug_pubtypes
                0x0000000000004d30       0xc2 0x1 /usr/local/popcorn/x86_64/lib/libc.a(__uflow.o)
 .debug_pubtypes
                0x0000000000004df2       0xce 0x1 /usr/local/popcorn/x86_64/lib/libc.a(getdelim.o)
 .debug_pubtypes
                0x0000000000004ec0       0xc2 0x1 /usr/local/popcorn/x86_64/lib/libc.a(ofl_add.o)
 .debug_pubtypes
                0x0000000000004f82       0x30 0x1 /usr/local/popcorn/x86_64/lib/libc.a(internal.o)
 .debug_pubtypes
                0x0000000000004fb2       0xc2 0x1 /usr/local/popcorn/x86_64/lib/libc.a(__toread.o)

.comment        0x0000000000000000       0x35
 ** merge strings
                0x0000000000000000       0x35

.stack_transform.unwind
                0x0000000000000000      0x110
 .stack_transform.unwind
                0x0000000000000000       0x30 0x4 popcorn-migratemep_x86_64.o
 .stack_transform.unwind
                0x0000000000000030       0x18 0x4 /usr/local/popcorn/x86_64/lib/libc.a(__libc_start_main.o)
 .stack_transform.unwind
                0x0000000000000048       0x18 0x4 /usr/local/popcorn/x86_64/lib/libc.a(pthread_create.o)
 .stack_transform.unwind
                0x0000000000000060       0x70 0x4 /usr/local/popcorn/x86_64/lib/libmigrate.a(migrate.o)
 .stack_transform.unwind
                0x00000000000000d0       0x10 0x4 /usr/local/popcorn/x86_64/lib/libmigrate.a(trigger.o)
 .stack_transform.unwind
                0x00000000000000e0       0x30 0x4 /usr/local/popcorn/x86_64/lib/libmigrate.a(mapping.o)

.stack_transform.unwind_arange
                0x0000000000000000      0x120
 .stack_transform.unwind_arange
                0x0000000000000000       0x30 0x8 popcorn-migratemep_x86_64.o
 .stack_transform.unwind_arange
                0x0000000000000030       0x10 0x8 /usr/local/popcorn/x86_64/lib/libc.a(__libc_start_main.o)
 .stack_transform.unwind_arange
                0x0000000000000040       0x20 0x8 /usr/local/popcorn/x86_64/lib/libc.a(pthread_create.o)
 .stack_transform.unwind_arange
                0x0000000000000060       0x70 0x8 /usr/local/popcorn/x86_64/lib/libmigrate.a(migrate.o)
 .stack_transform.unwind_arange
                0x00000000000000d0       0x20 0x8 /usr/local/popcorn/x86_64/lib/libmigrate.a(trigger.o)
 .stack_transform.unwind_arange
                0x00000000000000f0       0x30 0x8 /usr/local/popcorn/x86_64/lib/libmigrate.a(mapping.o)

.debug_line     0x0000000000000000     0xe065
 .debug_line    0x0000000000000000      0x133 0x1 popcorn-migratemep_x86_64.o
 .debug_line    0x0000000000000133       0x48 0x1 /usr/local/popcorn/x86_64/lib/crt1.o
 .debug_line    0x000000000000017b      0x245 0x1 /usr/local/popcorn/x86_64/lib/libc.a(__libc_start_main.o)
 .debug_line    0x00000000000003c0       0xb1 0x1 /usr/local/popcorn/x86_64/lib/libc.a(exit.o)
 .debug_line    0x0000000000000471       0x6c 0x1 /usr/local/popcorn/x86_64/lib/libc.a(libc.o)
 .debug_line    0x00000000000004dd       0xd2 0x1 /usr/local/popcorn/x86_64/lib/libc.a(perror.o)
 .debug_line    0x00000000000005af       0x76 0x1 /usr/local/popcorn/x86_64/lib/libc.a(printf.o)
 .debug_line    0x0000000000000625       0x7b 0x1 /usr/local/popcorn/x86_64/lib/libc.a(stderr.o)
 .debug_line    0x00000000000006a0       0x7b 0x1 /usr/local/popcorn/x86_64/lib/libc.a(stdout.o)
 .debug_line    0x000000000000071b     0x13f2 0x1 /usr/local/popcorn/x86_64/lib/libc.a(vfprintf.o)
 .debug_line    0x0000000000001b0d       0xb2 0x1 /usr/local/popcorn/x86_64/lib/libc.a(strlen.o)
 .debug_line    0x0000000000001bbf       0x73 0x1 /usr/local/popcorn/x86_64/lib/libc.a(strnlen.o)
 .debug_line    0x0000000000001c32       0x72 0x1 /usr/local/popcorn/x86_64/lib/libc.a(memset.o)
 .debug_line    0x0000000000001ca4      0x58b 0x1 /usr/local/popcorn/x86_64/lib/libc.a(pthread_create.o)
 .debug_line    0x000000000000222f      0x172 0x1 /usr/local/popcorn/x86_64/lib/libc.a(pthread_join.o)
 .debug_line    0x00000000000023a1       0xf5 0x1 /usr/local/popcorn/x86_64/lib/libc.a(pthread_setcancelstate.o)
 .debug_line    0x0000000000002496       0x6c 0x1 /usr/local/popcorn/x86_64/lib/libc.a(pthread_testcancel.o)
 .debug_line    0x0000000000002502      0x12b 0x1 /usr/local/popcorn/x86_64/lib/libc.a(vmlock.o)
 .debug_line    0x000000000000262d       0x56 0x1 /usr/local/popcorn/x86_64/lib/libc.a(__cleartid_exit_nostack.o)
 .debug_line    0x0000000000002683       0x43 0x1 /usr/local/popcorn/x86_64/lib/libc.a(__unmapself.o)
 .debug_line    0x00000000000026c6       0x4f 0x1 /usr/local/popcorn/x86_64/lib/libc.a(clone.o)
 .debug_line    0x0000000000002715       0x8d 0x1 /usr/local/popcorn/x86_64/lib/libc.a(getpid.o)
 .debug_line    0x00000000000027a2       0x8d 0x1 /usr/local/popcorn/x86_64/lib/libc.a(gettid.o)
 .debug_line    0x000000000000282f       0x76 0x1 /usr/local/popcorn/x86_64/lib/libc.a(sleep.o)
 .debug_line    0x00000000000028a5       0x34 0x1 /usr/local/popcorn/x86_64/lib/libc.a(__environ.o)
 .debug_line    0x00000000000028d9      0x258 0x1 /usr/local/popcorn/x86_64/lib/libc.a(__init_tls.o)
 .debug_line    0x0000000000002b31       0xde 0x1 /usr/local/popcorn/x86_64/lib/libc.a(__errno_location.o)
 .debug_line    0x0000000000002c0f      0x136 0x1 /usr/local/popcorn/x86_64/lib/libc.a(strerror.o)
 .debug_line    0x0000000000002d45       0x71 0x1 /usr/local/popcorn/x86_64/lib/libc.a(_Exit.o)
 .debug_line    0x0000000000002db6      0x11b 0x1 /usr/local/popcorn/x86_64/lib/libc.a(__lctrans.o)
 .debug_line    0x0000000000002ed1       0xae 0x1 /usr/local/popcorn/x86_64/lib/libc.a(__fpclassifyl.o)
 .debug_line    0x0000000000002f7f       0x87 0x1 /usr/local/popcorn/x86_64/lib/libc.a(__signbitl.o)
 .debug_line    0x0000000000003006       0xa5 0x1 /usr/local/popcorn/x86_64/lib/libc.a(frexpl.o)
 .debug_line    0x00000000000030ab       0xe7 0x1 /usr/local/popcorn/x86_64/lib/libc.a(mmap.o)
 .debug_line    0x0000000000003192       0xa1 0x1 /usr/local/popcorn/x86_64/lib/libc.a(mprotect.o)
 .debug_line    0x0000000000003233       0xa7 0x1 /usr/local/popcorn/x86_64/lib/libc.a(munmap.o)
 .debug_line    0x00000000000032da       0x71 0x1 /usr/local/popcorn/x86_64/lib/libc.a(wctomb.o)
 .debug_line    0x000000000000334b       0xb0 0x1 /usr/local/popcorn/x86_64/lib/libc.a(block.o)
 .debug_line    0x00000000000033fb      0x175 0x1 /usr/local/popcorn/x86_64/lib/libc.a(__lockfile.o)
 .debug_line    0x0000000000003570       0xd8 0x1 /usr/local/popcorn/x86_64/lib/libc.a(__stdio_close.o)
 .debug_line    0x0000000000003648       0xc4 0x1 /usr/local/popcorn/x86_64/lib/libc.a(__stdio_seek.o)
 .debug_line    0x000000000000370c      0x142 0x1 /usr/local/popcorn/x86_64/lib/libc.a(__stdio_write.o)
 .debug_line    0x000000000000384e      0x107 0x1 /usr/local/popcorn/x86_64/lib/libc.a(__stdout_write.o)
 .debug_line    0x0000000000003955       0xc9 0x1 /usr/local/popcorn/x86_64/lib/libc.a(fputc.o)
 .debug_line    0x0000000000003a1e      0x138 0x1 /usr/local/popcorn/x86_64/lib/libc.a(fwrite.o)
 .debug_line    0x0000000000003b56       0xa9 0x1 /usr/local/popcorn/x86_64/lib/libc.a(ofl.o)
 .debug_line    0x0000000000003bff       0xf5 0x1 /usr/local/popcorn/x86_64/lib/libc.a(memchr.o)
 .debug_line    0x0000000000003cf4       0x4e 0x1 /usr/local/popcorn/x86_64/lib/libc.a(memcpy.o)
 .debug_line    0x0000000000003d42      0x114 0x1 /usr/local/popcorn/x86_64/lib/libc.a(__lock.o)
 .debug_line    0x0000000000003e56       0xdb 0x1 /usr/local/popcorn/x86_64/lib/libc.a(__timedwait.o)
 .debug_line    0x0000000000003f31       0xfb 0x1 /usr/local/popcorn/x86_64/lib/libc.a(__wait.o)
 .debug_line    0x000000000000402c       0x49 0x1 /usr/local/popcorn/x86_64/lib/libc.a(__set_thread_area.o)
 .debug_line    0x0000000000004075       0xc1 0x1 /usr/local/popcorn/x86_64/lib/libc.a(clock_gettime.o)
 .debug_line    0x0000000000004136       0x69 0x1 /usr/local/popcorn/x86_64/lib/libc.a(nanosleep.o)
 .debug_line    0x000000000000419f       0x5e 0x1 /usr/local/popcorn/x86_64/lib/libc.a(syscall_ret.o)
 .debug_line    0x00000000000041fd      0x181 0x1 /usr/local/popcorn/x86_64/lib/libc.a(wcrtomb.o)
 .debug_line    0x000000000000437e       0xd7 0x1 /usr/local/popcorn/x86_64/lib/libc.a(__overflow.o)
 .debug_line    0x0000000000004455       0xdd 0x1 /usr/local/popcorn/x86_64/lib/libc.a(__towrite.o)
 .debug_line    0x0000000000004532       0x88 0x1 /usr/local/popcorn/x86_64/lib/libc.a(__syscall_cp.o)
 .debug_line    0x00000000000045ba       0x43 0x1 /usr/local/popcorn/x86_64/lib/libc.a(syscall.o)
 .debug_line    0x00000000000045fd       0xf5 0x1 /usr/local/popcorn/x86_64/lib/libc.a(__stdio_exit.o)
 .debug_line    0x00000000000046f2      0x39a 0x1 /usr/local/popcorn/x86_64/lib/libmigrate.a(migrate.o)
 .debug_line    0x0000000000004a8c      0x12a 0x1 /usr/local/popcorn/x86_64/lib/libmigrate.a(trigger.o)
 .debug_line    0x0000000000004bb6      0x34a 0x1 /usr/local/popcorn/x86_64/lib/libmigrate.a(mapping.o)
 .debug_line    0x0000000000004f00      0x432 0x1 /usr/local/popcorn/x86_64/lib/libstack-transform.a(userspace.o)
 .debug_line    0x0000000000005332      0x2ca 0x1 /usr/local/popcorn/x86_64/lib/libstack-transform.a(init.o)
 .debug_line    0x00000000000055fc      0x6e1 0x1 /usr/local/popcorn/x86_64/lib/libstack-transform.a(rewrite.o)
 .debug_line    0x0000000000005cdd      0x447 0x1 /usr/local/popcorn/x86_64/lib/libstack-transform.a(unwind.o)
 .debug_line    0x0000000000006124      0x3b0 0x1 /usr/local/popcorn/x86_64/lib/libstack-transform.a(util.o)
 .debug_line    0x00000000000064d4       0xeb 0x1 /usr/local/popcorn/x86_64/lib/libstack-transform.a(properties.o)
 .debug_line    0x00000000000065bf      0x2e6 0x1 /usr/local/popcorn/x86_64/lib/libstack-transform.a(regs.o)
 .debug_line    0x00000000000068a5       0xf6 0x1 /usr/local/popcorn/x86_64/lib/libstack-transform.a(properties.o)
 .debug_line    0x000000000000699b      0x2f3 0x1 /usr/local/popcorn/x86_64/lib/libstack-transform.a(regs.o)
 .debug_line    0x0000000000006c8e       0xe4 0x1 /usr/local/popcorn/x86_64/lib/libstack-transform.a(properties.o)
 .debug_line    0x0000000000006d72      0x2c0 0x1 /usr/local/popcorn/x86_64/lib/libstack-transform.a(regs.o)
 .debug_line    0x0000000000007032      0x6bf 0x1 /usr/local/popcorn/x86_64/lib/libstack-transform.a(data.o)
 .debug_line    0x00000000000076f1       0x9b 0x1 /usr/local/popcorn/x86_64/lib/libc.a(arch_crash.o)
 .debug_line    0x000000000000778c       0x9b 0x1 /usr/local/popcorn/x86_64/lib/libc.a(getenv.o)
 .debug_line    0x0000000000007827      0x102 0x1 /usr/local/popcorn/x86_64/lib/libc.a(platform.o)
 .debug_line    0x0000000000007929       0x4e 0x1 /usr/local/popcorn/x86_64/lib/libc.a(assert.o)
 .debug_line    0x0000000000007977       0xc1 0x1 /usr/local/popcorn/x86_64/lib/libc.a(open.o)
 .debug_line    0x0000000000007a38       0xf8 0x1 /usr/local/popcorn/x86_64/lib/libc.a(calloc.o)
 .debug_line    0x0000000000007b30       0xd6 0x1 /usr/local/popcorn/x86_64/lib/libc.a(lite_malloc.o)
 .debug_line    0x0000000000007c06      0xc6a 0x1 /usr/local/popcorn/x86_64/lib/libc.a(malloc.o)
 .debug_line    0x0000000000008870      0xf10 0x1 /usr/local/popcorn/x86_64/lib/libc.a(popcorn_malloc.o)
 .debug_line    0x0000000000009780       0xfe 0x1 /usr/local/popcorn/x86_64/lib/libc.a(getrlimit.o)
 .debug_line    0x000000000000987e      0x172 0x1 /usr/local/popcorn/x86_64/lib/libc.a(syscall.o)
 .debug_line    0x00000000000099f0       0x95 0x1 /usr/local/popcorn/x86_64/lib/libc.a(madvise.o)
 .debug_line    0x0000000000009a85       0xe1 0x1 /usr/local/popcorn/x86_64/lib/libc.a(mremap.o)
 .debug_line    0x0000000000009b66      0x1bb 0x1 /usr/local/popcorn/x86_64/lib/libc.a(sigaction.o)
 .debug_line    0x0000000000009d21       0x70 0x1 /usr/local/popcorn/x86_64/lib/libc.a(sigemptyset.o)
 .debug_line    0x0000000000009d91       0x4b 0x1 /usr/local/popcorn/x86_64/lib/libc.a(sigrtmin.o)
 .debug_line    0x0000000000009ddc       0x3c 0x1 /usr/local/popcorn/x86_64/lib/libc.a(restore.o)
 .debug_line    0x0000000000009e18      0x10c 0x1 /usr/local/popcorn/x86_64/lib/libc.a(fclose.o)
 .debug_line    0x0000000000009f24      0x12e 0x1 /usr/local/popcorn/x86_64/lib/libc.a(fflush.o)
 .debug_line    0x000000000000a052       0xf4 0x1 /usr/local/popcorn/x86_64/lib/libc.a(fopen.o)
 .debug_line    0x000000000000a146       0x72 0x1 /usr/local/popcorn/x86_64/lib/libc.a(fprintf.o)
 .debug_line    0x000000000000a1b8       0x71 0x1 /usr/local/popcorn/x86_64/lib/libc.a(fscanf.o)
 .debug_line    0x000000000000a229      0x113 0x1 /usr/local/popcorn/x86_64/lib/libc.a(fseek.o)
 .debug_line    0x000000000000a33c       0xbe 0x1 /usr/local/popcorn/x86_64/lib/libc.a(getc.o)
 .debug_line    0x000000000000a3fa       0x68 0x1 /usr/local/popcorn/x86_64/lib/libc.a(getline.o)
 .debug_line    0x000000000000a462       0x73 0x1 /usr/local/popcorn/x86_64/lib/libc.a(snprintf.o)
 .debug_line    0x000000000000a4d5       0x71 0x1 /usr/local/popcorn/x86_64/lib/libc.a(sscanf.o)
 .debug_line    0x000000000000a546      0x663 0x1 /usr/local/popcorn/x86_64/lib/libc.a(vfscanf.o)
 .debug_line    0x000000000000aba9      0x136 0x1 /usr/local/popcorn/x86_64/lib/libc.a(vsnprintf.o)
 .debug_line    0x000000000000acdf       0xb6 0x1 /usr/local/popcorn/x86_64/lib/libc.a(vsscanf.o)
 .debug_line    0x000000000000ad95       0x92 0x1 /usr/local/popcorn/x86_64/lib/libc.a(bsearch.o)
 .debug_line    0x000000000000ae27      0x40e 0x1 /usr/local/popcorn/x86_64/lib/libc.a(qsort.o)
 .debug_line    0x000000000000b235      0x169 0x1 /usr/local/popcorn/x86_64/lib/libc.a(strtol.o)
 .debug_line    0x000000000000b39e       0x59 0x1 /usr/local/popcorn/x86_64/lib/libc.a(strchr.o)
 .debug_line    0x000000000000b3f7       0xe4 0x1 /usr/local/popcorn/x86_64/lib/libc.a(strchrnul.o)
 .debug_line    0x000000000000b4db       0x76 0x1 /usr/local/popcorn/x86_64/lib/libc.a(strcmp.o)
 .debug_line    0x000000000000b551       0x96 0x1 /usr/local/popcorn/x86_64/lib/libc.a(strncmp.o)
 .debug_line    0x000000000000b5e7       0x47 0x1 /usr/local/popcorn/x86_64/lib/libc.a(memmove.o)
 .debug_line    0x000000000000b62e      0x27d 0x1 /usr/local/popcorn/x86_64/lib/libc.a(pthread_attr_get.o)
 .debug_line    0x000000000000b8ab      0x119 0x1 /usr/local/popcorn/x86_64/lib/libc.a(pthread_getattr_np.o)
 .debug_line    0x000000000000b9c4      0x103 0x1 /usr/local/popcorn/x86_64/lib/libc.a(pthread_migrate.o)
 .debug_line    0x000000000000bac7       0xd5 0x1 /usr/local/popcorn/x86_64/lib/libc.a(pthread_self.o)
 .debug_line    0x000000000000bb9c       0x6d 0x1 /usr/local/popcorn/x86_64/lib/libc.a(close.o)
 .debug_line    0x000000000000bc09       0x95 0x1 /usr/local/popcorn/x86_64/lib/libc.a(lseek.o)
 .debug_line    0x000000000000bc9e       0x66 0x1 /usr/local/popcorn/x86_64/lib/libc.a(read.o)
 .debug_line    0x000000000000bd04       0x73 0x1 /usr/local/popcorn/x86_64/lib/libc.a(abort.o)
 .debug_line    0x000000000000bd77      0xd74 0x1 /usr/local/popcorn/x86_64/lib/libc.a(floatscan.o)
 .debug_line    0x000000000000caeb      0x388 0x1 /usr/local/popcorn/x86_64/lib/libc.a(intscan.o)
 .debug_line    0x000000000000ce73      0x12e 0x1 /usr/local/popcorn/x86_64/lib/libc.a(shgetc.o)
 .debug_line    0x000000000000cfa1      0x33d 0x1 /usr/local/popcorn/x86_64/lib/libc.a(expand_heap.o)
 .debug_line    0x000000000000d2de       0x93 0x1 /usr/local/popcorn/x86_64/lib/libc.a(copysignl.o)
 .debug_line    0x000000000000d371       0xa4 0x1 /usr/local/popcorn/x86_64/lib/libc.a(scalbn.o)
 .debug_line    0x000000000000d415       0xbb 0x1 /usr/local/popcorn/x86_64/lib/libc.a(scalbnl.o)
 .debug_line    0x000000000000d4d0       0x3d 0x1 /usr/local/popcorn/x86_64/lib/libc.a(fabs.o)
 .debug_line    0x000000000000d50d       0x40 0x1 /usr/local/popcorn/x86_64/lib/libc.a(fmodl.o)
 .debug_line    0x000000000000d54d      0x194 0x1 /usr/local/popcorn/x86_64/lib/libc.a(mbrtowc.o)
 .debug_line    0x000000000000d6e1       0x7e 0x1 /usr/local/popcorn/x86_64/lib/libc.a(mbsinit.o)
 .debug_line    0x000000000000d75f       0xa2 0x1 /usr/local/popcorn/x86_64/lib/libc.a(raise.o)
 .debug_line    0x000000000000d801      0x18b 0x1 /usr/local/popcorn/x86_64/lib/libc.a(__fdopen.o)
 .debug_line    0x000000000000d98c       0xb7 0x1 /usr/local/popcorn/x86_64/lib/libc.a(__fmodeflags.o)
 .debug_line    0x000000000000da43      0x121 0x1 /usr/local/popcorn/x86_64/lib/libc.a(__stdio_read.o)
 .debug_line    0x000000000000db64       0xc8 0x1 /usr/local/popcorn/x86_64/lib/libc.a(__string_read.o)
 .debug_line    0x000000000000dc2c       0xaa 0x1 /usr/local/popcorn/x86_64/lib/libc.a(__uflow.o)
 .debug_line    0x000000000000dcd6      0x1ab 0x1 /usr/local/popcorn/x86_64/lib/libc.a(getdelim.o)
 .debug_line    0x000000000000de81       0xa8 0x1 /usr/local/popcorn/x86_64/lib/libc.a(ofl_add.o)
 .debug_line    0x000000000000df29       0x58 0x1 /usr/local/popcorn/x86_64/lib/libc.a(internal.o)
 .debug_line    0x000000000000df81       0xe4 0x1 /usr/local/popcorn/x86_64/lib/libc.a(__toread.o)

.debug_frame    0x0000000000000000     0x2798
 .debug_frame   0x0000000000000000       0x38 0x8 /usr/local/popcorn/x86_64/lib/crt1.o
 .debug_frame   0x0000000000000038       0xd0 0x8 /usr/local/popcorn/x86_64/lib/libc.a(__libc_start_main.o)
 .debug_frame   0x0000000000000108       0x78 0x8 /usr/local/popcorn/x86_64/lib/libc.a(exit.o)
 .debug_frame   0x0000000000000180       0x48 0x8 /usr/local/popcorn/x86_64/lib/libc.a(perror.o)
 .debug_frame   0x00000000000001c8       0x38 0x8 /usr/local/popcorn/x86_64/lib/libc.a(printf.o)
 .debug_frame   0x0000000000000200      0x108 0x8 /usr/local/popcorn/x86_64/lib/libc.a(vfprintf.o)
 .debug_frame   0x0000000000000308       0x30 0x8 /usr/local/popcorn/x86_64/lib/libc.a(strlen.o)
 .debug_frame   0x0000000000000338       0x40 0x8 /usr/local/popcorn/x86_64/lib/libc.a(strnlen.o)
 .debug_frame   0x0000000000000378      0x118 0x8 /usr/local/popcorn/x86_64/lib/libc.a(pthread_create.o)
 .debug_frame   0x0000000000000490       0x88 0x8 /usr/local/popcorn/x86_64/lib/libc.a(pthread_join.o)
 .debug_frame   0x0000000000000518       0x30 0x8 /usr/local/popcorn/x86_64/lib/libc.a(pthread_setcancelstate.o)
 .debug_frame   0x0000000000000548       0x48 0x8 /usr/local/popcorn/x86_64/lib/libc.a(pthread_testcancel.o)
 .debug_frame   0x0000000000000590       0x68 0x8 /usr/local/popcorn/x86_64/lib/libc.a(vmlock.o)
 .debug_frame   0x00000000000005f8       0x30 0x8 /usr/local/popcorn/x86_64/lib/libc.a(getpid.o)
 .debug_frame   0x0000000000000628       0x30 0x8 /usr/local/popcorn/x86_64/lib/libc.a(gettid.o)
 .debug_frame   0x0000000000000658       0x38 0x8 /usr/local/popcorn/x86_64/lib/libc.a(sleep.o)
 .debug_frame   0x0000000000000690       0x90 0x8 /usr/local/popcorn/x86_64/lib/libc.a(__init_tls.o)
 .debug_frame   0x0000000000000720       0x30 0x8 /usr/local/popcorn/x86_64/lib/libc.a(__errno_location.o)
 .debug_frame   0x0000000000000750       0x48 0x8 /usr/local/popcorn/x86_64/lib/libc.a(strerror.o)
 .debug_frame   0x0000000000000798       0x30 0x8 /usr/local/popcorn/x86_64/lib/libc.a(_Exit.o)
 .debug_frame   0x00000000000007c8       0x60 0x8 /usr/local/popcorn/x86_64/lib/libc.a(__lctrans.o)
 .debug_frame   0x0000000000000828       0x30 0x8 /usr/local/popcorn/x86_64/lib/libc.a(__fpclassifyl.o)
 .debug_frame   0x0000000000000858       0x30 0x8 /usr/local/popcorn/x86_64/lib/libc.a(__signbitl.o)
 .debug_frame   0x0000000000000888       0x38 0x8 /usr/local/popcorn/x86_64/lib/libc.a(frexpl.o)
 .debug_frame   0x00000000000008c0       0x70 0x8 /usr/local/popcorn/x86_64/lib/libc.a(mmap.o)
 .debug_frame   0x0000000000000930       0x30 0x8 /usr/local/popcorn/x86_64/lib/libc.a(mprotect.o)
 .debug_frame   0x0000000000000960       0x58 0x8 /usr/local/popcorn/x86_64/lib/libc.a(munmap.o)
 .debug_frame   0x00000000000009b8       0x38 0x8 /usr/local/popcorn/x86_64/lib/libc.a(wctomb.o)
 .debug_frame   0x00000000000009f0       0x60 0x8 /usr/local/popcorn/x86_64/lib/libc.a(block.o)
 .debug_frame   0x0000000000000a50       0x60 0x8 /usr/local/popcorn/x86_64/lib/libc.a(__lockfile.o)
 .debug_frame   0x0000000000000ab0       0x50 0x8 /usr/local/popcorn/x86_64/lib/libc.a(__stdio_close.o)
 .debug_frame   0x0000000000000b00       0x30 0x8 /usr/local/popcorn/x86_64/lib/libc.a(__stdio_seek.o)
 .debug_frame   0x0000000000000b30       0x58 0x8 /usr/local/popcorn/x86_64/lib/libc.a(__stdio_write.o)
 .debug_frame   0x0000000000000b88       0x38 0x8 /usr/local/popcorn/x86_64/lib/libc.a(__stdout_write.o)
 .debug_frame   0x0000000000000bc0       0x40 0x8 /usr/local/popcorn/x86_64/lib/libc.a(fputc.o)
 .debug_frame   0x0000000000000c00       0x90 0x8 /usr/local/popcorn/x86_64/lib/libc.a(fwrite.o)
 .debug_frame   0x0000000000000c90       0x50 0x8 /usr/local/popcorn/x86_64/lib/libc.a(ofl.o)
 .debug_frame   0x0000000000000ce0       0x30 0x8 /usr/local/popcorn/x86_64/lib/libc.a(memchr.o)
 .debug_frame   0x0000000000000d10       0x58 0x8 /usr/local/popcorn/x86_64/lib/libc.a(__lock.o)
 .debug_frame   0x0000000000000d68       0x80 0x8 /usr/local/popcorn/x86_64/lib/libc.a(__timedwait.o)
 .debug_frame   0x0000000000000de8       0x38 0x8 /usr/local/popcorn/x86_64/lib/libc.a(__wait.o)
 .debug_frame   0x0000000000000e20       0x38 0x8 /usr/local/popcorn/x86_64/lib/libc.a(clock_gettime.o)
 .debug_frame   0x0000000000000e58       0x38 0x8 /usr/local/popcorn/x86_64/lib/libc.a(nanosleep.o)
 .debug_frame   0x0000000000000e90       0x38 0x8 /usr/local/popcorn/x86_64/lib/libc.a(syscall_ret.o)
 .debug_frame   0x0000000000000ec8       0x38 0x8 /usr/local/popcorn/x86_64/lib/libc.a(wcrtomb.o)
 .debug_frame   0x0000000000000f00       0x40 0x8 /usr/local/popcorn/x86_64/lib/libc.a(__overflow.o)
 .debug_frame   0x0000000000000f40       0x48 0x8 /usr/local/popcorn/x86_64/lib/libc.a(__towrite.o)
 .debug_frame   0x0000000000000f88       0x50 0x8 /usr/local/popcorn/x86_64/lib/libc.a(__syscall_cp.o)
 .debug_frame   0x0000000000000fd8       0x58 0x8 /usr/local/popcorn/x86_64/lib/libc.a(__stdio_exit.o)
 .debug_frame   0x0000000000001030       0x88 0x8 /usr/local/popcorn/x86_64/lib/libc.a(arch_crash.o)
 .debug_frame   0x00000000000010b8       0x48 0x8 /usr/local/popcorn/x86_64/lib/libc.a(getenv.o)
 .debug_frame   0x0000000000001100       0x78 0x8 /usr/local/popcorn/x86_64/lib/libc.a(platform.o)
 .debug_frame   0x0000000000001178       0x38 0x8 /usr/local/popcorn/x86_64/lib/libc.a(assert.o)
 .debug_frame   0x00000000000011b0       0x40 0x8 /usr/local/popcorn/x86_64/lib/libc.a(open.o)
 .debug_frame   0x00000000000011f0       0x80 0x8 /usr/local/popcorn/x86_64/lib/libc.a(calloc.o)
 .debug_frame   0x0000000000001270       0x48 0x8 /usr/local/popcorn/x86_64/lib/libc.a(lite_malloc.o)
 .debug_frame   0x00000000000012b8      0x1a0 0x8 /usr/local/popcorn/x86_64/lib/libc.a(malloc.o)
 .debug_frame   0x0000000000001458      0x158 0x8 /usr/local/popcorn/x86_64/lib/libc.a(popcorn_malloc.o)
 .debug_frame   0x00000000000015b0       0x48 0x8 /usr/local/popcorn/x86_64/lib/libc.a(getrlimit.o)
 .debug_frame   0x00000000000015f8       0x40 0x8 /usr/local/popcorn/x86_64/lib/libc.a(syscall.o)
 .debug_frame   0x0000000000001638       0x30 0x8 /usr/local/popcorn/x86_64/lib/libc.a(madvise.o)
 .debug_frame   0x0000000000001668       0x68 0x8 /usr/local/popcorn/x86_64/lib/libc.a(mremap.o)
 .debug_frame   0x00000000000016d0       0x80 0x8 /usr/local/popcorn/x86_64/lib/libc.a(sigaction.o)
 .debug_frame   0x0000000000001750       0x30 0x8 /usr/local/popcorn/x86_64/lib/libc.a(sigemptyset.o)
 .debug_frame   0x0000000000001780       0x30 0x8 /usr/local/popcorn/x86_64/lib/libc.a(sigrtmin.o)
 .debug_frame   0x00000000000017b0       0x68 0x8 /usr/local/popcorn/x86_64/lib/libc.a(fclose.o)
 .debug_frame   0x0000000000001818       0x48 0x8 /usr/local/popcorn/x86_64/lib/libc.a(fflush.o)
 .debug_frame   0x0000000000001860       0x40 0x8 /usr/local/popcorn/x86_64/lib/libc.a(fopen.o)
 .debug_frame   0x00000000000018a0       0x38 0x8 /usr/local/popcorn/x86_64/lib/libc.a(fprintf.o)
 .debug_frame   0x00000000000018d8       0x38 0x8 /usr/local/popcorn/x86_64/lib/libc.a(fscanf.o)
 .debug_frame   0x0000000000001910       0x90 0x8 /usr/local/popcorn/x86_64/lib/libc.a(fseek.o)
 .debug_frame   0x00000000000019a0       0x40 0x8 /usr/local/popcorn/x86_64/lib/libc.a(getc.o)
 .debug_frame   0x00000000000019e0       0x30 0x8 /usr/local/popcorn/x86_64/lib/libc.a(getline.o)
 .debug_frame   0x0000000000001a10       0x38 0x8 /usr/local/popcorn/x86_64/lib/libc.a(snprintf.o)
 .debug_frame   0x0000000000001a48       0x38 0x8 /usr/local/popcorn/x86_64/lib/libc.a(sscanf.o)
 .debug_frame   0x0000000000001a80       0x58 0x8 /usr/local/popcorn/x86_64/lib/libc.a(vfscanf.o)
 .debug_frame   0x0000000000001ad8       0x90 0x8 /usr/local/popcorn/x86_64/lib/libc.a(vsnprintf.o)
 .debug_frame   0x0000000000001b68       0x60 0x8 /usr/local/popcorn/x86_64/lib/libc.a(vsscanf.o)
 .debug_frame   0x0000000000001bc8       0x58 0x8 /usr/local/popcorn/x86_64/lib/libc.a(bsearch.o)
 .debug_frame   0x0000000000001c20      0x118 0x8 /usr/local/popcorn/x86_64/lib/libc.a(qsort.o)
 .debug_frame   0x0000000000001d38       0xe0 0x8 /usr/local/popcorn/x86_64/lib/libc.a(strtol.o)
 .debug_frame   0x0000000000001e18       0x38 0x8 /usr/local/popcorn/x86_64/lib/libc.a(strchr.o)
 .debug_frame   0x0000000000001e50       0x38 0x8 /usr/local/popcorn/x86_64/lib/libc.a(strchrnul.o)
 .debug_frame   0x0000000000001e88       0x30 0x8 /usr/local/popcorn/x86_64/lib/libc.a(strcmp.o)
 .debug_frame   0x0000000000001eb8       0x30 0x8 /usr/local/popcorn/x86_64/lib/libc.a(strncmp.o)
 .debug_frame   0x0000000000001ee8      0x198 0x8 /usr/local/popcorn/x86_64/lib/libc.a(pthread_attr_get.o)
 .debug_frame   0x0000000000002080       0x48 0x8 /usr/local/popcorn/x86_64/lib/libc.a(pthread_getattr_np.o)
 .debug_frame   0x00000000000020c8       0x48 0x8 /usr/local/popcorn/x86_64/lib/libc.a(pthread_migrate.o)
 .debug_frame   0x0000000000002110       0x30 0x8 /usr/local/popcorn/x86_64/lib/libc.a(pthread_self.o)
 .debug_frame   0x0000000000002140       0x50 0x8 /usr/local/popcorn/x86_64/lib/libc.a(close.o)
 .debug_frame   0x0000000000002190       0x30 0x8 /usr/local/popcorn/x86_64/lib/libc.a(lseek.o)
 .debug_frame   0x00000000000021c0       0x38 0x8 /usr/local/popcorn/x86_64/lib/libc.a(read.o)
 .debug_frame   0x00000000000021f8       0x38 0x8 /usr/local/popcorn/x86_64/lib/libc.a(abort.o)
 .debug_frame   0x0000000000002230       0x98 0x8 /usr/local/popcorn/x86_64/lib/libc.a(floatscan.o)
 .debug_frame   0x00000000000022c8       0x58 0x8 /usr/local/popcorn/x86_64/lib/libc.a(intscan.o)
 .debug_frame   0x0000000000002320       0x50 0x8 /usr/local/popcorn/x86_64/lib/libc.a(shgetc.o)
 .debug_frame   0x0000000000002370       0x98 0x8 /usr/local/popcorn/x86_64/lib/libc.a(expand_heap.o)
 .debug_frame   0x0000000000002408       0x30 0x8 /usr/local/popcorn/x86_64/lib/libc.a(copysignl.o)
 .debug_frame   0x0000000000002438       0x30 0x8 /usr/local/popcorn/x86_64/lib/libc.a(scalbn.o)
 .debug_frame   0x0000000000002468       0x30 0x8 /usr/local/popcorn/x86_64/lib/libc.a(scalbnl.o)
 .debug_frame   0x0000000000002498       0x40 0x8 /usr/local/popcorn/x86_64/lib/libc.a(mbrtowc.o)
 .debug_frame   0x00000000000024d8       0x30 0x8 /usr/local/popcorn/x86_64/lib/libc.a(mbsinit.o)
 .debug_frame   0x0000000000002508       0x40 0x8 /usr/local/popcorn/x86_64/lib/libc.a(raise.o)
 .debug_frame   0x0000000000002548       0x48 0x8 /usr/local/popcorn/x86_64/lib/libc.a(__fdopen.o)
 .debug_frame   0x0000000000002590       0x40 0x8 /usr/local/popcorn/x86_64/lib/libc.a(__fmodeflags.o)
 .debug_frame   0x00000000000025d0       0x48 0x8 /usr/local/popcorn/x86_64/lib/libc.a(__stdio_read.o)
 .debug_frame   0x0000000000002618       0x58 0x8 /usr/local/popcorn/x86_64/lib/libc.a(__string_read.o)
 .debug_frame   0x0000000000002670       0x40 0x8 /usr/local/popcorn/x86_64/lib/libc.a(__uflow.o)
 .debug_frame   0x00000000000026b0       0x58 0x8 /usr/local/popcorn/x86_64/lib/libc.a(getdelim.o)
 .debug_frame   0x0000000000002708       0x38 0x8 /usr/local/popcorn/x86_64/lib/libc.a(ofl_add.o)
 .debug_frame   0x0000000000002740       0x58 0x8 /usr/local/popcorn/x86_64/lib/libc.a(__toread.o)

.debug_aranges  0x0000000000000000      0x210
 .debug_aranges
                0x0000000000000000       0x30 0x1 /usr/local/popcorn/x86_64/lib/libc.a(memset.o)
 .debug_aranges
                0x0000000000000030       0x30 0x1 /usr/local/popcorn/x86_64/lib/libc.a(__cleartid_exit_nostack.o)
 .debug_aranges
                0x0000000000000060       0x30 0x1 /usr/local/popcorn/x86_64/lib/libc.a(__unmapself.o)
 .debug_aranges
                0x0000000000000090       0x30 0x1 /usr/local/popcorn/x86_64/lib/libc.a(clone.o)
 .debug_aranges
                0x00000000000000c0       0x30 0x1 /usr/local/popcorn/x86_64/lib/libc.a(memcpy.o)
 .debug_aranges
                0x00000000000000f0       0x30 0x1 /usr/local/popcorn/x86_64/lib/libc.a(__set_thread_area.o)
 .debug_aranges
                0x0000000000000120       0x30 0x1 /usr/local/popcorn/x86_64/lib/libc.a(syscall.o)
 .debug_aranges
                0x0000000000000150       0x30 0x1 /usr/local/popcorn/x86_64/lib/libc.a(restore.o)
 .debug_aranges
                0x0000000000000180       0x30 0x1 /usr/local/popcorn/x86_64/lib/libc.a(memmove.o)
 .debug_aranges
                0x00000000000001b0       0x30 0x1 /usr/local/popcorn/x86_64/lib/libc.a(fabs.o)
 .debug_aranges
                0x00000000000001e0       0x30 0x1 /usr/local/popcorn/x86_64/lib/libc.a(fmodl.o)

.note.gnu.gold-version
                0x0000000000000000       0x1c
 ** note header
                0x0000000000000000       0x10
 ** fill        0x0000000000000010        0x9
 ** zero fill   0x0000000000000019        0x3

.symtab         0x0000000000000000     0x5bf8
 ** symtab      0x0000000000000000     0x5bf8

.strtab         0x0000000000000000     0x3e3b
 ** string table
                0x0000000000000000     0x3e3b

.shstrtab       0x0000000000000000      0x15c
 ** string table
                0x0000000000000000      0x15c
