Archive member included because of file (symbol)

/usr/local/popcorn/aarch64/lib/libc.a(__libc_start_main.o)
                              /usr/local/popcorn/aarch64/lib/crt1.o (__libc_start_main)
/usr/local/popcorn/aarch64/lib/libc.a(exit.o)
                              /usr/local/popcorn/aarch64/lib/libc.a(__libc_start_main.o) (exit)
/usr/local/popcorn/aarch64/lib/libc.a(libc.o)
                              /usr/local/popcorn/aarch64/lib/libc.a(__libc_start_main.o) (__hwcap)
/usr/local/popcorn/aarch64/lib/libc.a(perror.o)
                              popcorn-migratemep_aarch64.o (perror)
/usr/local/popcorn/aarch64/lib/libc.a(printf.o)
                              popcorn-migratemep_aarch64.o (printf)
/usr/local/popcorn/aarch64/lib/libc.a(stderr.o)
                              /usr/local/popcorn/aarch64/lib/libc.a(perror.o) (stderr)
/usr/local/popcorn/aarch64/lib/libc.a(stdout.o)
                              /usr/local/popcorn/aarch64/lib/libc.a(printf.o) (stdout)
/usr/local/popcorn/aarch64/lib/libc.a(vfprintf.o)
                              /usr/local/popcorn/aarch64/lib/libc.a(printf.o) (vfprintf)
/usr/local/popcorn/aarch64/lib/libc.a(memset.o)
                              /usr/local/popcorn/aarch64/lib/libc.a(__libc_start_main.o) (memset)
/usr/local/popcorn/aarch64/lib/libc.a(strlen.o)
                              /usr/local/popcorn/aarch64/lib/libc.a(perror.o) (strlen)
/usr/local/popcorn/aarch64/lib/libc.a(strnlen.o)
                              /usr/local/popcorn/aarch64/lib/libc.a(vfprintf.o) (strnlen)
/usr/local/popcorn/aarch64/lib/libc.a(pthread_create.o)
                              popcorn-migratemep_aarch64.o (pthread_create)
/usr/local/popcorn/aarch64/lib/libc.a(pthread_join.o)
                              popcorn-migratemep_aarch64.o (pthread_join)
/usr/local/popcorn/aarch64/lib/libc.a(pthread_setcancelstate.o)
                              /usr/local/popcorn/aarch64/lib/libc.a(pthread_join.o) (__pthread_setcancelstate)
/usr/local/popcorn/aarch64/lib/libc.a(pthread_testcancel.o)
                              /usr/local/popcorn/aarch64/lib/libc.a(pthread_join.o) (__pthread_testcancel)
/usr/local/popcorn/aarch64/lib/libc.a(vmlock.o)
                              /usr/local/popcorn/aarch64/lib/libc.a(pthread_create.o) (__vm_lock)
/usr/local/popcorn/aarch64/lib/libc.a(getpid.o)
                              popcorn-migratemep_aarch64.o (getpid)
/usr/local/popcorn/aarch64/lib/libc.a(gettid.o)
                              popcorn-migratemep_aarch64.o (gettid)
/usr/local/popcorn/aarch64/lib/libc.a(sleep.o)
                              popcorn-migratemep_aarch64.o (sleep)
/usr/local/popcorn/aarch64/lib/libc.a(__environ.o)
                              /usr/local/popcorn/aarch64/lib/libc.a(__libc_start_main.o) (__environ)
/usr/local/popcorn/aarch64/lib/libc.a(__init_tls.o)
                              /usr/local/popcorn/aarch64/lib/libc.a(pthread_create.o) (__copy_tls)
/usr/local/popcorn/aarch64/lib/libc.a(__errno_location.o)
                              /usr/local/popcorn/aarch64/lib/libc.a(perror.o) (__errno_location)
/usr/local/popcorn/aarch64/lib/libc.a(strerror.o)
                              /usr/local/popcorn/aarch64/lib/libc.a(perror.o) (strerror)
/usr/local/popcorn/aarch64/lib/libc.a(_Exit.o)
                              /usr/local/popcorn/aarch64/lib/libc.a(exit.o) (_Exit)
/usr/local/popcorn/aarch64/lib/libc.a(__lctrans.o)
                              /usr/local/popcorn/aarch64/lib/libc.a(strerror.o) (__lctrans)
/usr/local/popcorn/aarch64/lib/libc.a(__fpclassifyl.o)
                              /usr/local/popcorn/aarch64/lib/libc.a(vfprintf.o) (__fpclassifyl)
/usr/local/popcorn/aarch64/lib/libc.a(__signbitl.o)
                              /usr/local/popcorn/aarch64/lib/libc.a(vfprintf.o) (__signbitl)
/usr/local/popcorn/aarch64/lib/libc.a(frexpl.o)
                              /usr/local/popcorn/aarch64/lib/libc.a(vfprintf.o) (frexpl)
/usr/local/popcorn/aarch64/lib/libc.a(mmap.o)
                              /usr/local/popcorn/aarch64/lib/libc.a(pthread_create.o) (__mmap)
/usr/local/popcorn/aarch64/lib/libc.a(mprotect.o)
                              /usr/local/popcorn/aarch64/lib/libc.a(pthread_create.o) (__mprotect)
/usr/local/popcorn/aarch64/lib/libc.a(munmap.o)
                              /usr/local/popcorn/aarch64/lib/libc.a(pthread_create.o) (__munmap)
/usr/local/popcorn/aarch64/lib/libc.a(wctomb.o)
                              /usr/local/popcorn/aarch64/lib/libc.a(vfprintf.o) (wctomb)
/usr/local/popcorn/aarch64/lib/libc.a(block.o)
                              /usr/local/popcorn/aarch64/lib/libc.a(pthread_create.o) (__block_all_sigs)
/usr/local/popcorn/aarch64/lib/libc.a(__lockfile.o)
                              /usr/local/popcorn/aarch64/lib/libc.a(perror.o) (__lockfile)
/usr/local/popcorn/aarch64/lib/libc.a(__stdio_close.o)
                              /usr/local/popcorn/aarch64/lib/libc.a(stderr.o) (__stdio_close)
/usr/local/popcorn/aarch64/lib/libc.a(__stdio_seek.o)
                              /usr/local/popcorn/aarch64/lib/libc.a(stderr.o) (__stdio_seek)
/usr/local/popcorn/aarch64/lib/libc.a(__stdio_write.o)
                              /usr/local/popcorn/aarch64/lib/libc.a(stderr.o) (__stdio_write)
/usr/local/popcorn/aarch64/lib/libc.a(__stdout_write.o)
                              /usr/local/popcorn/aarch64/lib/libc.a(stdout.o) (__stdout_write)
/usr/local/popcorn/aarch64/lib/libc.a(fputc.o)
                              /usr/local/popcorn/aarch64/lib/libc.a(perror.o) (fputc)
/usr/local/popcorn/aarch64/lib/libc.a(fwrite.o)
                              /usr/local/popcorn/aarch64/lib/libc.a(vfprintf.o) (__fwritex)
/usr/local/popcorn/aarch64/lib/libc.a(ofl.o)
                              /usr/local/popcorn/aarch64/lib/libc.a(pthread_create.o) (__ofl_lock)
/usr/local/popcorn/aarch64/lib/libc.a(memchr.o)
                              /usr/local/popcorn/aarch64/lib/libc.a(strnlen.o) (memchr)
/usr/local/popcorn/aarch64/lib/libc.a(memcpy.o)
                              /usr/local/popcorn/aarch64/lib/libc.a(__init_tls.o) (memcpy)
/usr/local/popcorn/aarch64/lib/libc.a(__lock.o)
                              /usr/local/popcorn/aarch64/lib/libc.a(pthread_create.o) (__lock)
/usr/local/popcorn/aarch64/lib/libc.a(__timedwait.o)
                              /usr/local/popcorn/aarch64/lib/libc.a(pthread_join.o) (__timedwait_cp)
/usr/local/popcorn/aarch64/lib/libc.a(__wait.o)
                              /usr/local/popcorn/aarch64/lib/libc.a(pthread_create.o) (__wait)
/usr/local/popcorn/aarch64/lib/libc.a(__cleartid_exit_nostack.o)
                              /usr/local/popcorn/aarch64/lib/libc.a(pthread_create.o) (__cleartid_exit_nostack)
/usr/local/popcorn/aarch64/lib/libc.a(__set_thread_area.o)
                              /usr/local/popcorn/aarch64/lib/libc.a(__init_tls.o) (__set_thread_area)
/usr/local/popcorn/aarch64/lib/libc.a(__unmapself.o)
                              /usr/local/popcorn/aarch64/lib/libc.a(pthread_create.o) (__unmapself)
/usr/local/popcorn/aarch64/lib/libc.a(clone.o)
                              /usr/local/popcorn/aarch64/lib/libc.a(pthread_create.o) (__clone)
/usr/local/popcorn/aarch64/lib/libc.a(clock_gettime.o)
                              /usr/local/popcorn/aarch64/lib/libc.a(__timedwait.o) (__clock_gettime)
/usr/local/popcorn/aarch64/lib/libc.a(nanosleep.o)
                              /usr/local/popcorn/aarch64/lib/libc.a(sleep.o) (nanosleep)
/usr/local/popcorn/aarch64/lib/libc.a(syscall_ret.o)
                              /usr/local/popcorn/aarch64/lib/libc.a(mmap.o) (__syscall_ret)
/usr/local/popcorn/aarch64/lib/libc.a(wcrtomb.o)
                              /usr/local/popcorn/aarch64/lib/libc.a(wctomb.o) (wcrtomb)
/usr/local/popcorn/aarch64/lib/libc.a(__overflow.o)
                              /usr/local/popcorn/aarch64/lib/libc.a(fputc.o) (__overflow)
/usr/local/popcorn/aarch64/lib/libc.a(__towrite.o)
                              /usr/local/popcorn/aarch64/lib/libc.a(fwrite.o) (__towrite)
/usr/local/popcorn/aarch64/lib/libc.a(__syscall_cp.o)
                              /usr/local/popcorn/aarch64/lib/libc.a(__timedwait.o) (__syscall_cp)
/usr/local/popcorn/aarch64/lib/libc.a(syscall.o)
                              /usr/local/popcorn/aarch64/lib/libc.a(__syscall_cp.o) (__syscall)
/usr/local/popcorn/aarch64/lib/libc.a(__stdio_exit.o)
                              /usr/local/popcorn/aarch64/lib/libc.a(__towrite.o) (__stdio_exit_needed)
/usr/local/popcorn/aarch64/lib/libmigrate.a(migrate.o)
                              popcorn-migratemep_aarch64.o (check_migrate)
/usr/local/popcorn/aarch64/lib/libmigrate.a(trigger.o)
                              /usr/local/popcorn/aarch64/lib/libmigrate.a(migrate.o) (clear_migrate_flag)
/usr/local/popcorn/aarch64/lib/libmigrate.a(migrate_x86_64.o)
                              /usr/local/popcorn/aarch64/lib/libmigrate.a(migrate.o) (__migrate_fixup_x86_64)
/usr/local/popcorn/aarch64/lib/libmigrate.a(migrate_aarch64.o)
                              /usr/local/popcorn/aarch64/lib/libmigrate.a(migrate.o) (__migrate_fixup_aarch64)
/usr/local/popcorn/aarch64/lib/libmigrate.a(migrate_powerpc64.o)
                              /usr/local/popcorn/aarch64/lib/libmigrate.a(migrate.o) (__migrate_fixup_powerpc64)
/usr/local/popcorn/aarch64/lib/libmigrate.a(mapping.o)
                              /usr/local/popcorn/aarch64/lib/libmigrate.a(migrate.o) (get_node_mapping)
/usr/local/popcorn/aarch64/lib/libstack-transform.a(userspace.o)
                              /usr/local/popcorn/aarch64/lib/libmigrate.a(migrate.o) (st_userspace_rewrite)
/usr/local/popcorn/aarch64/lib/libstack-transform.a(init.o)
                              /usr/local/popcorn/aarch64/lib/libstack-transform.a(userspace.o) (st_destroy)
/usr/local/popcorn/aarch64/lib/libstack-transform.a(rewrite.o)
                              /usr/local/popcorn/aarch64/lib/libstack-transform.a(userspace.o) (st_rewrite_stack)
/usr/local/popcorn/aarch64/lib/libstack-transform.a(unwind.o)
                              /usr/local/popcorn/aarch64/lib/libstack-transform.a(rewrite.o) (bootstrap_first_frame)
/usr/local/popcorn/aarch64/lib/libstack-transform.a(util.o)
                              /usr/local/popcorn/aarch64/lib/libstack-transform.a(rewrite.o) (get_function_address)
/usr/local/popcorn/aarch64/lib/libstack-transform.a(properties.o)
                              /usr/local/popcorn/aarch64/lib/libstack-transform.a(util.o) (properties_aarch64)
/usr/local/popcorn/aarch64/lib/libstack-transform.a(regs.o)
                              /usr/local/popcorn/aarch64/lib/libstack-transform.a(util.o) (regs_aarch64)
/usr/local/popcorn/aarch64/lib/libstack-transform.a(properties.o)
                              /usr/local/popcorn/aarch64/lib/libstack-transform.a(util.o) (properties_powerpc64)
/usr/local/popcorn/aarch64/lib/libstack-transform.a(regs.o)
                              /usr/local/popcorn/aarch64/lib/libstack-transform.a(util.o) (regs_powerpc64)
/usr/local/popcorn/aarch64/lib/libstack-transform.a(properties.o)
                              /usr/local/popcorn/aarch64/lib/libstack-transform.a(util.o) (properties_x86_64)
/usr/local/popcorn/aarch64/lib/libstack-transform.a(regs.o)
                              /usr/local/popcorn/aarch64/lib/libstack-transform.a(util.o) (regs_x86_64)
/usr/local/popcorn/aarch64/lib/libstack-transform.a(data.o)
                              /usr/local/popcorn/aarch64/lib/libstack-transform.a(rewrite.o) (get_savedfbp_loc)
/usr/local/popcorn/aarch64/lib/libelf.a(begin.o)
                              /usr/local/popcorn/aarch64/lib/libstack-transform.a(init.o) (elf_begin)
/usr/local/popcorn/aarch64/lib/libelf.a(end.o)
                              /usr/local/popcorn/aarch64/lib/libstack-transform.a(init.o) (elf_end)
/usr/local/popcorn/aarch64/lib/libelf.a(getdata.o)
                              /usr/local/popcorn/aarch64/lib/libstack-transform.a(util.o) (elf_getdata)
/usr/local/popcorn/aarch64/lib/libelf.a(getident.o)
                              /usr/local/popcorn/aarch64/lib/libstack-transform.a(init.o) (elf_getident)
/usr/local/popcorn/aarch64/lib/libelf.a(nextscn.o)
                              /usr/local/popcorn/aarch64/lib/libstack-transform.a(util.o) (elf_nextscn)
/usr/local/popcorn/aarch64/lib/libelf.a(strptr.o)
                              /usr/local/popcorn/aarch64/lib/libstack-transform.a(util.o) (elf_strptr)
/usr/local/popcorn/aarch64/lib/libelf.a(version.o)
                              /usr/local/popcorn/aarch64/lib/libstack-transform.a(userspace.o) (elf_version)
/usr/local/popcorn/aarch64/lib/libelf.a(32.getehdr.o)
                              /usr/local/popcorn/aarch64/lib/libstack-transform.a(init.o) (elf64_getehdr)
/usr/local/popcorn/aarch64/lib/libelf.a(32.xlatetof.o)
                              /usr/local/popcorn/aarch64/lib/libelf.a(getdata.o) (_elf32_xltsize)
/usr/local/popcorn/aarch64/lib/libelf.a(cook.o)
                              /usr/local/popcorn/aarch64/lib/libelf.a(getident.o) (_elf_cook)
/usr/local/popcorn/aarch64/lib/libelf.a(data.o)
                              /usr/local/popcorn/aarch64/lib/libelf.a(begin.o) (_elf_errno)
/usr/local/popcorn/aarch64/lib/libelf.a(input.o)
                              /usr/local/popcorn/aarch64/lib/libelf.a(begin.o) (_elf_read)
/usr/local/popcorn/aarch64/lib/libelf.a(x.elfext.o)
                              /usr/local/popcorn/aarch64/lib/libstack-transform.a(util.o) (elf_getshdrstrndx)
/usr/local/popcorn/aarch64/lib/libelf.a(64.xlatetof.o)
                              /usr/local/popcorn/aarch64/lib/libelf.a(getdata.o) (_elf64_xltsize)
/usr/local/popcorn/aarch64/lib/libelf.a(gelfshdr.o)
                              /usr/local/popcorn/aarch64/lib/libstack-transform.a(util.o) (gelf_getshdr)
/usr/local/popcorn/aarch64/lib/libelf.a(swap64.o)
                              /usr/local/popcorn/aarch64/lib/libelf.a(64.xlatetof.o) (_elf_load_i64L)
/usr/local/popcorn/aarch64/lib/libelf.a(verdef_32_tof.o)
                              /usr/local/popcorn/aarch64/lib/libelf.a(32.xlatetof.o) (_elf_verdef_32L11_tof)
/usr/local/popcorn/aarch64/lib/libelf.a(verdef_32_tom.o)
                              /usr/local/popcorn/aarch64/lib/libelf.a(32.xlatetof.o) (_elf_verdef_32L11_tom)
/usr/local/popcorn/aarch64/lib/libelf.a(verdef_64_tof.o)
                              /usr/local/popcorn/aarch64/lib/libelf.a(64.xlatetof.o) (_elf_verdef_64L11_tof)
/usr/local/popcorn/aarch64/lib/libelf.a(verdef_64_tom.o)
                              /usr/local/popcorn/aarch64/lib/libelf.a(64.xlatetof.o) (_elf_verdef_64L11_tom)
/usr/local/popcorn/aarch64/lib/libelf.a(getscn.o)
                              /usr/local/popcorn/aarch64/lib/libelf.a(strptr.o) (elf_getscn)
/usr/local/popcorn/aarch64/lib/libelf.a(newscn.o)
                              /usr/local/popcorn/aarch64/lib/libelf.a(x.elfext.o) (_elf_first_scn)
/usr/local/popcorn/aarch64/lib/libelf.a(32.fsize.o)
                              /usr/local/popcorn/aarch64/lib/libelf.a(cook.o) (_elf_fmsize)
/usr/local/popcorn/aarch64/lib/libc.a(arch_crash.o)
                              /usr/local/popcorn/aarch64/lib/libmigrate.a(migrate_aarch64.o) (crash_aarch64)
/usr/local/popcorn/aarch64/lib/libc.a(getenv.o)
                              /usr/local/popcorn/aarch64/lib/libmigrate.a(mapping.o) (getenv)
/usr/local/popcorn/aarch64/lib/libc.a(platform.o)
                              /usr/local/popcorn/aarch64/lib/libmigrate.a(migrate.o) (popcorn_getnid)
/usr/local/popcorn/aarch64/lib/libc.a(assert.o)
                              /usr/local/popcorn/aarch64/lib/libmigrate.a(migrate.o) (__assert_fail)
/usr/local/popcorn/aarch64/lib/libc.a(open.o)
                              /usr/local/popcorn/aarch64/lib/libstack-transform.a(init.o) (open)
/usr/local/popcorn/aarch64/lib/libc.a(calloc.o)
                              /usr/local/popcorn/aarch64/lib/libmigrate.a(mapping.o) (calloc)
/usr/local/popcorn/aarch64/lib/libc.a(lite_malloc.o)
                              /usr/local/popcorn/aarch64/lib/libc.a(calloc.o) (__malloc0)
/usr/local/popcorn/aarch64/lib/libc.a(malloc.o)
                              /usr/local/popcorn/aarch64/lib/libmigrate.a(mapping.o) (free)
/usr/local/popcorn/aarch64/lib/libc.a(popcorn_malloc.o)
                              /usr/local/popcorn/aarch64/lib/libc.a(calloc.o) (__popcorn_malloc0)
/usr/local/popcorn/aarch64/lib/libc.a(getrlimit.o)
                              /usr/local/popcorn/aarch64/lib/libstack-transform.a(userspace.o) (getrlimit)
/usr/local/popcorn/aarch64/lib/libc.a(syscall.o)
                              /usr/local/popcorn/aarch64/lib/libmigrate.a(trigger.o) (syscall)
/usr/local/popcorn/aarch64/lib/libc.a(madvise.o)
                              /usr/local/popcorn/aarch64/lib/libc.a(malloc.o) (__madvise)
/usr/local/popcorn/aarch64/lib/libc.a(mremap.o)
                              /usr/local/popcorn/aarch64/lib/libc.a(malloc.o) (__mremap)
/usr/local/popcorn/aarch64/lib/libc.a(sigaction.o)
                              /usr/local/popcorn/aarch64/lib/libmigrate.a(trigger.o) (sigaction)
/usr/local/popcorn/aarch64/lib/libc.a(sigemptyset.o)
                              /usr/local/popcorn/aarch64/lib/libmigrate.a(trigger.o) (sigemptyset)
/usr/local/popcorn/aarch64/lib/libc.a(sigrtmin.o)
                              /usr/local/popcorn/aarch64/lib/libmigrate.a(trigger.o) (__libc_current_sigrtmin)
/usr/local/popcorn/aarch64/lib/libc.a(fclose.o)
                              /usr/local/popcorn/aarch64/lib/libmigrate.a(mapping.o) (fclose)
/usr/local/popcorn/aarch64/lib/libc.a(fflush.o)
                              /usr/local/popcorn/aarch64/lib/libc.a(assert.o) (fflush)
/usr/local/popcorn/aarch64/lib/libc.a(fopen.o)
                              /usr/local/popcorn/aarch64/lib/libmigrate.a(mapping.o) (fopen)
/usr/local/popcorn/aarch64/lib/libc.a(fprintf.o)
                              /usr/local/popcorn/aarch64/lib/libstack-transform.a(rewrite.o) (fprintf)
/usr/local/popcorn/aarch64/lib/libc.a(fscanf.o)
                              /usr/local/popcorn/aarch64/lib/libmigrate.a(mapping.o) (fscanf)
/usr/local/popcorn/aarch64/lib/libc.a(fseek.o)
                              /usr/local/popcorn/aarch64/lib/libmigrate.a(mapping.o) (fseek)
/usr/local/popcorn/aarch64/lib/libc.a(getc.o)
                              /usr/local/popcorn/aarch64/lib/libmigrate.a(mapping.o) (getc)
/usr/local/popcorn/aarch64/lib/libc.a(getline.o)
                              /usr/local/popcorn/aarch64/lib/libstack-transform.a(userspace.o) (getline)
/usr/local/popcorn/aarch64/lib/libc.a(snprintf.o)
                              /usr/local/popcorn/aarch64/lib/libstack-transform.a(userspace.o) (snprintf)
/usr/local/popcorn/aarch64/lib/libc.a(sscanf.o)
                              /usr/local/popcorn/aarch64/lib/libstack-transform.a(userspace.o) (sscanf)
/usr/local/popcorn/aarch64/lib/libc.a(vfscanf.o)
                              /usr/local/popcorn/aarch64/lib/libc.a(fscanf.o) (vfscanf)
/usr/local/popcorn/aarch64/lib/libc.a(vsnprintf.o)
                              /usr/local/popcorn/aarch64/lib/libc.a(snprintf.o) (vsnprintf)
/usr/local/popcorn/aarch64/lib/libc.a(vsscanf.o)
                              /usr/local/popcorn/aarch64/lib/libc.a(sscanf.o) (vsscanf)
/usr/local/popcorn/aarch64/lib/libc.a(bsearch.o)
                              /usr/local/popcorn/aarch64/lib/libmigrate.a(mapping.o) (bsearch)
/usr/local/popcorn/aarch64/lib/libc.a(qsort.o)
                              /usr/local/popcorn/aarch64/lib/libmigrate.a(mapping.o) (qsort)
/usr/local/popcorn/aarch64/lib/libc.a(strtol.o)
                              /usr/local/popcorn/aarch64/lib/libelf.a(version.o) (strtol)
/usr/local/popcorn/aarch64/lib/libc.a(strchr.o)
                              /usr/local/popcorn/aarch64/lib/libc.a(fopen.o) (strchr)
/usr/local/popcorn/aarch64/lib/libc.a(strchrnul.o)
                              /usr/local/popcorn/aarch64/lib/libc.a(getenv.o) (__strchrnul)
/usr/local/popcorn/aarch64/lib/libc.a(strcmp.o)
                              /usr/local/popcorn/aarch64/lib/libstack-transform.a(util.o) (strcmp)
/usr/local/popcorn/aarch64/lib/libc.a(strncmp.o)
                              /usr/local/popcorn/aarch64/lib/libstack-transform.a(userspace.o) (strncmp)
/usr/local/popcorn/aarch64/lib/libc.a(pthread_attr_get.o)
                              /usr/local/popcorn/aarch64/lib/libstack-transform.a(userspace.o) (pthread_attr_getstack)
/usr/local/popcorn/aarch64/lib/libc.a(pthread_getattr_np.o)
                              /usr/local/popcorn/aarch64/lib/libstack-transform.a(userspace.o) (pthread_getattr_np)
/usr/local/popcorn/aarch64/lib/libc.a(pthread_migrate.o)
                              /usr/local/popcorn/aarch64/lib/libmigrate.a(migrate.o) (pthread_get_migrate_args)
/usr/local/popcorn/aarch64/lib/libc.a(pthread_self.o)
                              /usr/local/popcorn/aarch64/lib/libstack-transform.a(userspace.o) (pthread_self)
/usr/local/popcorn/aarch64/lib/libc.a(close.o)
                              /usr/local/popcorn/aarch64/lib/libstack-transform.a(init.o) (close)
/usr/local/popcorn/aarch64/lib/libc.a(lseek.o)
                              /usr/local/popcorn/aarch64/lib/libelf.a(begin.o) (lseek)
/usr/local/popcorn/aarch64/lib/libc.a(read.o)
                              /usr/local/popcorn/aarch64/lib/libelf.a(input.o) (read)
/usr/local/popcorn/aarch64/lib/libc.a(abort.o)
                              /usr/local/popcorn/aarch64/lib/libc.a(assert.o) (abort)
/usr/local/popcorn/aarch64/lib/libc.a(floatscan.o)
                              /usr/local/popcorn/aarch64/lib/libc.a(vfscanf.o) (__floatscan)
/usr/local/popcorn/aarch64/lib/libc.a(intscan.o)
                              /usr/local/popcorn/aarch64/lib/libc.a(vfscanf.o) (__intscan)
/usr/local/popcorn/aarch64/lib/libc.a(shgetc.o)
                              /usr/local/popcorn/aarch64/lib/libc.a(vfscanf.o) (__shgetc)
/usr/local/popcorn/aarch64/lib/libc.a(expand_heap.o)
                              /usr/local/popcorn/aarch64/lib/libc.a(lite_malloc.o) (__expand_heap)
/usr/local/popcorn/aarch64/lib/libc.a(fabs.o)
                              /usr/local/popcorn/aarch64/lib/libc.a(floatscan.o) (fabs)
/usr/local/popcorn/aarch64/lib/libc.a(copysignl.o)
                              /usr/local/popcorn/aarch64/lib/libc.a(floatscan.o) (copysignl)
/usr/local/popcorn/aarch64/lib/libc.a(fmodl.o)
                              /usr/local/popcorn/aarch64/lib/libc.a(floatscan.o) (fmodl)
/usr/local/popcorn/aarch64/lib/libc.a(scalbn.o)
                              /usr/local/popcorn/aarch64/lib/libc.a(floatscan.o) (scalbn)
/usr/local/popcorn/aarch64/lib/libc.a(scalbnl.o)
                              /usr/local/popcorn/aarch64/lib/libc.a(floatscan.o) (scalbnl)
/usr/local/popcorn/aarch64/lib/libc.a(mbrtowc.o)
                              /usr/local/popcorn/aarch64/lib/libc.a(vfscanf.o) (mbrtowc)
/usr/local/popcorn/aarch64/lib/libc.a(mbsinit.o)
                              /usr/local/popcorn/aarch64/lib/libc.a(vfscanf.o) (mbsinit)
/usr/local/popcorn/aarch64/lib/libc.a(restore.o)
                              /usr/local/popcorn/aarch64/lib/libc.a(sigaction.o) (__restore)
/usr/local/popcorn/aarch64/lib/libc.a(raise.o)
                              /usr/local/popcorn/aarch64/lib/libc.a(abort.o) (raise)
/usr/local/popcorn/aarch64/lib/libc.a(__fdopen.o)
                              /usr/local/popcorn/aarch64/lib/libc.a(fopen.o) (__fdopen)
/usr/local/popcorn/aarch64/lib/libc.a(__fmodeflags.o)
                              /usr/local/popcorn/aarch64/lib/libc.a(fopen.o) (__fmodeflags)
/usr/local/popcorn/aarch64/lib/libc.a(__stdio_read.o)
                              /usr/local/popcorn/aarch64/lib/libc.a(__fdopen.o) (__stdio_read)
/usr/local/popcorn/aarch64/lib/libc.a(__string_read.o)
                              /usr/local/popcorn/aarch64/lib/libc.a(vsscanf.o) (__string_read)
/usr/local/popcorn/aarch64/lib/libc.a(__uflow.o)
                              /usr/local/popcorn/aarch64/lib/libc.a(getc.o) (__uflow)
/usr/local/popcorn/aarch64/lib/libc.a(getdelim.o)
                              /usr/local/popcorn/aarch64/lib/libc.a(getline.o) (getdelim)
/usr/local/popcorn/aarch64/lib/libc.a(ofl_add.o)
                              /usr/local/popcorn/aarch64/lib/libc.a(__fdopen.o) (__ofl_add)
/usr/local/popcorn/aarch64/lib/libc.a(internal.o)
                              /usr/local/popcorn/aarch64/lib/libc.a(mbrtowc.o) (__fsmu8)
/usr/local/popcorn/aarch64/lib/libc.a(__toread.o)
                              /usr/local/popcorn/aarch64/lib/libc.a(__uflow.o) (__toread)
/usr/lib/gcc-cross/aarch64-linux-gnu/5/libgcc.a(addtf3.o)
                              /usr/local/popcorn/aarch64/lib/libc.a(vfprintf.o) (__addtf3)
/usr/lib/gcc-cross/aarch64-linux-gnu/5/libgcc.a(divtf3.o)
                              /usr/local/popcorn/aarch64/lib/libc.a(floatscan.o) (__divtf3)
/usr/lib/gcc-cross/aarch64-linux-gnu/5/libgcc.a(eqtf2.o)
                              /usr/local/popcorn/aarch64/lib/libc.a(vfprintf.o) (__eqtf2)
/usr/lib/gcc-cross/aarch64-linux-gnu/5/libgcc.a(getf2.o)
                              /usr/local/popcorn/aarch64/lib/libc.a(fmodl.o) (__gttf2)
/usr/lib/gcc-cross/aarch64-linux-gnu/5/libgcc.a(letf2.o)
                              /usr/local/popcorn/aarch64/lib/libc.a(floatscan.o) (__lttf2)
/usr/lib/gcc-cross/aarch64-linux-gnu/5/libgcc.a(multf3.o)
                              /usr/local/popcorn/aarch64/lib/libc.a(vfprintf.o) (__multf3)
/usr/lib/gcc-cross/aarch64-linux-gnu/5/libgcc.a(subtf3.o)
                              /usr/local/popcorn/aarch64/lib/libc.a(vfprintf.o) (__subtf3)
/usr/lib/gcc-cross/aarch64-linux-gnu/5/libgcc.a(unordtf2.o)
                              /usr/local/popcorn/aarch64/lib/libc.a(vfprintf.o) (__unordtf2)
/usr/lib/gcc-cross/aarch64-linux-gnu/5/libgcc.a(fixtfsi.o)
                              /usr/local/popcorn/aarch64/lib/libc.a(vfprintf.o) (__fixtfsi)
/usr/lib/gcc-cross/aarch64-linux-gnu/5/libgcc.a(fixunstfsi.o)
                              /usr/local/popcorn/aarch64/lib/libc.a(vfprintf.o) (__fixunstfsi)
/usr/lib/gcc-cross/aarch64-linux-gnu/5/libgcc.a(floatsitf.o)
                              /usr/local/popcorn/aarch64/lib/libc.a(vfprintf.o) (__floatsitf)
/usr/lib/gcc-cross/aarch64-linux-gnu/5/libgcc.a(floatunsitf.o)
                              /usr/local/popcorn/aarch64/lib/libc.a(vfprintf.o) (__floatunsitf)
/usr/lib/gcc-cross/aarch64-linux-gnu/5/libgcc.a(extendsftf2.o)
                              /usr/local/popcorn/aarch64/lib/libc.a(floatscan.o) (__extendsftf2)
/usr/lib/gcc-cross/aarch64-linux-gnu/5/libgcc.a(extenddftf2.o)
                              /usr/local/popcorn/aarch64/lib/libc.a(vfprintf.o) (__extenddftf2)
/usr/lib/gcc-cross/aarch64-linux-gnu/5/libgcc.a(trunctfsf2.o)
                              /usr/local/popcorn/aarch64/lib/libc.a(vfscanf.o) (__trunctfsf2)
/usr/lib/gcc-cross/aarch64-linux-gnu/5/libgcc.a(trunctfdf2.o)
                              /usr/local/popcorn/aarch64/lib/libc.a(vfscanf.o) (__trunctfdf2)
/usr/lib/gcc-cross/aarch64-linux-gnu/5/libgcc.a(sfp-exceptions.o)
                              /usr/lib/gcc-cross/aarch64-linux-gnu/5/libgcc.a(addtf3.o) (__sfp_handle_exceptions)

Allocating common symbols
Common symbol       size              file

mal                 0x20000           /usr/local/popcorn/aarch64/lib/libc.a(popcorn_malloc.o)
__libc              0x70              /usr/local/popcorn/aarch64/lib/libc.a(libc.o)
__hwcap             0x8               /usr/local/popcorn/aarch64/lib/libc.a(libc.o)
__sysinfo           0x8               /usr/local/popcorn/aarch64/lib/libc.a(libc.o)

Discarded input sections

 .note.GNU-stack
                0x0000000000000000        0x0 0x1 popcorn-migratemep_aarch64.o
 .note.GNU-stack
                0x0000000000000000        0x0 0x1 /usr/local/popcorn/aarch64/lib/crt1.o
 .note.GNU-stack
                0x0000000000000000        0x0 0x1 /usr/local/popcorn/aarch64/lib/libc.a(__libc_start_main.o)
 .note.GNU-stack
                0x0000000000000000        0x0 0x1 /usr/local/popcorn/aarch64/lib/libc.a(exit.o)
 .note.GNU-stack
                0x0000000000000000        0x0 0x1 /usr/local/popcorn/aarch64/lib/libc.a(libc.o)
 .note.GNU-stack
                0x0000000000000000        0x0 0x1 /usr/local/popcorn/aarch64/lib/libc.a(perror.o)
 .note.GNU-stack
                0x0000000000000000        0x0 0x1 /usr/local/popcorn/aarch64/lib/libc.a(printf.o)
 .note.GNU-stack
                0x0000000000000000        0x0 0x1 /usr/local/popcorn/aarch64/lib/libc.a(stderr.o)
 .note.GNU-stack
                0x0000000000000000        0x0 0x1 /usr/local/popcorn/aarch64/lib/libc.a(stdout.o)
 .note.GNU-stack
                0x0000000000000000        0x0 0x1 /usr/local/popcorn/aarch64/lib/libc.a(vfprintf.o)
 .note.GNU-stack
                0x0000000000000000        0x0 0x1 /usr/local/popcorn/aarch64/lib/libc.a(memset.o)
 .note.GNU-stack
                0x0000000000000000        0x0 0x1 /usr/local/popcorn/aarch64/lib/libc.a(strlen.o)
 .note.GNU-stack
                0x0000000000000000        0x0 0x1 /usr/local/popcorn/aarch64/lib/libc.a(strnlen.o)
 .note.GNU-stack
                0x0000000000000000        0x0 0x1 /usr/local/popcorn/aarch64/lib/libc.a(pthread_create.o)
 .note.GNU-stack
                0x0000000000000000        0x0 0x1 /usr/local/popcorn/aarch64/lib/libc.a(pthread_join.o)
 .note.GNU-stack
                0x0000000000000000        0x0 0x1 /usr/local/popcorn/aarch64/lib/libc.a(pthread_setcancelstate.o)
 .note.GNU-stack
                0x0000000000000000        0x0 0x1 /usr/local/popcorn/aarch64/lib/libc.a(pthread_testcancel.o)
 .note.GNU-stack
                0x0000000000000000        0x0 0x1 /usr/local/popcorn/aarch64/lib/libc.a(vmlock.o)
 .note.GNU-stack
                0x0000000000000000        0x0 0x1 /usr/local/popcorn/aarch64/lib/libc.a(getpid.o)
 .note.GNU-stack
                0x0000000000000000        0x0 0x1 /usr/local/popcorn/aarch64/lib/libc.a(gettid.o)
 .note.GNU-stack
                0x0000000000000000        0x0 0x1 /usr/local/popcorn/aarch64/lib/libc.a(sleep.o)
 .note.GNU-stack
                0x0000000000000000        0x0 0x1 /usr/local/popcorn/aarch64/lib/libc.a(__environ.o)
 .note.GNU-stack
                0x0000000000000000        0x0 0x1 /usr/local/popcorn/aarch64/lib/libc.a(__init_tls.o)
 .note.GNU-stack
                0x0000000000000000        0x0 0x1 /usr/local/popcorn/aarch64/lib/libc.a(__errno_location.o)
 .note.GNU-stack
                0x0000000000000000        0x0 0x1 /usr/local/popcorn/aarch64/lib/libc.a(strerror.o)
 .note.GNU-stack
                0x0000000000000000        0x0 0x1 /usr/local/popcorn/aarch64/lib/libc.a(_Exit.o)
 .note.GNU-stack
                0x0000000000000000        0x0 0x1 /usr/local/popcorn/aarch64/lib/libc.a(__lctrans.o)
 .note.GNU-stack
                0x0000000000000000        0x0 0x1 /usr/local/popcorn/aarch64/lib/libc.a(__fpclassifyl.o)
 .note.GNU-stack
                0x0000000000000000        0x0 0x1 /usr/local/popcorn/aarch64/lib/libc.a(__signbitl.o)
 .note.GNU-stack
                0x0000000000000000        0x0 0x1 /usr/local/popcorn/aarch64/lib/libc.a(frexpl.o)
 .note.GNU-stack
                0x0000000000000000        0x0 0x1 /usr/local/popcorn/aarch64/lib/libc.a(mmap.o)
 .note.GNU-stack
                0x0000000000000000        0x0 0x1 /usr/local/popcorn/aarch64/lib/libc.a(mprotect.o)
 .note.GNU-stack
                0x0000000000000000        0x0 0x1 /usr/local/popcorn/aarch64/lib/libc.a(munmap.o)
 .note.GNU-stack
                0x0000000000000000        0x0 0x1 /usr/local/popcorn/aarch64/lib/libc.a(wctomb.o)
 .note.GNU-stack
                0x0000000000000000        0x0 0x1 /usr/local/popcorn/aarch64/lib/libc.a(block.o)
 .note.GNU-stack
                0x0000000000000000        0x0 0x1 /usr/local/popcorn/aarch64/lib/libc.a(__lockfile.o)
 .note.GNU-stack
                0x0000000000000000        0x0 0x1 /usr/local/popcorn/aarch64/lib/libc.a(__stdio_close.o)
 .note.GNU-stack
                0x0000000000000000        0x0 0x1 /usr/local/popcorn/aarch64/lib/libc.a(__stdio_seek.o)
 .note.GNU-stack
                0x0000000000000000        0x0 0x1 /usr/local/popcorn/aarch64/lib/libc.a(__stdio_write.o)
 .note.GNU-stack
                0x0000000000000000        0x0 0x1 /usr/local/popcorn/aarch64/lib/libc.a(__stdout_write.o)
 .note.GNU-stack
                0x0000000000000000        0x0 0x1 /usr/local/popcorn/aarch64/lib/libc.a(fputc.o)
 .note.GNU-stack
                0x0000000000000000        0x0 0x1 /usr/local/popcorn/aarch64/lib/libc.a(fwrite.o)
 .note.GNU-stack
                0x0000000000000000        0x0 0x1 /usr/local/popcorn/aarch64/lib/libc.a(ofl.o)
 .note.GNU-stack
                0x0000000000000000        0x0 0x1 /usr/local/popcorn/aarch64/lib/libc.a(memchr.o)
 .note.GNU-stack
                0x0000000000000000        0x0 0x1 /usr/local/popcorn/aarch64/lib/libc.a(memcpy.o)
 .note.GNU-stack
                0x0000000000000000        0x0 0x1 /usr/local/popcorn/aarch64/lib/libc.a(__lock.o)
 .note.GNU-stack
                0x0000000000000000        0x0 0x1 /usr/local/popcorn/aarch64/lib/libc.a(__timedwait.o)
 .note.GNU-stack
                0x0000000000000000        0x0 0x1 /usr/local/popcorn/aarch64/lib/libc.a(__wait.o)
 .note.GNU-stack
                0x0000000000000000        0x0 0x1 /usr/local/popcorn/aarch64/lib/libc.a(__cleartid_exit_nostack.o)
 .note.GNU-stack
                0x0000000000000000        0x0 0x1 /usr/local/popcorn/aarch64/lib/libc.a(__set_thread_area.o)
 .note.GNU-stack
                0x0000000000000000        0x0 0x1 /usr/local/popcorn/aarch64/lib/libc.a(__unmapself.o)
 .note.GNU-stack
                0x0000000000000000        0x0 0x1 /usr/local/popcorn/aarch64/lib/libc.a(clone.o)
 .note.GNU-stack
                0x0000000000000000        0x0 0x1 /usr/local/popcorn/aarch64/lib/libc.a(clock_gettime.o)
 .note.GNU-stack
                0x0000000000000000        0x0 0x1 /usr/local/popcorn/aarch64/lib/libc.a(nanosleep.o)
 .note.GNU-stack
                0x0000000000000000        0x0 0x1 /usr/local/popcorn/aarch64/lib/libc.a(syscall_ret.o)
 .note.GNU-stack
                0x0000000000000000        0x0 0x1 /usr/local/popcorn/aarch64/lib/libc.a(wcrtomb.o)
 .note.GNU-stack
                0x0000000000000000        0x0 0x1 /usr/local/popcorn/aarch64/lib/libc.a(__overflow.o)
 .note.GNU-stack
                0x0000000000000000        0x0 0x1 /usr/local/popcorn/aarch64/lib/libc.a(__towrite.o)
 .note.GNU-stack
                0x0000000000000000        0x0 0x1 /usr/local/popcorn/aarch64/lib/libc.a(__syscall_cp.o)
 .note.GNU-stack
                0x0000000000000000        0x0 0x1 /usr/local/popcorn/aarch64/lib/libc.a(syscall.o)
 .note.GNU-stack
                0x0000000000000000        0x0 0x1 /usr/local/popcorn/aarch64/lib/libc.a(__stdio_exit.o)
 .note.GNU-stack
                0x0000000000000000        0x0 0x1 /usr/local/popcorn/aarch64/lib/libmigrate.a(migrate.o)
 .note.GNU-stack
                0x0000000000000000        0x0 0x1 /usr/local/popcorn/aarch64/lib/libmigrate.a(trigger.o)
 .note.GNU-stack
                0x0000000000000000        0x0 0x1 /usr/local/popcorn/aarch64/lib/libmigrate.a(mapping.o)
 .note.GNU-stack
                0x0000000000000000        0x0 0x1 /usr/local/popcorn/aarch64/lib/libstack-transform.a(userspace.o)
 .note.GNU-stack
                0x0000000000000000        0x0 0x1 /usr/local/popcorn/aarch64/lib/libstack-transform.a(init.o)
 .note.GNU-stack
                0x0000000000000000        0x0 0x1 /usr/local/popcorn/aarch64/lib/libstack-transform.a(rewrite.o)
 .note.GNU-stack
                0x0000000000000000        0x0 0x1 /usr/local/popcorn/aarch64/lib/libstack-transform.a(unwind.o)
 .note.GNU-stack
                0x0000000000000000        0x0 0x1 /usr/local/popcorn/aarch64/lib/libstack-transform.a(util.o)
 .note.GNU-stack
                0x0000000000000000        0x0 0x1 /usr/local/popcorn/aarch64/lib/libstack-transform.a(properties.o)
 .note.GNU-stack
                0x0000000000000000        0x0 0x1 /usr/local/popcorn/aarch64/lib/libstack-transform.a(regs.o)
 .note.GNU-stack
                0x0000000000000000        0x0 0x1 /usr/local/popcorn/aarch64/lib/libstack-transform.a(properties.o)
 .note.GNU-stack
                0x0000000000000000        0x0 0x1 /usr/local/popcorn/aarch64/lib/libstack-transform.a(regs.o)
 .note.GNU-stack
                0x0000000000000000        0x0 0x1 /usr/local/popcorn/aarch64/lib/libstack-transform.a(properties.o)
 .note.GNU-stack
                0x0000000000000000        0x0 0x1 /usr/local/popcorn/aarch64/lib/libstack-transform.a(regs.o)
 .note.GNU-stack
                0x0000000000000000        0x0 0x1 /usr/local/popcorn/aarch64/lib/libstack-transform.a(data.o)
 .note.GNU-stack
                0x0000000000000000        0x0 0x1 /usr/local/popcorn/aarch64/lib/libelf.a(begin.o)
 .note.GNU-stack
                0x0000000000000000        0x0 0x1 /usr/local/popcorn/aarch64/lib/libelf.a(end.o)
 .note.GNU-stack
                0x0000000000000000        0x0 0x1 /usr/local/popcorn/aarch64/lib/libelf.a(getdata.o)
 .note.GNU-stack
                0x0000000000000000        0x0 0x1 /usr/local/popcorn/aarch64/lib/libelf.a(getident.o)
 .note.GNU-stack
                0x0000000000000000        0x0 0x1 /usr/local/popcorn/aarch64/lib/libelf.a(nextscn.o)
 .note.GNU-stack
                0x0000000000000000        0x0 0x1 /usr/local/popcorn/aarch64/lib/libelf.a(strptr.o)
 .note.GNU-stack
                0x0000000000000000        0x0 0x1 /usr/local/popcorn/aarch64/lib/libelf.a(version.o)
 .note.GNU-stack
                0x0000000000000000        0x0 0x1 /usr/local/popcorn/aarch64/lib/libelf.a(32.getehdr.o)
 .note.GNU-stack
                0x0000000000000000        0x0 0x1 /usr/local/popcorn/aarch64/lib/libelf.a(32.xlatetof.o)
 .note.GNU-stack
                0x0000000000000000        0x0 0x1 /usr/local/popcorn/aarch64/lib/libelf.a(cook.o)
 .note.GNU-stack
                0x0000000000000000        0x0 0x1 /usr/local/popcorn/aarch64/lib/libelf.a(data.o)
 .note.GNU-stack
                0x0000000000000000        0x0 0x1 /usr/local/popcorn/aarch64/lib/libelf.a(input.o)
 .note.GNU-stack
                0x0000000000000000        0x0 0x1 /usr/local/popcorn/aarch64/lib/libelf.a(x.elfext.o)
 .note.GNU-stack
                0x0000000000000000        0x0 0x1 /usr/local/popcorn/aarch64/lib/libelf.a(64.xlatetof.o)
 .note.GNU-stack
                0x0000000000000000        0x0 0x1 /usr/local/popcorn/aarch64/lib/libelf.a(gelfshdr.o)
 .note.GNU-stack
                0x0000000000000000        0x0 0x1 /usr/local/popcorn/aarch64/lib/libelf.a(swap64.o)
 .note.GNU-stack
                0x0000000000000000        0x0 0x1 /usr/local/popcorn/aarch64/lib/libelf.a(verdef_32_tof.o)
 .note.GNU-stack
                0x0000000000000000        0x0 0x1 /usr/local/popcorn/aarch64/lib/libelf.a(verdef_32_tom.o)
 .note.GNU-stack
                0x0000000000000000        0x0 0x1 /usr/local/popcorn/aarch64/lib/libelf.a(verdef_64_tof.o)
 .note.GNU-stack
                0x0000000000000000        0x0 0x1 /usr/local/popcorn/aarch64/lib/libelf.a(verdef_64_tom.o)
 .note.GNU-stack
                0x0000000000000000        0x0 0x1 /usr/local/popcorn/aarch64/lib/libelf.a(getscn.o)
 .note.GNU-stack
                0x0000000000000000        0x0 0x1 /usr/local/popcorn/aarch64/lib/libelf.a(newscn.o)
 .note.GNU-stack
                0x0000000000000000        0x0 0x1 /usr/local/popcorn/aarch64/lib/libelf.a(32.fsize.o)
 .note.GNU-stack
                0x0000000000000000        0x0 0x1 /usr/local/popcorn/aarch64/lib/libc.a(arch_crash.o)
 .note.GNU-stack
                0x0000000000000000        0x0 0x1 /usr/local/popcorn/aarch64/lib/libc.a(getenv.o)
 .note.GNU-stack
                0x0000000000000000        0x0 0x1 /usr/local/popcorn/aarch64/lib/libc.a(platform.o)
 .note.GNU-stack
                0x0000000000000000        0x0 0x1 /usr/local/popcorn/aarch64/lib/libc.a(assert.o)
 .note.GNU-stack
                0x0000000000000000        0x0 0x1 /usr/local/popcorn/aarch64/lib/libc.a(open.o)
 .note.GNU-stack
                0x0000000000000000        0x0 0x1 /usr/local/popcorn/aarch64/lib/libc.a(calloc.o)
 .note.GNU-stack
                0x0000000000000000        0x0 0x1 /usr/local/popcorn/aarch64/lib/libc.a(lite_malloc.o)
 .note.GNU-stack
                0x0000000000000000        0x0 0x1 /usr/local/popcorn/aarch64/lib/libc.a(malloc.o)
 .note.GNU-stack
                0x0000000000000000        0x0 0x1 /usr/local/popcorn/aarch64/lib/libc.a(popcorn_malloc.o)
 .note.GNU-stack
                0x0000000000000000        0x0 0x1 /usr/local/popcorn/aarch64/lib/libc.a(getrlimit.o)
 .note.GNU-stack
                0x0000000000000000        0x0 0x1 /usr/local/popcorn/aarch64/lib/libc.a(syscall.o)
 .note.GNU-stack
                0x0000000000000000        0x0 0x1 /usr/local/popcorn/aarch64/lib/libc.a(madvise.o)
 .note.GNU-stack
                0x0000000000000000        0x0 0x1 /usr/local/popcorn/aarch64/lib/libc.a(mremap.o)
 .note.GNU-stack
                0x0000000000000000        0x0 0x1 /usr/local/popcorn/aarch64/lib/libc.a(sigaction.o)
 .note.GNU-stack
                0x0000000000000000        0x0 0x1 /usr/local/popcorn/aarch64/lib/libc.a(sigemptyset.o)
 .note.GNU-stack
                0x0000000000000000        0x0 0x1 /usr/local/popcorn/aarch64/lib/libc.a(sigrtmin.o)
 .note.GNU-stack
                0x0000000000000000        0x0 0x1 /usr/local/popcorn/aarch64/lib/libc.a(fclose.o)
 .note.GNU-stack
                0x0000000000000000        0x0 0x1 /usr/local/popcorn/aarch64/lib/libc.a(fflush.o)
 .note.GNU-stack
                0x0000000000000000        0x0 0x1 /usr/local/popcorn/aarch64/lib/libc.a(fopen.o)
 .note.GNU-stack
                0x0000000000000000        0x0 0x1 /usr/local/popcorn/aarch64/lib/libc.a(fprintf.o)
 .note.GNU-stack
                0x0000000000000000        0x0 0x1 /usr/local/popcorn/aarch64/lib/libc.a(fscanf.o)
 .note.GNU-stack
                0x0000000000000000        0x0 0x1 /usr/local/popcorn/aarch64/lib/libc.a(fseek.o)
 .note.GNU-stack
                0x0000000000000000        0x0 0x1 /usr/local/popcorn/aarch64/lib/libc.a(getc.o)
 .note.GNU-stack
                0x0000000000000000        0x0 0x1 /usr/local/popcorn/aarch64/lib/libc.a(getline.o)
 .note.GNU-stack
                0x0000000000000000        0x0 0x1 /usr/local/popcorn/aarch64/lib/libc.a(snprintf.o)
 .note.GNU-stack
                0x0000000000000000        0x0 0x1 /usr/local/popcorn/aarch64/lib/libc.a(sscanf.o)
 .note.GNU-stack
                0x0000000000000000        0x0 0x1 /usr/local/popcorn/aarch64/lib/libc.a(vfscanf.o)
 .note.GNU-stack
                0x0000000000000000        0x0 0x1 /usr/local/popcorn/aarch64/lib/libc.a(vsnprintf.o)
 .note.GNU-stack
                0x0000000000000000        0x0 0x1 /usr/local/popcorn/aarch64/lib/libc.a(vsscanf.o)
 .note.GNU-stack
                0x0000000000000000        0x0 0x1 /usr/local/popcorn/aarch64/lib/libc.a(bsearch.o)
 .note.GNU-stack
                0x0000000000000000        0x0 0x1 /usr/local/popcorn/aarch64/lib/libc.a(qsort.o)
 .note.GNU-stack
                0x0000000000000000        0x0 0x1 /usr/local/popcorn/aarch64/lib/libc.a(strtol.o)
 .note.GNU-stack
                0x0000000000000000        0x0 0x1 /usr/local/popcorn/aarch64/lib/libc.a(strchr.o)
 .note.GNU-stack
                0x0000000000000000        0x0 0x1 /usr/local/popcorn/aarch64/lib/libc.a(strchrnul.o)
 .note.GNU-stack
                0x0000000000000000        0x0 0x1 /usr/local/popcorn/aarch64/lib/libc.a(strcmp.o)
 .note.GNU-stack
                0x0000000000000000        0x0 0x1 /usr/local/popcorn/aarch64/lib/libc.a(strncmp.o)
 .note.GNU-stack
                0x0000000000000000        0x0 0x1 /usr/local/popcorn/aarch64/lib/libc.a(pthread_attr_get.o)
 .note.GNU-stack
                0x0000000000000000        0x0 0x1 /usr/local/popcorn/aarch64/lib/libc.a(pthread_getattr_np.o)
 .note.GNU-stack
                0x0000000000000000        0x0 0x1 /usr/local/popcorn/aarch64/lib/libc.a(pthread_migrate.o)
 .note.GNU-stack
                0x0000000000000000        0x0 0x1 /usr/local/popcorn/aarch64/lib/libc.a(pthread_self.o)
 .note.GNU-stack
                0x0000000000000000        0x0 0x1 /usr/local/popcorn/aarch64/lib/libc.a(close.o)
 .note.GNU-stack
                0x0000000000000000        0x0 0x1 /usr/local/popcorn/aarch64/lib/libc.a(lseek.o)
 .note.GNU-stack
                0x0000000000000000        0x0 0x1 /usr/local/popcorn/aarch64/lib/libc.a(read.o)
 .note.GNU-stack
                0x0000000000000000        0x0 0x1 /usr/local/popcorn/aarch64/lib/libc.a(abort.o)
 .note.GNU-stack
                0x0000000000000000        0x0 0x1 /usr/local/popcorn/aarch64/lib/libc.a(floatscan.o)
 .note.GNU-stack
                0x0000000000000000        0x0 0x1 /usr/local/popcorn/aarch64/lib/libc.a(intscan.o)
 .note.GNU-stack
                0x0000000000000000        0x0 0x1 /usr/local/popcorn/aarch64/lib/libc.a(shgetc.o)
 .note.GNU-stack
                0x0000000000000000        0x0 0x1 /usr/local/popcorn/aarch64/lib/libc.a(expand_heap.o)
 .note.GNU-stack
                0x0000000000000000        0x0 0x1 /usr/local/popcorn/aarch64/lib/libc.a(fabs.o)
 .note.GNU-stack
                0x0000000000000000        0x0 0x1 /usr/local/popcorn/aarch64/lib/libc.a(copysignl.o)
 .note.GNU-stack
                0x0000000000000000        0x0 0x1 /usr/local/popcorn/aarch64/lib/libc.a(fmodl.o)
 .note.GNU-stack
                0x0000000000000000        0x0 0x1 /usr/local/popcorn/aarch64/lib/libc.a(scalbn.o)
 .note.GNU-stack
                0x0000000000000000        0x0 0x1 /usr/local/popcorn/aarch64/lib/libc.a(scalbnl.o)
 .note.GNU-stack
                0x0000000000000000        0x0 0x1 /usr/local/popcorn/aarch64/lib/libc.a(mbrtowc.o)
 .note.GNU-stack
                0x0000000000000000        0x0 0x1 /usr/local/popcorn/aarch64/lib/libc.a(mbsinit.o)
 .note.GNU-stack
                0x0000000000000000        0x0 0x1 /usr/local/popcorn/aarch64/lib/libc.a(restore.o)
 .note.GNU-stack
                0x0000000000000000        0x0 0x1 /usr/local/popcorn/aarch64/lib/libc.a(raise.o)
 .note.GNU-stack
                0x0000000000000000        0x0 0x1 /usr/local/popcorn/aarch64/lib/libc.a(__fdopen.o)
 .note.GNU-stack
                0x0000000000000000        0x0 0x1 /usr/local/popcorn/aarch64/lib/libc.a(__fmodeflags.o)
 .note.GNU-stack
                0x0000000000000000        0x0 0x1 /usr/local/popcorn/aarch64/lib/libc.a(__stdio_read.o)
 .note.GNU-stack
                0x0000000000000000        0x0 0x1 /usr/local/popcorn/aarch64/lib/libc.a(__string_read.o)
 .note.GNU-stack
                0x0000000000000000        0x0 0x1 /usr/local/popcorn/aarch64/lib/libc.a(__uflow.o)
 .note.GNU-stack
                0x0000000000000000        0x0 0x1 /usr/local/popcorn/aarch64/lib/libc.a(getdelim.o)
 .note.GNU-stack
                0x0000000000000000        0x0 0x1 /usr/local/popcorn/aarch64/lib/libc.a(ofl_add.o)
 .note.GNU-stack
                0x0000000000000000        0x0 0x1 /usr/local/popcorn/aarch64/lib/libc.a(internal.o)
 .note.GNU-stack
                0x0000000000000000        0x0 0x1 /usr/local/popcorn/aarch64/lib/libc.a(__toread.o)
 .note.GNU-stack
                0x0000000000000000        0x0 0x1 /usr/lib/gcc-cross/aarch64-linux-gnu/5/libgcc.a(addtf3.o)
 .note.GNU-stack
                0x0000000000000000        0x0 0x1 /usr/lib/gcc-cross/aarch64-linux-gnu/5/libgcc.a(divtf3.o)
 .note.GNU-stack
                0x0000000000000000        0x0 0x1 /usr/lib/gcc-cross/aarch64-linux-gnu/5/libgcc.a(eqtf2.o)
 .note.GNU-stack
                0x0000000000000000        0x0 0x1 /usr/lib/gcc-cross/aarch64-linux-gnu/5/libgcc.a(getf2.o)
 .note.GNU-stack
                0x0000000000000000        0x0 0x1 /usr/lib/gcc-cross/aarch64-linux-gnu/5/libgcc.a(letf2.o)
 .note.GNU-stack
                0x0000000000000000        0x0 0x1 /usr/lib/gcc-cross/aarch64-linux-gnu/5/libgcc.a(multf3.o)
 .note.GNU-stack
                0x0000000000000000        0x0 0x1 /usr/lib/gcc-cross/aarch64-linux-gnu/5/libgcc.a(subtf3.o)
 .note.GNU-stack
                0x0000000000000000        0x0 0x1 /usr/lib/gcc-cross/aarch64-linux-gnu/5/libgcc.a(unordtf2.o)
 .note.GNU-stack
                0x0000000000000000        0x0 0x1 /usr/lib/gcc-cross/aarch64-linux-gnu/5/libgcc.a(fixtfsi.o)
 .note.GNU-stack
                0x0000000000000000        0x0 0x1 /usr/lib/gcc-cross/aarch64-linux-gnu/5/libgcc.a(fixunstfsi.o)
 .note.GNU-stack
                0x0000000000000000        0x0 0x1 /usr/lib/gcc-cross/aarch64-linux-gnu/5/libgcc.a(floatsitf.o)
 .note.GNU-stack
                0x0000000000000000        0x0 0x1 /usr/lib/gcc-cross/aarch64-linux-gnu/5/libgcc.a(floatunsitf.o)
 .note.GNU-stack
                0x0000000000000000        0x0 0x1 /usr/lib/gcc-cross/aarch64-linux-gnu/5/libgcc.a(extendsftf2.o)
 .note.GNU-stack
                0x0000000000000000        0x0 0x1 /usr/lib/gcc-cross/aarch64-linux-gnu/5/libgcc.a(extenddftf2.o)
 .note.GNU-stack
                0x0000000000000000        0x0 0x1 /usr/lib/gcc-cross/aarch64-linux-gnu/5/libgcc.a(trunctfsf2.o)
 .note.GNU-stack
                0x0000000000000000        0x0 0x1 /usr/lib/gcc-cross/aarch64-linux-gnu/5/libgcc.a(trunctfdf2.o)
 .note.GNU-stack
                0x0000000000000000        0x0 0x1 /usr/lib/gcc-cross/aarch64-linux-gnu/5/libgcc.a(sfp-exceptions.o)

Memory map

 ** file header
                0x0000000000400000       0x40
 ** segment headers
                0x0000000000400040      0x150

.note.gnu.build-id
                0x0000000000400190       0x24
 ** note header
                0x0000000000400190       0x10
 ** zero fill   0x00000000004001a0       0x14

.text           0x00000000004001c0    0x1ff74
 .text.exit     0x00000000004001c0       0x24 0x4 /usr/local/popcorn/aarch64/lib/libc.a(exit.o)
                0x00000000004001c0                exit
 .text          0x00000000004001e4        0x0 0x4 popcorn-migratemep_aarch64.o
 .text.migrateme
                0x00000000004001e4       0x80 0x4 popcorn-migratemep_aarch64.o
                0x00000000004001e4                migrateme
 .text.thread   0x0000000000400264       0x84 0x4 popcorn-migratemep_aarch64.o
                0x0000000000400264                thread
 .text.main     0x00000000004002e8       0xcc 0x4 popcorn-migratemep_aarch64.o
                0x00000000004002e8                main
 .text          0x00000000004003b4       0x1c 0x4 /usr/local/popcorn/aarch64/lib/crt1.o
                0x00000000004003b4                _start
 .text._start_c
                0x00000000004003d0       0x34 0x4 /usr/local/popcorn/aarch64/lib/crt1.o
                0x00000000004003d0                _start_c
 .text          0x0000000000400404        0x0 0x4 /usr/local/popcorn/aarch64/lib/libc.a(__libc_start_main.o)
 .text.dummy    0x0000000000400404        0x4 0x4 /usr/local/popcorn/aarch64/lib/libc.a(__libc_start_main.o)
                0x0000000000400404                _init
 .text.dummy1   0x0000000000400408        0x4 0x4 /usr/local/popcorn/aarch64/lib/libc.a(__libc_start_main.o)
                0x0000000000400408                __init_ssp
 .text.__init_libc
                0x000000000040040c      0x1d8 0x4 /usr/local/popcorn/aarch64/lib/libc.a(__libc_start_main.o)
                0x000000000040040c                __init_libc
 .text.libc_start_init
                0x00000000004005e4       0x40 0x4 /usr/local/popcorn/aarch64/lib/libc.a(__libc_start_main.o)
                0x00000000004005e4                __libc_start_init
 .text.__libc_start_main
                0x0000000000400624       0x50 0x4 /usr/local/popcorn/aarch64/lib/libc.a(__libc_start_main.o)
                0x0000000000400624                __libc_start_main
 .text          0x0000000000400674        0x0 0x4 /usr/local/popcorn/aarch64/lib/libc.a(exit.o)
 .text.libc_exit_fini
                0x0000000000400674       0x3c 0x4 /usr/local/popcorn/aarch64/lib/libc.a(exit.o)
                0x0000000000400674                __libc_exit_fini
 .text.dummy    0x00000000004006b0        0x4 0x4 /usr/local/popcorn/aarch64/lib/libc.a(exit.o)
                0x00000000004006b0                __funcs_on_exit
                0x00000000004006b0                _fini
 .text          0x00000000004006b4        0x0 0x4 /usr/local/popcorn/aarch64/lib/libc.a(libc.o)
 .text          0x00000000004006b4        0x0 0x4 /usr/local/popcorn/aarch64/lib/libc.a(perror.o)
 .text.perror   0x00000000004006b4       0xcc 0x4 /usr/local/popcorn/aarch64/lib/libc.a(perror.o)
                0x00000000004006b4                perror
 .text          0x0000000000400780        0x0 0x4 /usr/local/popcorn/aarch64/lib/libc.a(printf.o)
 .text.printf   0x0000000000400780       0x88 0x4 /usr/local/popcorn/aarch64/lib/libc.a(printf.o)
                0x0000000000400780                printf
 .text          0x0000000000400808        0x0 0x4 /usr/local/popcorn/aarch64/lib/libc.a(stderr.o)
 .text          0x0000000000400808        0x0 0x4 /usr/local/popcorn/aarch64/lib/libc.a(stdout.o)
 .text          0x0000000000400808        0x0 0x4 /usr/local/popcorn/aarch64/lib/libc.a(vfprintf.o)
 .text.vfprintf
                0x0000000000400808      0x1a0 0x4 /usr/local/popcorn/aarch64/lib/libc.a(vfprintf.o)
                0x0000000000400808                vfprintf
 .text.printf_core
                0x00000000004009a8     0x1cc4 0x4 /usr/local/popcorn/aarch64/lib/libc.a(vfprintf.o)
 .text.getint   0x000000000040266c       0x74 0x4 /usr/local/popcorn/aarch64/lib/libc.a(vfprintf.o)
 .text.pop_arg  0x00000000004026e0      0x27c 0x4 /usr/local/popcorn/aarch64/lib/libc.a(vfprintf.o)
 .text.pad      0x000000000040295c       0xc4 0x4 /usr/local/popcorn/aarch64/lib/libc.a(vfprintf.o)
 .text          0x0000000000402a20        0x0 0x4 /usr/local/popcorn/aarch64/lib/libc.a(memset.o)
 .text.memset   0x0000000000402a20      0x158 0x4 /usr/local/popcorn/aarch64/lib/libc.a(memset.o)
                0x0000000000402a20                memset
 .text          0x0000000000402b78        0x0 0x4 /usr/local/popcorn/aarch64/lib/libc.a(strlen.o)
 .text.strlen   0x0000000000402b78       0x60 0x4 /usr/local/popcorn/aarch64/lib/libc.a(strlen.o)
                0x0000000000402b78                strlen
 .text          0x0000000000402bd8        0x0 0x4 /usr/local/popcorn/aarch64/lib/libc.a(strnlen.o)
 .text.strnlen  0x0000000000402bd8       0x38 0x4 /usr/local/popcorn/aarch64/lib/libc.a(strnlen.o)
                0x0000000000402bd8                strnlen
 .text          0x0000000000402c10        0x0 0x4 /usr/local/popcorn/aarch64/lib/libc.a(pthread_create.o)
 .text.dummy_0  0x0000000000402c10        0x4 0x4 /usr/local/popcorn/aarch64/lib/libc.a(pthread_create.o)
                0x0000000000402c10                __acquire_ptc
                0x0000000000402c10                __dl_thread_cleanup
                0x0000000000402c10                __do_orphaned_stdio_locks
                0x0000000000402c10                __pthread_tsd_run_dtors
                0x0000000000402c10                __release_ptc
 .text.__pthread_exit
                0x0000000000402c14      0x1b0 0x4 /usr/local/popcorn/aarch64/lib/libc.a(pthread_create.o)
                0x0000000000402c14                __pthread_exit
                0x0000000000402c14                pthread_exit
 .text.__do_cleanup_push
                0x0000000000402dc4       0x14 0x4 /usr/local/popcorn/aarch64/lib/libc.a(pthread_create.o)
                0x0000000000402dc4                __do_cleanup_push
 .text.__do_cleanup_pop
                0x0000000000402dd8       0x10 0x4 /usr/local/popcorn/aarch64/lib/libc.a(pthread_create.o)
                0x0000000000402dd8                __do_cleanup_pop
 .text.__pthread_create
                0x0000000000402de8      0x530 0x4 /usr/local/popcorn/aarch64/lib/libc.a(pthread_create.o)
                0x0000000000402de8                __pthread_create
                0x0000000000402de8                pthread_create
 .text.start_c11
                0x0000000000403318       0x1c 0x4 /usr/local/popcorn/aarch64/lib/libc.a(pthread_create.o)
 .text.start    0x0000000000403334       0x8c 0x4 /usr/local/popcorn/aarch64/lib/libc.a(pthread_create.o)
 .text          0x00000000004033c0        0x0 0x4 /usr/local/popcorn/aarch64/lib/libc.a(pthread_join.o)
 .text.__pthread_timedjoin_np
                0x00000000004033c0      0x100 0x4 /usr/local/popcorn/aarch64/lib/libc.a(pthread_join.o)
                0x00000000004033c0                __pthread_timedjoin_np
                0x00000000004033c0                pthread_timedjoin_np
 .text.__pthread_join
                0x00000000004034c0        0x8 0x4 /usr/local/popcorn/aarch64/lib/libc.a(pthread_join.o)
                0x00000000004034c0                __pthread_join
                0x00000000004034c0                pthread_join
 .text.__pthread_tryjoin_np
                0x00000000004034c8       0x28 0x4 /usr/local/popcorn/aarch64/lib/libc.a(pthread_join.o)
                0x00000000004034c8                __pthread_tryjoin_np
                0x00000000004034c8                pthread_tryjoin_np
 .text          0x00000000004034f0        0x0 0x4 /usr/local/popcorn/aarch64/lib/libc.a(pthread_setcancelstate.o)
 .text.__pthread_setcancelstate
                0x00000000004034f0       0x34 0x4 /usr/local/popcorn/aarch64/lib/libc.a(pthread_setcancelstate.o)
                0x00000000004034f0                __pthread_setcancelstate
                0x00000000004034f0                pthread_setcancelstate
 .text          0x0000000000403524        0x0 0x4 /usr/local/popcorn/aarch64/lib/libc.a(pthread_testcancel.o)
 .text.__pthread_testcancel
                0x0000000000403524        0x4 0x4 /usr/local/popcorn/aarch64/lib/libc.a(pthread_testcancel.o)
                0x0000000000403524                __pthread_testcancel
                0x0000000000403524                pthread_testcancel
 .text.dummy    0x0000000000403528        0x4 0x4 /usr/local/popcorn/aarch64/lib/libc.a(pthread_testcancel.o)
                0x0000000000403528                __testcancel
 .text          0x000000000040352c        0x0 0x4 /usr/local/popcorn/aarch64/lib/libc.a(vmlock.o)
 .text.__vm_wait
                0x000000000040352c       0x44 0x4 /usr/local/popcorn/aarch64/lib/libc.a(vmlock.o)
                0x000000000040352c                __vm_wait
 .text.__vm_lock
                0x0000000000403570       0x1c 0x4 /usr/local/popcorn/aarch64/lib/libc.a(vmlock.o)
                0x0000000000403570                __vm_lock
 .text.__vm_unlock
                0x000000000040358c       0x60 0x4 /usr/local/popcorn/aarch64/lib/libc.a(vmlock.o)
                0x000000000040358c                __vm_unlock
 .text          0x00000000004035ec        0x0 0x4 /usr/local/popcorn/aarch64/lib/libc.a(getpid.o)
 .text.getpid   0x00000000004035ec        0xc 0x4 /usr/local/popcorn/aarch64/lib/libc.a(getpid.o)
                0x00000000004035ec                getpid
 .text          0x00000000004035f8        0x0 0x4 /usr/local/popcorn/aarch64/lib/libc.a(gettid.o)
 .text.gettid   0x00000000004035f8        0xc 0x4 /usr/local/popcorn/aarch64/lib/libc.a(gettid.o)
                0x00000000004035f8                gettid
 .text          0x0000000000403604        0x0 0x4 /usr/local/popcorn/aarch64/lib/libc.a(sleep.o)
 .text.sleep    0x0000000000403604       0x38 0x4 /usr/local/popcorn/aarch64/lib/libc.a(sleep.o)
                0x0000000000403604                sleep
 .text          0x000000000040363c        0x0 0x4 /usr/local/popcorn/aarch64/lib/libc.a(__environ.o)
 .text          0x000000000040363c        0x0 0x4 /usr/local/popcorn/aarch64/lib/libc.a(__init_tls.o)
 .text.__init_tp
                0x000000000040363c       0x74 0x4 /usr/local/popcorn/aarch64/lib/libc.a(__init_tls.o)
                0x000000000040363c                __init_tp
 .text.__copy_tls
                0x00000000004036b0       0x9c 0x4 /usr/local/popcorn/aarch64/lib/libc.a(__init_tls.o)
                0x00000000004036b0                __copy_tls
 .text.static_init_tls
                0x000000000040374c      0x158 0x4 /usr/local/popcorn/aarch64/lib/libc.a(__init_tls.o)
                0x000000000040374c                __init_tls
 .text          0x00000000004038a4        0x0 0x4 /usr/local/popcorn/aarch64/lib/libc.a(__errno_location.o)
 .text.__errno_location
                0x00000000004038a4        0xc 0x4 /usr/local/popcorn/aarch64/lib/libc.a(__errno_location.o)
                0x00000000004038a4                __errno_location
 .text          0x00000000004038b0        0x0 0x4 /usr/local/popcorn/aarch64/lib/libc.a(strerror.o)
 .text.__strerror_l
                0x00000000004038b0       0x60 0x4 /usr/local/popcorn/aarch64/lib/libc.a(strerror.o)
                0x00000000004038b0                __strerror_l
                0x00000000004038b0                strerror_l
 .text.strerror
                0x0000000000403910        0xc 0x4 /usr/local/popcorn/aarch64/lib/libc.a(strerror.o)
                0x0000000000403910                strerror
 .text          0x000000000040391c        0x0 0x4 /usr/local/popcorn/aarch64/lib/libc.a(_Exit.o)
 .text._Exit    0x000000000040391c       0x20 0x4 /usr/local/popcorn/aarch64/lib/libc.a(_Exit.o)
                0x000000000040391c                _Exit
 .text          0x000000000040393c        0x0 0x4 /usr/local/popcorn/aarch64/lib/libc.a(__lctrans.o)
 .text.dummy    0x000000000040393c        0x4 0x4 /usr/local/popcorn/aarch64/lib/libc.a(__lctrans.o)
                0x000000000040393c                __lctrans_impl
 .text.__lctrans
                0x0000000000403940        0x4 0x4 /usr/local/popcorn/aarch64/lib/libc.a(__lctrans.o)
                0x0000000000403940                __lctrans
 .text.__lctrans_cur
                0x0000000000403944       0x10 0x4 /usr/local/popcorn/aarch64/lib/libc.a(__lctrans.o)
                0x0000000000403944                __lctrans_cur
 .text          0x0000000000403954        0x0 0x4 /usr/local/popcorn/aarch64/lib/libc.a(__fpclassifyl.o)
 .text.__fpclassifyl
                0x0000000000403954       0x54 0x4 /usr/local/popcorn/aarch64/lib/libc.a(__fpclassifyl.o)
                0x0000000000403954                __fpclassifyl
 .text          0x00000000004039a8        0x0 0x4 /usr/local/popcorn/aarch64/lib/libc.a(__signbitl.o)
 .text.__signbitl
                0x00000000004039a8       0x18 0x4 /usr/local/popcorn/aarch64/lib/libc.a(__signbitl.o)
                0x00000000004039a8                __signbitl
 .text          0x00000000004039c0        0x0 0x4 /usr/local/popcorn/aarch64/lib/libc.a(frexpl.o)
 .text.frexpl   0x00000000004039c0       0xb4 0x4 /usr/local/popcorn/aarch64/lib/libc.a(frexpl.o)
                0x00000000004039c0                frexpl
 .text          0x0000000000403a74        0x0 0x4 /usr/local/popcorn/aarch64/lib/libc.a(mmap.o)
 .text.dummy    0x0000000000403a74        0x4 0x4 /usr/local/popcorn/aarch64/lib/libc.a(mmap.o)
 .text.__mmap   0x0000000000403a78       0xc0 0x4 /usr/local/popcorn/aarch64/lib/libc.a(mmap.o)
                0x0000000000403a78                __mmap
                0x0000000000403a78                mmap
                0x0000000000403a78                mmap64
 .text          0x0000000000403b38        0x0 0x4 /usr/local/popcorn/aarch64/lib/libc.a(mprotect.o)
 .text.__mprotect
                0x0000000000403b38       0x48 0x4 /usr/local/popcorn/aarch64/lib/libc.a(mprotect.o)
                0x0000000000403b38                __mprotect
                0x0000000000403b38                mprotect
 .text          0x0000000000403b80        0x0 0x4 /usr/local/popcorn/aarch64/lib/libc.a(munmap.o)
 .text.dummy    0x0000000000403b80        0x4 0x4 /usr/local/popcorn/aarch64/lib/libc.a(munmap.o)
 .text.__munmap
                0x0000000000403b84       0x38 0x4 /usr/local/popcorn/aarch64/lib/libc.a(munmap.o)
                0x0000000000403b84                __munmap
                0x0000000000403b84                munmap
 .text          0x0000000000403bbc        0x0 0x4 /usr/local/popcorn/aarch64/lib/libc.a(wctomb.o)
 .text.wctomb   0x0000000000403bbc       0x24 0x4 /usr/local/popcorn/aarch64/lib/libc.a(wctomb.o)
                0x0000000000403bbc                wctomb
 .text          0x0000000000403be0        0x0 0x4 /usr/local/popcorn/aarch64/lib/libc.a(block.o)
 .text.__block_all_sigs
                0x0000000000403be0       0x24 0x4 /usr/local/popcorn/aarch64/lib/libc.a(block.o)
                0x0000000000403be0                __block_all_sigs
 .text.__block_app_sigs
                0x0000000000403c04       0x24 0x4 /usr/local/popcorn/aarch64/lib/libc.a(block.o)
                0x0000000000403c04                __block_app_sigs
 .text.__restore_sigs
                0x0000000000403c28       0x20 0x4 /usr/local/popcorn/aarch64/lib/libc.a(block.o)
                0x0000000000403c28                __restore_sigs
 .text          0x0000000000403c48        0x0 0x4 /usr/local/popcorn/aarch64/lib/libc.a(__lockfile.o)
 .text.__lockfile
                0x0000000000403c48       0x70 0x4 /usr/local/popcorn/aarch64/lib/libc.a(__lockfile.o)
                0x0000000000403c48                __lockfile
 .text.__unlockfile
                0x0000000000403cb8       0x4c 0x4 /usr/local/popcorn/aarch64/lib/libc.a(__lockfile.o)
                0x0000000000403cb8                __unlockfile
 .text          0x0000000000403d04        0x0 0x4 /usr/local/popcorn/aarch64/lib/libc.a(__stdio_close.o)
 .text.dummy    0x0000000000403d04        0x4 0x4 /usr/local/popcorn/aarch64/lib/libc.a(__stdio_close.o)
                0x0000000000403d04                __aio_close
 .text.__stdio_close
                0x0000000000403d08       0x28 0x4 /usr/local/popcorn/aarch64/lib/libc.a(__stdio_close.o)
                0x0000000000403d08                __stdio_close
 .text          0x0000000000403d30        0x0 0x4 /usr/local/popcorn/aarch64/lib/libc.a(__stdio_seek.o)
 .text.__stdio_seek
                0x0000000000403d30       0x14 0x4 /usr/local/popcorn/aarch64/lib/libc.a(__stdio_seek.o)
                0x0000000000403d30                __stdio_seek
 .text          0x0000000000403d44        0x0 0x4 /usr/local/popcorn/aarch64/lib/libc.a(__stdio_write.o)
 .text.__stdio_write
                0x0000000000403d44      0x138 0x4 /usr/local/popcorn/aarch64/lib/libc.a(__stdio_write.o)
                0x0000000000403d44                __stdio_write
 .text          0x0000000000403e7c        0x0 0x4 /usr/local/popcorn/aarch64/lib/libc.a(__stdout_write.o)
 .text.__stdout_write
                0x0000000000403e7c       0x68 0x4 /usr/local/popcorn/aarch64/lib/libc.a(__stdout_write.o)
                0x0000000000403e7c                __stdout_write
 .text          0x0000000000403ee4        0x0 0x4 /usr/local/popcorn/aarch64/lib/libc.a(fputc.o)
 .text.fputc    0x0000000000403ee4       0xd4 0x4 /usr/local/popcorn/aarch64/lib/libc.a(fputc.o)
                0x0000000000403ee4                fputc
 .text          0x0000000000403fb8        0x0 0x4 /usr/local/popcorn/aarch64/lib/libc.a(fwrite.o)
 .text.__fwritex
                0x0000000000403fb8       0xf4 0x4 /usr/local/popcorn/aarch64/lib/libc.a(fwrite.o)
                0x0000000000403fb8                __fwritex
 .text.fwrite   0x00000000004040ac       0x9c 0x4 /usr/local/popcorn/aarch64/lib/libc.a(fwrite.o)
                0x00000000004040ac                fwrite
                0x00000000004040ac                fwrite_unlocked
 .text          0x0000000000404148        0x0 0x4 /usr/local/popcorn/aarch64/lib/libc.a(ofl.o)
 .text.__ofl_lock
                0x0000000000404148       0x24 0x4 /usr/local/popcorn/aarch64/lib/libc.a(ofl.o)
                0x0000000000404148                __ofl_lock
 .text.__ofl_unlock
                0x000000000040416c        0xc 0x4 /usr/local/popcorn/aarch64/lib/libc.a(ofl.o)
                0x000000000040416c                __ofl_unlock
 .text          0x0000000000404178        0x0 0x4 /usr/local/popcorn/aarch64/lib/libc.a(memchr.o)
 .text.memchr   0x0000000000404178       0xb0 0x4 /usr/local/popcorn/aarch64/lib/libc.a(memchr.o)
                0x0000000000404178                memchr
 .text          0x0000000000404228        0x0 0x4 /usr/local/popcorn/aarch64/lib/libc.a(memcpy.o)
 .text.memcpy   0x0000000000404228      0x3e0 0x4 /usr/local/popcorn/aarch64/lib/libc.a(memcpy.o)
                0x0000000000404228                memcpy
 .text          0x0000000000404608        0x0 0x4 /usr/local/popcorn/aarch64/lib/libc.a(__lock.o)
 .text.__lock   0x0000000000404608       0x64 0x4 /usr/local/popcorn/aarch64/lib/libc.a(__lock.o)
                0x0000000000404608                __lock
 .text.__unlock
                0x000000000040466c       0x54 0x4 /usr/local/popcorn/aarch64/lib/libc.a(__lock.o)
                0x000000000040466c                __unlock
 .text          0x00000000004046c0        0x0 0x4 /usr/local/popcorn/aarch64/lib/libc.a(__timedwait.o)
 .text.__timedwait_cp
                0x00000000004046c0      0x138 0x4 /usr/local/popcorn/aarch64/lib/libc.a(__timedwait.o)
                0x00000000004046c0                __timedwait_cp
 .text.__timedwait
                0x00000000004047f8       0x70 0x4 /usr/local/popcorn/aarch64/lib/libc.a(__timedwait.o)
                0x00000000004047f8                __timedwait
 .text          0x0000000000404868        0x0 0x4 /usr/local/popcorn/aarch64/lib/libc.a(__wait.o)
 .text.__wait   0x0000000000404868       0xc4 0x4 /usr/local/popcorn/aarch64/lib/libc.a(__wait.o)
                0x0000000000404868                __wait
 .text          0x000000000040492c        0x0 0x4 /usr/local/popcorn/aarch64/lib/libc.a(__cleartid_exit_nostack.o)
 .text.__cleartid_exit_nostack
                0x000000000040492c       0x28 0x1 /usr/local/popcorn/aarch64/lib/libc.a(__cleartid_exit_nostack.o)
                0x000000000040492c                __cleartid_exit_nostack
 .text          0x0000000000404954        0x0 0x4 /usr/local/popcorn/aarch64/lib/libc.a(__set_thread_area.o)
 .text.__set_thread_area
                0x0000000000404960        0xc 0x10 /usr/local/popcorn/aarch64/lib/libc.a(__set_thread_area.o)
                0x0000000000404960                __set_thread_area
 .text          0x000000000040496c        0x0 0x4 /usr/local/popcorn/aarch64/lib/libc.a(__unmapself.o)
 .text.__unmapself
                0x0000000000404970       0x10 0x10 /usr/local/popcorn/aarch64/lib/libc.a(__unmapself.o)
                0x0000000000404970                __unmapself
 .text          0x0000000000404980        0x0 0x4 /usr/local/popcorn/aarch64/lib/libc.a(clone.o)
 .text.__clone  0x0000000000404980       0x38 0x10 /usr/local/popcorn/aarch64/lib/libc.a(clone.o)
                0x0000000000404980                __clone
 .text          0x00000000004049b8        0x0 0x4 /usr/local/popcorn/aarch64/lib/libc.a(clock_gettime.o)
 .text.__clock_gettime
                0x00000000004049b8       0x68 0x4 /usr/local/popcorn/aarch64/lib/libc.a(clock_gettime.o)
                0x00000000004049b8                __clock_gettime
                0x00000000004049b8                clock_gettime
 .text          0x0000000000404a20        0x0 0x4 /usr/local/popcorn/aarch64/lib/libc.a(nanosleep.o)
 .text.nanosleep
                0x0000000000404a20       0x3c 0x4 /usr/local/popcorn/aarch64/lib/libc.a(nanosleep.o)
                0x0000000000404a20                nanosleep
 .text          0x0000000000404a5c        0x0 0x4 /usr/local/popcorn/aarch64/lib/libc.a(syscall_ret.o)
 .text.__syscall_ret
                0x0000000000404a5c       0x30 0x4 /usr/local/popcorn/aarch64/lib/libc.a(syscall_ret.o)
                0x0000000000404a5c                __syscall_ret
 .text          0x0000000000404a8c        0x0 0x4 /usr/local/popcorn/aarch64/lib/libc.a(wcrtomb.o)
 .text.wcrtomb  0x0000000000404a8c      0x10c 0x4 /usr/local/popcorn/aarch64/lib/libc.a(wcrtomb.o)
                0x0000000000404a8c                wcrtomb
 .text          0x0000000000404b98        0x0 0x4 /usr/local/popcorn/aarch64/lib/libc.a(__overflow.o)
 .text.__overflow
                0x0000000000404b98       0xa8 0x4 /usr/local/popcorn/aarch64/lib/libc.a(__overflow.o)
                0x0000000000404b98                __overflow
 .text          0x0000000000404c40        0x0 0x4 /usr/local/popcorn/aarch64/lib/libc.a(__towrite.o)
 .text.__towrite
                0x0000000000404c40       0x50 0x4 /usr/local/popcorn/aarch64/lib/libc.a(__towrite.o)
                0x0000000000404c40                __towrite
 .text.__towrite_needs_stdio_exit
                0x0000000000404c90        0x4 0x4 /usr/local/popcorn/aarch64/lib/libc.a(__towrite.o)
                0x0000000000404c90                __towrite_needs_stdio_exit
 .text          0x0000000000404c94        0x0 0x4 /usr/local/popcorn/aarch64/lib/libc.a(__syscall_cp.o)
 .text.sccp     0x0000000000404c94        0x4 0x4 /usr/local/popcorn/aarch64/lib/libc.a(__syscall_cp.o)
                0x0000000000404c94                __syscall_cp_c
 .text.__syscall_cp
                0x0000000000404c98        0x4 0x4 /usr/local/popcorn/aarch64/lib/libc.a(__syscall_cp.o)
                0x0000000000404c98                __syscall_cp
 .text          0x0000000000404c9c        0x0 0x4 /usr/local/popcorn/aarch64/lib/libc.a(syscall.o)
 .text.__syscall
                0x0000000000404ca0       0x28 0x10 /usr/local/popcorn/aarch64/lib/libc.a(syscall.o)
                0x0000000000404ca0                __syscall
 .text          0x0000000000404cc8        0x0 0x4 /usr/local/popcorn/aarch64/lib/libc.a(__stdio_exit.o)
 .text.__stdio_exit
                0x0000000000404cc8       0x48 0x4 /usr/local/popcorn/aarch64/lib/libc.a(__stdio_exit.o)
                0x0000000000404cc8                __stdio_exit
                0x0000000000404cc8                __stdio_exit_needed
 .text.close_file
                0x0000000000404d10       0x70 0x4 /usr/local/popcorn/aarch64/lib/libc.a(__stdio_exit.o)
 .text          0x0000000000404d80        0x0 0x4 /usr/local/popcorn/aarch64/lib/libmigrate.a(migrate.o)
 .text.node_available
                0x0000000000404d80       0x30 0x4 /usr/local/popcorn/aarch64/lib/libmigrate.a(migrate.o)
                0x0000000000404d80                node_available
 .text.total_act_nodes
                0x0000000000404db0       0x40 0x4 /usr/local/popcorn/aarch64/lib/libmigrate.a(migrate.o)
                0x0000000000404db0                total_act_nodes
 .text.current_arch
                0x0000000000404df0       0x44 0x4 /usr/local/popcorn/aarch64/lib/libmigrate.a(migrate.o)
                0x0000000000404df0                current_arch
 .text.current_nid
                0x0000000000404e34       0x14 0x4 /usr/local/popcorn/aarch64/lib/libmigrate.a(migrate.o)
                0x0000000000404e34                current_nid
 .text.__init_nodes_info
                0x0000000000404e48       0x34 0x4 /usr/local/popcorn/aarch64/lib/libmigrate.a(migrate.o)
                0x0000000000404e48                __init_nodes_info
 .text.__migrate_shim_internal
                0x0000000000404e7c      0x590 0x4 /usr/local/popcorn/aarch64/lib/libmigrate.a(migrate.o)
                0x0000000000404e7c                __migrate_shim_internal
 .text.check_migrate
                0x000000000040540c       0x68 0x4 /usr/local/popcorn/aarch64/lib/libmigrate.a(migrate.o)
                0x000000000040540c                check_migrate
 .text.migrate  0x0000000000405474       0x48 0x4 /usr/local/popcorn/aarch64/lib/libmigrate.a(migrate.o)
                0x0000000000405474                migrate
 .text.migrate_schedule
                0x00000000004054bc       0x4c 0x4 /usr/local/popcorn/aarch64/lib/libmigrate.a(migrate.o)
                0x00000000004054bc                migrate_schedule
 .text.get_call_site
                0x0000000000405508        0x8 0x4 /usr/local/popcorn/aarch64/lib/libmigrate.a(migrate.o)
 .text          0x0000000000405510        0x0 0x4 /usr/local/popcorn/aarch64/lib/libmigrate.a(trigger.o)
 .text.clear_migrate_flag
                0x0000000000405510       0x14 0x4 /usr/local/popcorn/aarch64/lib/libmigrate.a(trigger.o)
                0x0000000000405510                clear_migrate_flag
 .text.__register_migrate_sighandler
                0x0000000000405524       0x5c 0x4 /usr/local/popcorn/aarch64/lib/libmigrate.a(trigger.o)
 .text.__migrate_sighandler
                0x0000000000405580       0x5c 0x4 /usr/local/popcorn/aarch64/lib/libmigrate.a(trigger.o)
 .text          0x00000000004055dc        0x0 0x1 /usr/local/popcorn/aarch64/lib/libmigrate.a(migrate_x86_64.o)
 .text.__migrate_fixup_x86_64
                0x00000000004055dc        0x0 0x1 /usr/local/popcorn/aarch64/lib/libmigrate.a(migrate_x86_64.o)
                0x00000000004055dc                __migrate_fixup_x86_64
 .text          0x00000000004055dc        0x0 0x1 /usr/local/popcorn/aarch64/lib/libmigrate.a(migrate_aarch64.o)
 .text.__migrate_fixup_aarch64
                0x00000000004055e0       0x7c 0x10 /usr/local/popcorn/aarch64/lib/libmigrate.a(migrate_aarch64.o)
                0x00000000004055e0                __migrate_fixup_aarch64
 .text          0x000000000040565c        0x0 0x1 /usr/local/popcorn/aarch64/lib/libmigrate.a(migrate_powerpc64.o)
 .text.__migrate_fixup_powerpc64
                0x0000000000405660        0x0 0x10 /usr/local/popcorn/aarch64/lib/libmigrate.a(migrate_powerpc64.o)
                0x0000000000405660                __migrate_fixup_powerpc64
 .text          0x0000000000405660        0x0 0x4 /usr/local/popcorn/aarch64/lib/libmigrate.a(mapping.o)
 .text.set_default_node
                0x0000000000405660       0x10 0x4 /usr/local/popcorn/aarch64/lib/libmigrate.a(mapping.o)
                0x0000000000405660                set_default_node
 .text.cleanup  0x0000000000405670       0xac 0x4 /usr/local/popcorn/aarch64/lib/libmigrate.a(mapping.o)
 .text.region_compare
                0x000000000040571c       0x28 0x4 /usr/local/popcorn/aarch64/lib/libmigrate.a(mapping.o)
                0x000000000040571c                region_compare
 .text.read_mapping_schedule
                0x0000000000405744      0x360 0x4 /usr/local/popcorn/aarch64/lib/libmigrate.a(mapping.o)
 .text.region_find
                0x0000000000405aa4       0x28 0x4 /usr/local/popcorn/aarch64/lib/libmigrate.a(mapping.o)
                0x0000000000405aa4                region_find
 .text.get_node_mapping
                0x0000000000405acc       0x98 0x4 /usr/local/popcorn/aarch64/lib/libmigrate.a(mapping.o)
                0x0000000000405acc                get_node_mapping
 .text          0x0000000000405b64        0x0 0x4 /usr/local/popcorn/aarch64/lib/libstack-transform.a(userspace.o)
 .text.__st_userspace_ctor
                0x0000000000405b64      0x338 0x4 /usr/local/popcorn/aarch64/lib/libstack-transform.a(userspace.o)
                0x0000000000405b64                __st_userspace_ctor
 .text.__st_userspace_dtor
                0x0000000000405e9c       0x98 0x4 /usr/local/popcorn/aarch64/lib/libstack-transform.a(userspace.o)
                0x0000000000405e9c                __st_userspace_dtor
 .text.get_stack_bounds
                0x0000000000405f34       0xe4 0x4 /usr/local/popcorn/aarch64/lib/libstack-transform.a(userspace.o)
                0x0000000000405f34                get_stack_bounds
 .text.st_userspace_rewrite
                0x0000000000406018      0x174 0x4 /usr/local/popcorn/aarch64/lib/libstack-transform.a(userspace.o)
                0x0000000000406018                st_userspace_rewrite
 .text          0x000000000040618c        0x0 0x4 /usr/local/popcorn/aarch64/lib/libstack-transform.a(init.o)
 .text.__st_ctor
                0x000000000040618c        0x4 0x4 /usr/local/popcorn/aarch64/lib/libstack-transform.a(init.o)
 .text.__st_dtor
                0x0000000000406190        0x4 0x4 /usr/local/popcorn/aarch64/lib/libstack-transform.a(init.o)
                0x0000000000406190                __st_dtor
 .text.st_init  0x0000000000406194      0x1e8 0x4 /usr/local/popcorn/aarch64/lib/libstack-transform.a(init.o)
                0x0000000000406194                st_init
 .text.st_destroy
                0x000000000040637c       0x40 0x4 /usr/local/popcorn/aarch64/lib/libstack-transform.a(init.o)
                0x000000000040637c                st_destroy
 .text          0x00000000004063bc        0x0 0x4 /usr/local/popcorn/aarch64/lib/libstack-transform.a(rewrite.o)
 .text.st_rewrite_stack
                0x00000000004063bc      0x71c 0x4 /usr/local/popcorn/aarch64/lib/libstack-transform.a(rewrite.o)
                0x00000000004063bc                st_rewrite_stack
 .text.rewrite_frame
                0x0000000000406ad8      0x4b8 0x4 /usr/local/popcorn/aarch64/lib/libstack-transform.a(rewrite.o)
 .text.st_rewrite_ondemand
                0x0000000000406f90       0x2c 0x4 /usr/local/popcorn/aarch64/lib/libstack-transform.a(rewrite.o)
                0x0000000000406f90                st_rewrite_ondemand
 .text.rewrite_val
                0x0000000000406fbc      0x370 0x4 /usr/local/popcorn/aarch64/lib/libstack-transform.a(rewrite.o)
 .text          0x000000000040732c        0x0 0x4 /usr/local/popcorn/aarch64/lib/libstack-transform.a(unwind.o)
 .text.first_frame
                0x000000000040732c        0xc 0x4 /usr/local/popcorn/aarch64/lib/libstack-transform.a(unwind.o)
                0x000000000040732c                first_frame
 .text.calculate_cfa
                0x0000000000407338       0x40 0x4 /usr/local/popcorn/aarch64/lib/libstack-transform.a(unwind.o)
                0x0000000000407338                calculate_cfa
 .text.bootstrap_first_frame
                0x0000000000407378       0x34 0x4 /usr/local/popcorn/aarch64/lib/libstack-transform.a(unwind.o)
                0x0000000000407378                bootstrap_first_frame
 .text.bootstrap_first_frame_funcentry
                0x00000000004073ac       0x64 0x4 /usr/local/popcorn/aarch64/lib/libstack-transform.a(unwind.o)
                0x00000000004073ac                bootstrap_first_frame_funcentry
 .text.pop_frame
                0x0000000000407410      0x258 0x4 /usr/local/popcorn/aarch64/lib/libstack-transform.a(unwind.o)
                0x0000000000407410                pop_frame
 .text.pop_frame_funcentry
                0x0000000000407668      0x198 0x4 /usr/local/popcorn/aarch64/lib/libstack-transform.a(unwind.o)
                0x0000000000407668                pop_frame_funcentry
 .text.get_register_save_loc
                0x0000000000407800       0x84 0x4 /usr/local/popcorn/aarch64/lib/libstack-transform.a(unwind.o)
                0x0000000000407800                get_register_save_loc
 .text.clear_activation
                0x0000000000407884       0x4c 0x4 /usr/local/popcorn/aarch64/lib/libstack-transform.a(unwind.o)
                0x0000000000407884                clear_activation
 .text          0x00000000004078d0        0x0 0x4 /usr/local/popcorn/aarch64/lib/libstack-transform.a(util.o)
 .text.arch_name
                0x00000000004078d0       0x4c 0x4 /usr/local/popcorn/aarch64/lib/libstack-transform.a(util.o)
                0x00000000004078d0                arch_name
 .text.get_regops
                0x000000000040791c       0x48 0x4 /usr/local/popcorn/aarch64/lib/libstack-transform.a(util.o)
                0x000000000040791c                get_regops
 .text.get_properties
                0x0000000000407964       0x48 0x4 /usr/local/popcorn/aarch64/lib/libstack-transform.a(util.o)
                0x0000000000407964                get_properties
 .text.get_section
                0x00000000004079ac       0xc0 0x4 /usr/local/popcorn/aarch64/lib/libstack-transform.a(util.o)
                0x00000000004079ac                get_section
 .text.get_num_entries
                0x0000000000407a6c       0x64 0x4 /usr/local/popcorn/aarch64/lib/libstack-transform.a(util.o)
                0x0000000000407a6c                get_num_entries
 .text.get_section_data
                0x0000000000407ad0       0x3c 0x4 /usr/local/popcorn/aarch64/lib/libstack-transform.a(util.o)
                0x0000000000407ad0                get_section_data
 .text.get_site_by_addr
                0x0000000000407b0c       0xa4 0x4 /usr/local/popcorn/aarch64/lib/libstack-transform.a(util.o)
                0x0000000000407b0c                get_site_by_addr
 .text.get_site_by_id
                0x0000000000407bb0       0x90 0x4 /usr/local/popcorn/aarch64/lib/libstack-transform.a(util.o)
                0x0000000000407bb0                get_site_by_id
 .text.get_unwind_offset_by_addr
                0x0000000000407c40       0xb4 0x4 /usr/local/popcorn/aarch64/lib/libstack-transform.a(util.o)
                0x0000000000407c40                get_unwind_offset_by_addr
 .text.get_function_address
                0x0000000000407cf4       0x88 0x4 /usr/local/popcorn/aarch64/lib/libstack-transform.a(util.o)
                0x0000000000407cf4                get_function_address
 .text          0x0000000000407d7c        0x0 0x4 /usr/local/popcorn/aarch64/lib/libstack-transform.a(properties.o)
 .text.align_sp_aarch64
                0x0000000000407d7c        0xc 0x4 /usr/local/popcorn/aarch64/lib/libstack-transform.a(properties.o)
 .text.is_callee_saved_aarch64
                0x0000000000407d88       0x30 0x4 /usr/local/popcorn/aarch64/lib/libstack-transform.a(properties.o)
 .text.callee_reg_size_aarch64
                0x0000000000407db8       0x58 0x4 /usr/local/popcorn/aarch64/lib/libstack-transform.a(properties.o)
 .text          0x0000000000407e10        0x0 0x4 /usr/local/popcorn/aarch64/lib/libstack-transform.a(regs.o)
 .text.regset_default_aarch64
                0x0000000000407e10        0xc 0x4 /usr/local/popcorn/aarch64/lib/libstack-transform.a(regs.o)
 .text.regset_init_aarch64
                0x0000000000407e1c       0x38 0x4 /usr/local/popcorn/aarch64/lib/libstack-transform.a(regs.o)
 .text.regset_free_aarch64
                0x0000000000407e54        0x4 0x4 /usr/local/popcorn/aarch64/lib/libstack-transform.a(regs.o)
 .text.regset_clone_aarch64
                0x0000000000407e58       0x14 0x4 /usr/local/popcorn/aarch64/lib/libstack-transform.a(regs.o)
 .text.regset_copyin_aarch64
                0x0000000000407e6c        0x8 0x4 /usr/local/popcorn/aarch64/lib/libstack-transform.a(regs.o)
 .text.regset_copyout_aarch64
                0x0000000000407e74       0x14 0x4 /usr/local/popcorn/aarch64/lib/libstack-transform.a(regs.o)
 .text.pc_aarch64
                0x0000000000407e88        0x8 0x4 /usr/local/popcorn/aarch64/lib/libstack-transform.a(regs.o)
 .text.sp_aarch64
                0x0000000000407e90        0x8 0x4 /usr/local/popcorn/aarch64/lib/libstack-transform.a(regs.o)
 .text.fbp_aarch64
                0x0000000000407e98        0x8 0x4 /usr/local/popcorn/aarch64/lib/libstack-transform.a(regs.o)
 .text.ra_reg_aarch64
                0x0000000000407ea0        0x8 0x4 /usr/local/popcorn/aarch64/lib/libstack-transform.a(regs.o)
 .text.set_pc_aarch64
                0x0000000000407ea8        0x8 0x4 /usr/local/popcorn/aarch64/lib/libstack-transform.a(regs.o)
 .text.set_sp_aarch64
                0x0000000000407eb0        0x8 0x4 /usr/local/popcorn/aarch64/lib/libstack-transform.a(regs.o)
 .text.set_fbp_aarch64
                0x0000000000407eb8        0x8 0x4 /usr/local/popcorn/aarch64/lib/libstack-transform.a(regs.o)
 .text.set_ra_reg_aarch64
                0x0000000000407ec0        0x8 0x4 /usr/local/popcorn/aarch64/lib/libstack-transform.a(regs.o)
 .text.setup_fbp_aarch64
                0x0000000000407ec8        0xc 0x4 /usr/local/popcorn/aarch64/lib/libstack-transform.a(regs.o)
 .text.reg_size_aarch64
                0x0000000000407ed4       0x54 0x4 /usr/local/popcorn/aarch64/lib/libstack-transform.a(regs.o)
 .text.reg_aarch64
                0x0000000000407f28      0x338 0x4 /usr/local/popcorn/aarch64/lib/libstack-transform.a(regs.o)
 .text          0x0000000000408260        0x0 0x4 /usr/local/popcorn/aarch64/lib/libstack-transform.a(properties.o)
 .text.align_sp_powerpc64
                0x0000000000408260       0x14 0x4 /usr/local/popcorn/aarch64/lib/libstack-transform.a(properties.o)
 .text.is_callee_saved_powerpc64
                0x0000000000408274       0x2c 0x4 /usr/local/popcorn/aarch64/lib/libstack-transform.a(properties.o)
 .text.callee_reg_size_powerpc64
                0x00000000004082a0       0x50 0x4 /usr/local/popcorn/aarch64/lib/libstack-transform.a(properties.o)
 .text          0x00000000004082f0        0x0 0x4 /usr/local/popcorn/aarch64/lib/libstack-transform.a(regs.o)
 .text.regset_default_powerpc64
                0x00000000004082f0        0xc 0x4 /usr/local/popcorn/aarch64/lib/libstack-transform.a(regs.o)
 .text.regset_init_powerpc64
                0x00000000004082fc       0x38 0x4 /usr/local/popcorn/aarch64/lib/libstack-transform.a(regs.o)
 .text.regset_free_powerpc64
                0x0000000000408334        0x4 0x4 /usr/local/popcorn/aarch64/lib/libstack-transform.a(regs.o)
 .text.regset_clone_powerpc64
                0x0000000000408338       0x14 0x4 /usr/local/popcorn/aarch64/lib/libstack-transform.a(regs.o)
 .text.regset_copyin_powerpc64
                0x000000000040834c        0x8 0x4 /usr/local/popcorn/aarch64/lib/libstack-transform.a(regs.o)
 .text.regset_copyout_powerpc64
                0x0000000000408354       0x14 0x4 /usr/local/popcorn/aarch64/lib/libstack-transform.a(regs.o)
 .text.pc_powerpc64
                0x0000000000408368        0x8 0x4 /usr/local/popcorn/aarch64/lib/libstack-transform.a(regs.o)
 .text.sp_powerpc64
                0x0000000000408370        0x8 0x4 /usr/local/popcorn/aarch64/lib/libstack-transform.a(regs.o)
 .text.fbp_powerpc64
                0x0000000000408378        0x8 0x4 /usr/local/popcorn/aarch64/lib/libstack-transform.a(regs.o)
 .text.ra_reg_powerpc64
                0x0000000000408380        0x8 0x4 /usr/local/popcorn/aarch64/lib/libstack-transform.a(regs.o)
 .text.set_pc_powerpc64
                0x0000000000408388        0x8 0x4 /usr/local/popcorn/aarch64/lib/libstack-transform.a(regs.o)
 .text.set_sp_powerpc64
                0x0000000000408390        0x8 0x4 /usr/local/popcorn/aarch64/lib/libstack-transform.a(regs.o)
 .text.set_fbp_powerpc64
                0x0000000000408398        0x8 0x4 /usr/local/popcorn/aarch64/lib/libstack-transform.a(regs.o)
 .text.set_ra_reg_powerpc64
                0x00000000004083a0        0x8 0x4 /usr/local/popcorn/aarch64/lib/libstack-transform.a(regs.o)
 .text.setup_fbp_powerpc64
                0x00000000004083a8        0xc 0x4 /usr/local/popcorn/aarch64/lib/libstack-transform.a(regs.o)
 .text.reg_size_powerpc64
                0x00000000004083b4       0x54 0x4 /usr/local/popcorn/aarch64/lib/libstack-transform.a(regs.o)
 .text.reg_powerpc64
                0x0000000000408408      0x35c 0x4 /usr/local/popcorn/aarch64/lib/libstack-transform.a(regs.o)
 .text          0x0000000000408764        0x0 0x4 /usr/local/popcorn/aarch64/lib/libstack-transform.a(properties.o)
 .text.align_sp_x86_64
                0x0000000000408764       0x10 0x4 /usr/local/popcorn/aarch64/lib/libstack-transform.a(properties.o)
 .text.is_callee_saved_x86_64
                0x0000000000408774       0x2c 0x4 /usr/local/popcorn/aarch64/lib/libstack-transform.a(properties.o)
 .text.callee_reg_size_x86_64
                0x00000000004087a0       0x54 0x4 /usr/local/popcorn/aarch64/lib/libstack-transform.a(properties.o)
 .text          0x00000000004087f4        0x0 0x4 /usr/local/popcorn/aarch64/lib/libstack-transform.a(regs.o)
 .text.regset_default_x86_64
                0x00000000004087f4        0xc 0x4 /usr/local/popcorn/aarch64/lib/libstack-transform.a(regs.o)
 .text.regset_init_x86_64
                0x0000000000408800       0x38 0x4 /usr/local/popcorn/aarch64/lib/libstack-transform.a(regs.o)
 .text.regset_free_x86_64
                0x0000000000408838        0x4 0x4 /usr/local/popcorn/aarch64/lib/libstack-transform.a(regs.o)
 .text.regset_clone_x86_64
                0x000000000040883c       0x14 0x4 /usr/local/popcorn/aarch64/lib/libstack-transform.a(regs.o)
 .text.regset_copyin_x86_64
                0x0000000000408850        0x8 0x4 /usr/local/popcorn/aarch64/lib/libstack-transform.a(regs.o)
 .text.regset_copyout_x86_64
                0x0000000000408858       0x14 0x4 /usr/local/popcorn/aarch64/lib/libstack-transform.a(regs.o)
 .text.pc_x86_64
                0x000000000040886c        0x8 0x4 /usr/local/popcorn/aarch64/lib/libstack-transform.a(regs.o)
 .text.sp_x86_64
                0x0000000000408874        0x8 0x4 /usr/local/popcorn/aarch64/lib/libstack-transform.a(regs.o)
 .text.fbp_x86_64
                0x000000000040887c        0x8 0x4 /usr/local/popcorn/aarch64/lib/libstack-transform.a(regs.o)
 .text.ra_reg_x86_64
                0x0000000000408884       0x2c 0x4 /usr/local/popcorn/aarch64/lib/libstack-transform.a(regs.o)
 .text.set_pc_x86_64
                0x00000000004088b0        0x8 0x4 /usr/local/popcorn/aarch64/lib/libstack-transform.a(regs.o)
 .text.set_sp_x86_64
                0x00000000004088b8        0x8 0x4 /usr/local/popcorn/aarch64/lib/libstack-transform.a(regs.o)
 .text.set_fbp_x86_64
                0x00000000004088c0        0x8 0x4 /usr/local/popcorn/aarch64/lib/libstack-transform.a(regs.o)
 .text.set_ra_reg_x86_64
                0x00000000004088c8       0x2c 0x4 /usr/local/popcorn/aarch64/lib/libstack-transform.a(regs.o)
 .text.setup_fbp_x86_64
                0x00000000004088f4        0xc 0x4 /usr/local/popcorn/aarch64/lib/libstack-transform.a(regs.o)
 .text.reg_size_x86_64
                0x0000000000408900       0x50 0x4 /usr/local/popcorn/aarch64/lib/libstack-transform.a(regs.o)
 .text.reg_x86_64
                0x0000000000408950      0x1c4 0x4 /usr/local/popcorn/aarch64/lib/libstack-transform.a(regs.o)
 .text          0x0000000000408b14        0x0 0x4 /usr/local/popcorn/aarch64/lib/libstack-transform.a(data.o)
 .text.put_val  0x0000000000408b14      0x254 0x4 /usr/local/popcorn/aarch64/lib/libstack-transform.a(data.o)
                0x0000000000408b14                put_val
 .text.get_dest_loc
                0x0000000000408d68       0xdc 0x4 /usr/local/popcorn/aarch64/lib/libstack-transform.a(data.o)
 .text.put_val_arch
                0x0000000000408e44      0x408 0x4 /usr/local/popcorn/aarch64/lib/libstack-transform.a(data.o)
                0x0000000000408e44                put_val_arch
 .text.put_val_data
                0x000000000040924c      0x114 0x4 /usr/local/popcorn/aarch64/lib/libstack-transform.a(data.o)
                0x000000000040924c                put_val_data
 .text.points_to_stack
                0x0000000000409360      0x160 0x4 /usr/local/popcorn/aarch64/lib/libstack-transform.a(data.o)
                0x0000000000409360                points_to_stack
 .text.points_to_data
                0x00000000004094c0      0x190 0x4 /usr/local/popcorn/aarch64/lib/libstack-transform.a(data.o)
                0x00000000004094c0                points_to_data
 .text.set_return_address
                0x0000000000409650       0x24 0x4 /usr/local/popcorn/aarch64/lib/libstack-transform.a(data.o)
                0x0000000000409650                set_return_address
 .text.set_return_address_funcentry
                0x0000000000409674       0x44 0x4 /usr/local/popcorn/aarch64/lib/libstack-transform.a(data.o)
                0x0000000000409674                set_return_address_funcentry
 .text.get_savedfbp_loc
                0x00000000004096b8       0x90 0x4 /usr/local/popcorn/aarch64/lib/libstack-transform.a(data.o)
                0x00000000004096b8                get_savedfbp_loc
 .text          0x0000000000409748        0x0 0x4 /usr/local/popcorn/aarch64/lib/libelf.a(begin.o)
 .text.elf_begin
                0x0000000000409748      0xad0 0x4 /usr/local/popcorn/aarch64/lib/libelf.a(begin.o)
                0x0000000000409748                elf_begin
 .text._elf_check_type
                0x000000000040a218      0x264 0x4 /usr/local/popcorn/aarch64/lib/libelf.a(begin.o)
 .text.elf_memory
                0x000000000040a47c       0xa8 0x4 /usr/local/popcorn/aarch64/lib/libelf.a(begin.o)
                0x000000000040a47c                elf_memory
 .text.gelf_getclass
                0x000000000040a524       0x28 0x4 /usr/local/popcorn/aarch64/lib/libelf.a(begin.o)
                0x000000000040a524                gelf_getclass
 .text          0x000000000040a54c        0x0 0x4 /usr/local/popcorn/aarch64/lib/libelf.a(end.o)
 .text.elf_end  0x000000000040a54c      0x198 0x4 /usr/local/popcorn/aarch64/lib/libelf.a(end.o)
                0x000000000040a54c                elf_end
 .text          0x000000000040a6e4        0x0 0x4 /usr/local/popcorn/aarch64/lib/libelf.a(getdata.o)
 .text.elf_getdata
                0x000000000040a6e4      0x280 0x4 /usr/local/popcorn/aarch64/lib/libelf.a(getdata.o)
                0x000000000040a6e4                elf_getdata
 .text          0x000000000040a964        0x0 0x4 /usr/local/popcorn/aarch64/lib/libelf.a(getident.o)
 .text.elf_getident
                0x000000000040a964       0x7c 0x4 /usr/local/popcorn/aarch64/lib/libelf.a(getident.o)
                0x000000000040a964                elf_getident
 .text          0x000000000040a9e0        0x0 0x4 /usr/local/popcorn/aarch64/lib/libelf.a(nextscn.o)
 .text.elf_nextscn
                0x000000000040a9e0       0xb4 0x4 /usr/local/popcorn/aarch64/lib/libelf.a(nextscn.o)
                0x000000000040a9e0                elf_nextscn
 .text          0x000000000040aa94        0x0 0x4 /usr/local/popcorn/aarch64/lib/libelf.a(strptr.o)
 .text.elf_strptr
                0x000000000040aa94      0x1b0 0x4 /usr/local/popcorn/aarch64/lib/libelf.a(strptr.o)
                0x000000000040aa94                elf_strptr
 .text          0x000000000040ac44        0x0 0x4 /usr/local/popcorn/aarch64/lib/libelf.a(version.o)
 .text.elf_version
                0x000000000040ac44       0x80 0x4 /usr/local/popcorn/aarch64/lib/libelf.a(version.o)
                0x000000000040ac44                elf_version
 .text          0x000000000040acc4        0x0 0x4 /usr/local/popcorn/aarch64/lib/libelf.a(32.getehdr.o)
 .text._elf_getehdr
                0x000000000040acc4       0x88 0x4 /usr/local/popcorn/aarch64/lib/libelf.a(32.getehdr.o)
                0x000000000040acc4                _elf_getehdr
 .text.elf32_getehdr
                0x000000000040ad4c       0x88 0x4 /usr/local/popcorn/aarch64/lib/libelf.a(32.getehdr.o)
                0x000000000040ad4c                elf32_getehdr
 .text.elf64_getehdr
                0x000000000040add4       0x88 0x4 /usr/local/popcorn/aarch64/lib/libelf.a(32.getehdr.o)
                0x000000000040add4                elf64_getehdr
 .text          0x000000000040ae5c        0x0 0x4 /usr/local/popcorn/aarch64/lib/libelf.a(32.xlatetof.o)
 .text._elf32_xltsize
                0x000000000040ae5c       0x98 0x4 /usr/local/popcorn/aarch64/lib/libelf.a(32.xlatetof.o)
                0x000000000040ae5c                _elf32_xltsize
 .text.elf32_xlatetom
                0x000000000040aef4      0x158 0x4 /usr/local/popcorn/aarch64/lib/libelf.a(32.xlatetof.o)
                0x000000000040aef4                elf32_xlatetom
 .text.elf32_xlatetof
                0x000000000040b04c      0x158 0x4 /usr/local/popcorn/aarch64/lib/libelf.a(32.xlatetof.o)
                0x000000000040b04c                elf32_xlatetof
 .text.byte_copy
                0x000000000040b1a4      0x184 0x4 /usr/local/popcorn/aarch64/lib/libelf.a(32.xlatetof.o)
 .text.addr_32L__tom
                0x000000000040b328       0x4c 0x4 /usr/local/popcorn/aarch64/lib/libelf.a(32.xlatetof.o)
 .text.addr_32L__tof
                0x000000000040b374       0x4c 0x4 /usr/local/popcorn/aarch64/lib/libelf.a(32.xlatetof.o)
 .text.dyn_32L11_tom
                0x000000000040b3c0       0x74 0x4 /usr/local/popcorn/aarch64/lib/libelf.a(32.xlatetof.o)
 .text.dyn_32L11_tof
                0x000000000040b434       0x74 0x4 /usr/local/popcorn/aarch64/lib/libelf.a(32.xlatetof.o)
 .text.ehdr_32L11_tom
                0x000000000040b4a8      0x1ac 0x4 /usr/local/popcorn/aarch64/lib/libelf.a(32.xlatetof.o)
 .text.ehdr_32L11_tof
                0x000000000040b654      0x1ac 0x4 /usr/local/popcorn/aarch64/lib/libelf.a(32.xlatetof.o)
 .text.half_32L__tom
                0x000000000040b800      0x10c 0x4 /usr/local/popcorn/aarch64/lib/libelf.a(32.xlatetof.o)
 .text.half_32L__tof
                0x000000000040b90c      0x138 0x4 /usr/local/popcorn/aarch64/lib/libelf.a(32.xlatetof.o)
 .text.off_32L__tom
                0x000000000040ba44       0x4c 0x4 /usr/local/popcorn/aarch64/lib/libelf.a(32.xlatetof.o)
 .text.off_32L__tof
                0x000000000040ba90       0x4c 0x4 /usr/local/popcorn/aarch64/lib/libelf.a(32.xlatetof.o)
 .text.phdr_32L11_tom
                0x000000000040badc      0x14c 0x4 /usr/local/popcorn/aarch64/lib/libelf.a(32.xlatetof.o)
 .text.phdr_32L11_tof
                0x000000000040bc28      0x14c 0x4 /usr/local/popcorn/aarch64/lib/libelf.a(32.xlatetof.o)
 .text.rela_32L11_tom
                0x000000000040bd74       0xb0 0x4 /usr/local/popcorn/aarch64/lib/libelf.a(32.xlatetof.o)
 .text.rela_32L11_tof
                0x000000000040be24       0xb0 0x4 /usr/local/popcorn/aarch64/lib/libelf.a(32.xlatetof.o)
 .text.rel_32L11_tom
                0x000000000040bed4       0x74 0x4 /usr/local/popcorn/aarch64/lib/libelf.a(32.xlatetof.o)
 .text.rel_32L11_tof
                0x000000000040bf48       0x74 0x4 /usr/local/popcorn/aarch64/lib/libelf.a(32.xlatetof.o)
 .text.shdr_32L11_tom
                0x000000000040bfbc      0x1ac 0x4 /usr/local/popcorn/aarch64/lib/libelf.a(32.xlatetof.o)
 .text.shdr_32L11_tof
                0x000000000040c168      0x1ac 0x4 /usr/local/popcorn/aarch64/lib/libelf.a(32.xlatetof.o)
 .text.sword_32L__tom
                0x000000000040c314       0x4c 0x4 /usr/local/popcorn/aarch64/lib/libelf.a(32.xlatetof.o)
 .text.sword_32L__tof
                0x000000000040c360       0x4c 0x4 /usr/local/popcorn/aarch64/lib/libelf.a(32.xlatetof.o)
 .text.sym_32L11_tom
                0x000000000040c3ac       0xb8 0x4 /usr/local/popcorn/aarch64/lib/libelf.a(32.xlatetof.o)
 .text.sym_32L11_tof
                0x000000000040c464       0xb8 0x4 /usr/local/popcorn/aarch64/lib/libelf.a(32.xlatetof.o)
 .text.word_32L__tom
                0x000000000040c51c       0x4c 0x4 /usr/local/popcorn/aarch64/lib/libelf.a(32.xlatetof.o)
 .text.word_32L__tof
                0x000000000040c568       0x4c 0x4 /usr/local/popcorn/aarch64/lib/libelf.a(32.xlatetof.o)
 .text.addr_32M__tom
                0x000000000040c5b4       0x48 0x4 /usr/local/popcorn/aarch64/lib/libelf.a(32.xlatetof.o)
 .text.addr_32M__tof
                0x000000000040c5fc       0x48 0x4 /usr/local/popcorn/aarch64/lib/libelf.a(32.xlatetof.o)
 .text.dyn_32M11_tom
                0x000000000040c644       0x70 0x4 /usr/local/popcorn/aarch64/lib/libelf.a(32.xlatetof.o)
 .text.dyn_32M11_tof
                0x000000000040c6b4       0x70 0x4 /usr/local/popcorn/aarch64/lib/libelf.a(32.xlatetof.o)
 .text.ehdr_32M11_tom
                0x000000000040c724      0x1ac 0x4 /usr/local/popcorn/aarch64/lib/libelf.a(32.xlatetof.o)
 .text.ehdr_32M11_tof
                0x000000000040c8d0      0x1ac 0x4 /usr/local/popcorn/aarch64/lib/libelf.a(32.xlatetof.o)
 .text.half_32M__tom
                0x000000000040ca7c      0x108 0x4 /usr/local/popcorn/aarch64/lib/libelf.a(32.xlatetof.o)
 .text.half_32M__tof
                0x000000000040cb84      0x134 0x4 /usr/local/popcorn/aarch64/lib/libelf.a(32.xlatetof.o)
 .text.off_32M__tom
                0x000000000040ccb8       0x48 0x4 /usr/local/popcorn/aarch64/lib/libelf.a(32.xlatetof.o)
 .text.off_32M__tof
                0x000000000040cd00       0x48 0x4 /usr/local/popcorn/aarch64/lib/libelf.a(32.xlatetof.o)
 .text.phdr_32M11_tom
                0x000000000040cd48      0x148 0x4 /usr/local/popcorn/aarch64/lib/libelf.a(32.xlatetof.o)
 .text.phdr_32M11_tof
                0x000000000040ce90      0x148 0x4 /usr/local/popcorn/aarch64/lib/libelf.a(32.xlatetof.o)
 .text.rela_32M11_tom
                0x000000000040cfd8       0xac 0x4 /usr/local/popcorn/aarch64/lib/libelf.a(32.xlatetof.o)
 .text.rela_32M11_tof
                0x000000000040d084       0xac 0x4 /usr/local/popcorn/aarch64/lib/libelf.a(32.xlatetof.o)
 .text.rel_32M11_tom
                0x000000000040d130       0x70 0x4 /usr/local/popcorn/aarch64/lib/libelf.a(32.xlatetof.o)
 .text.rel_32M11_tof
                0x000000000040d1a0       0x70 0x4 /usr/local/popcorn/aarch64/lib/libelf.a(32.xlatetof.o)
 .text.shdr_32M11_tom
                0x000000000040d210      0x1a8 0x4 /usr/local/popcorn/aarch64/lib/libelf.a(32.xlatetof.o)
 .text.shdr_32M11_tof
                0x000000000040d3b8      0x1a8 0x4 /usr/local/popcorn/aarch64/lib/libelf.a(32.xlatetof.o)
 .text.sword_32M__tom
                0x000000000040d560       0x48 0x4 /usr/local/popcorn/aarch64/lib/libelf.a(32.xlatetof.o)
 .text.sword_32M__tof
                0x000000000040d5a8       0x48 0x4 /usr/local/popcorn/aarch64/lib/libelf.a(32.xlatetof.o)
 .text.sym_32M11_tom
                0x000000000040d5f0       0xb4 0x4 /usr/local/popcorn/aarch64/lib/libelf.a(32.xlatetof.o)
 .text.sym_32M11_tof
                0x000000000040d6a4       0xb4 0x4 /usr/local/popcorn/aarch64/lib/libelf.a(32.xlatetof.o)
 .text.word_32M__tom
                0x000000000040d758       0x48 0x4 /usr/local/popcorn/aarch64/lib/libelf.a(32.xlatetof.o)
 .text.word_32M__tof
                0x000000000040d7a0       0x48 0x4 /usr/local/popcorn/aarch64/lib/libelf.a(32.xlatetof.o)
 .text.array_copy
                0x000000000040d7e8      0x138 0x4 /usr/local/popcorn/aarch64/lib/libelf.a(32.xlatetof.o)
 .text          0x000000000040d920        0x0 0x4 /usr/local/popcorn/aarch64/lib/libelf.a(cook.o)
 .text._elf_scn_type
                0x000000000040d920       0xac 0x4 /usr/local/popcorn/aarch64/lib/libelf.a(cook.o)
                0x000000000040d920                _elf_scn_type
 .text._elf_xlatetom
                0x000000000040d9cc       0x50 0x4 /usr/local/popcorn/aarch64/lib/libelf.a(cook.o)
                0x000000000040d9cc                _elf_xlatetom
 .text._elf_cook
                0x000000000040da1c      0x75c 0x4 /usr/local/popcorn/aarch64/lib/libelf.a(cook.o)
                0x000000000040da1c                _elf_cook
 .text._elf_item
                0x000000000040e178      0x1a0 0x4 /usr/local/popcorn/aarch64/lib/libelf.a(cook.o)
 .text          0x000000000040e318        0x0 0x4 /usr/local/popcorn/aarch64/lib/libelf.a(data.o)
 .text          0x000000000040e318        0x0 0x4 /usr/local/popcorn/aarch64/lib/libelf.a(input.o)
 .text._elf_read
                0x000000000040e318      0x140 0x4 /usr/local/popcorn/aarch64/lib/libelf.a(input.o)
                0x000000000040e318                _elf_read
 .text._elf_mmap
                0x000000000040e458        0x8 0x4 /usr/local/popcorn/aarch64/lib/libelf.a(input.o)
                0x000000000040e458                _elf_mmap
 .text          0x000000000040e460        0x0 0x4 /usr/local/popcorn/aarch64/lib/libelf.a(x.elfext.o)
 .text.elf_getphdrnum
                0x000000000040e460       0x80 0x4 /usr/local/popcorn/aarch64/lib/libelf.a(x.elfext.o)
                0x000000000040e460                elf_getphdrnum
 .text.elf_getshdrnum
                0x000000000040e4e0       0x94 0x4 /usr/local/popcorn/aarch64/lib/libelf.a(x.elfext.o)
                0x000000000040e4e0                elf_getshdrnum
 .text.elf_getshdrstrndx
                0x000000000040e574       0xf8 0x4 /usr/local/popcorn/aarch64/lib/libelf.a(x.elfext.o)
                0x000000000040e574                elf_getshdrstrndx
 .text.elf_getphnum
                0x000000000040e66c       0x78 0x4 /usr/local/popcorn/aarch64/lib/libelf.a(x.elfext.o)
                0x000000000040e66c                elf_getphnum
 .text.elf_getshnum
                0x000000000040e6e4       0x8c 0x4 /usr/local/popcorn/aarch64/lib/libelf.a(x.elfext.o)
                0x000000000040e6e4                elf_getshnum
 .text.elf_getshstrndx
                0x000000000040e770      0x104 0x4 /usr/local/popcorn/aarch64/lib/libelf.a(x.elfext.o)
                0x000000000040e770                elf_getshstrndx
 .text.elfx_update_shstrndx
                0x000000000040e874       0xf4 0x4 /usr/local/popcorn/aarch64/lib/libelf.a(x.elfext.o)
                0x000000000040e874                elfx_update_shstrndx
 .text          0x000000000040e968        0x0 0x4 /usr/local/popcorn/aarch64/lib/libelf.a(64.xlatetof.o)
 .text._elf64_xltsize
                0x000000000040e968       0x98 0x4 /usr/local/popcorn/aarch64/lib/libelf.a(64.xlatetof.o)
                0x000000000040e968                _elf64_xltsize
 .text.elf64_xlatetom
                0x000000000040ea00      0x158 0x4 /usr/local/popcorn/aarch64/lib/libelf.a(64.xlatetof.o)
                0x000000000040ea00                elf64_xlatetom
 .text.elf64_xlatetof
                0x000000000040eb58      0x158 0x4 /usr/local/popcorn/aarch64/lib/libelf.a(64.xlatetof.o)
                0x000000000040eb58                elf64_xlatetof
 .text.gelf_xlatetom
                0x000000000040ecb0      0x1b4 0x4 /usr/local/popcorn/aarch64/lib/libelf.a(64.xlatetof.o)
                0x000000000040ecb0                gelf_xlatetom
 .text.gelf_xlatetof
                0x000000000040ee64      0x1b4 0x4 /usr/local/popcorn/aarch64/lib/libelf.a(64.xlatetof.o)
                0x000000000040ee64                gelf_xlatetof
 .text.byte_copy
                0x000000000040f018      0x184 0x4 /usr/local/popcorn/aarch64/lib/libelf.a(64.xlatetof.o)
 .text.addr_64L__tom
                0x000000000040f19c       0x54 0x4 /usr/local/popcorn/aarch64/lib/libelf.a(64.xlatetof.o)
 .text.addr_64L__tof
                0x000000000040f1f0       0x54 0x4 /usr/local/popcorn/aarch64/lib/libelf.a(64.xlatetof.o)
 .text.dyn_64L11_tom
                0x000000000040f244       0x64 0x4 /usr/local/popcorn/aarch64/lib/libelf.a(64.xlatetof.o)
 .text.dyn_64L11_tof
                0x000000000040f2a8       0x64 0x4 /usr/local/popcorn/aarch64/lib/libelf.a(64.xlatetof.o)
 .text.ehdr_64L11_tom
                0x000000000040f30c      0x144 0x4 /usr/local/popcorn/aarch64/lib/libelf.a(64.xlatetof.o)
 .text.ehdr_64L11_tof
                0x000000000040f450      0x144 0x4 /usr/local/popcorn/aarch64/lib/libelf.a(64.xlatetof.o)
 .text.half_64L__tom
                0x000000000040f594      0x10c 0x4 /usr/local/popcorn/aarch64/lib/libelf.a(64.xlatetof.o)
 .text.half_64L__tof
                0x000000000040f6a0      0x138 0x4 /usr/local/popcorn/aarch64/lib/libelf.a(64.xlatetof.o)
 .text.off_64L__tom
                0x000000000040f7d8       0x54 0x4 /usr/local/popcorn/aarch64/lib/libelf.a(64.xlatetof.o)
 .text.off_64L__tof
                0x000000000040f82c       0x54 0x4 /usr/local/popcorn/aarch64/lib/libelf.a(64.xlatetof.o)
 .text.phdr_64L11_tom
                0x000000000040f880      0x114 0x4 /usr/local/popcorn/aarch64/lib/libelf.a(64.xlatetof.o)
 .text.phdr_64L11_tof
                0x000000000040f994      0x114 0x4 /usr/local/popcorn/aarch64/lib/libelf.a(64.xlatetof.o)
 .text.rela_64L11_tom
                0x000000000040faa8       0x88 0x4 /usr/local/popcorn/aarch64/lib/libelf.a(64.xlatetof.o)
 .text.rela_64L11_tof
                0x000000000040fb30       0x88 0x4 /usr/local/popcorn/aarch64/lib/libelf.a(64.xlatetof.o)
 .text.rel_64L11_tom
                0x000000000040fbb8       0x64 0x4 /usr/local/popcorn/aarch64/lib/libelf.a(64.xlatetof.o)
 .text.rel_64L11_tof
                0x000000000040fc1c       0x64 0x4 /usr/local/popcorn/aarch64/lib/libelf.a(64.xlatetof.o)
 .text.shdr_64L11_tom
                0x000000000040fc80      0x13c 0x4 /usr/local/popcorn/aarch64/lib/libelf.a(64.xlatetof.o)
 .text.shdr_64L11_tof
                0x000000000040fdbc      0x13c 0x4 /usr/local/popcorn/aarch64/lib/libelf.a(64.xlatetof.o)
 .text.sword_64L__tom
                0x000000000040fef8       0x4c 0x4 /usr/local/popcorn/aarch64/lib/libelf.a(64.xlatetof.o)
 .text.sword_64L__tof
                0x000000000040ff44       0x4c 0x4 /usr/local/popcorn/aarch64/lib/libelf.a(64.xlatetof.o)
 .text.sym_64L11_tom
                0x000000000040ff90       0xc0 0x4 /usr/local/popcorn/aarch64/lib/libelf.a(64.xlatetof.o)
 .text.sym_64L11_tof
                0x0000000000410050       0xc0 0x4 /usr/local/popcorn/aarch64/lib/libelf.a(64.xlatetof.o)
 .text.word_64L__tom
                0x0000000000410110       0x4c 0x4 /usr/local/popcorn/aarch64/lib/libelf.a(64.xlatetof.o)
 .text.word_64L__tof
                0x000000000041015c       0x4c 0x4 /usr/local/popcorn/aarch64/lib/libelf.a(64.xlatetof.o)
 .text.sxword_64L__tom
                0x00000000004101a8       0x54 0x4 /usr/local/popcorn/aarch64/lib/libelf.a(64.xlatetof.o)
 .text.sxword_64L__tof
                0x00000000004101fc       0x54 0x4 /usr/local/popcorn/aarch64/lib/libelf.a(64.xlatetof.o)
 .text.xword_64L__tom
                0x0000000000410250       0x54 0x4 /usr/local/popcorn/aarch64/lib/libelf.a(64.xlatetof.o)
 .text.xword_64L__tof
                0x00000000004102a4       0x54 0x4 /usr/local/popcorn/aarch64/lib/libelf.a(64.xlatetof.o)
 .text.addr_64M__tom
                0x00000000004102f8       0x54 0x4 /usr/local/popcorn/aarch64/lib/libelf.a(64.xlatetof.o)
 .text.addr_64M__tof
                0x000000000041034c       0x54 0x4 /usr/local/popcorn/aarch64/lib/libelf.a(64.xlatetof.o)
 .text.dyn_64M11_tom
                0x00000000004103a0       0x64 0x4 /usr/local/popcorn/aarch64/lib/libelf.a(64.xlatetof.o)
 .text.dyn_64M11_tof
                0x0000000000410404       0x64 0x4 /usr/local/popcorn/aarch64/lib/libelf.a(64.xlatetof.o)
 .text.ehdr_64M11_tom
                0x0000000000410468      0x144 0x4 /usr/local/popcorn/aarch64/lib/libelf.a(64.xlatetof.o)
 .text.ehdr_64M11_tof
                0x00000000004105ac      0x144 0x4 /usr/local/popcorn/aarch64/lib/libelf.a(64.xlatetof.o)
 .text.half_64M__tom
                0x00000000004106f0      0x108 0x4 /usr/local/popcorn/aarch64/lib/libelf.a(64.xlatetof.o)
 .text.half_64M__tof
                0x00000000004107f8      0x134 0x4 /usr/local/popcorn/aarch64/lib/libelf.a(64.xlatetof.o)
 .text.off_64M__tom
                0x000000000041092c       0x54 0x4 /usr/local/popcorn/aarch64/lib/libelf.a(64.xlatetof.o)
 .text.off_64M__tof
                0x0000000000410980       0x54 0x4 /usr/local/popcorn/aarch64/lib/libelf.a(64.xlatetof.o)
 .text.phdr_64M11_tom
                0x00000000004109d4       0xfc 0x4 /usr/local/popcorn/aarch64/lib/libelf.a(64.xlatetof.o)
 .text.phdr_64M11_tof
                0x0000000000410ad0       0xfc 0x4 /usr/local/popcorn/aarch64/lib/libelf.a(64.xlatetof.o)
 .text.rela_64M11_tom
                0x0000000000410bcc       0x88 0x4 /usr/local/popcorn/aarch64/lib/libelf.a(64.xlatetof.o)
 .text.rela_64M11_tof
                0x0000000000410c54       0x88 0x4 /usr/local/popcorn/aarch64/lib/libelf.a(64.xlatetof.o)
 .text.rel_64M11_tom
                0x0000000000410cdc       0x64 0x4 /usr/local/popcorn/aarch64/lib/libelf.a(64.xlatetof.o)
 .text.rel_64M11_tof
                0x0000000000410d40       0x64 0x4 /usr/local/popcorn/aarch64/lib/libelf.a(64.xlatetof.o)
 .text.shdr_64M11_tom
                0x0000000000410da4      0x124 0x4 /usr/local/popcorn/aarch64/lib/libelf.a(64.xlatetof.o)
 .text.shdr_64M11_tof
                0x0000000000410ec8      0x124 0x4 /usr/local/popcorn/aarch64/lib/libelf.a(64.xlatetof.o)
 .text.sword_64M__tom
                0x0000000000410fec       0x48 0x4 /usr/local/popcorn/aarch64/lib/libelf.a(64.xlatetof.o)
 .text.sword_64M__tof
                0x0000000000411034       0x48 0x4 /usr/local/popcorn/aarch64/lib/libelf.a(64.xlatetof.o)
 .text.sym_64M11_tom
                0x000000000041107c       0xc0 0x4 /usr/local/popcorn/aarch64/lib/libelf.a(64.xlatetof.o)
 .text.sym_64M11_tof
                0x000000000041113c       0xc0 0x4 /usr/local/popcorn/aarch64/lib/libelf.a(64.xlatetof.o)
 .text.word_64M__tom
                0x00000000004111fc       0x48 0x4 /usr/local/popcorn/aarch64/lib/libelf.a(64.xlatetof.o)
 .text.word_64M__tof
                0x0000000000411244       0x48 0x4 /usr/local/popcorn/aarch64/lib/libelf.a(64.xlatetof.o)
 .text.sxword_64M__tom
                0x000000000041128c       0x54 0x4 /usr/local/popcorn/aarch64/lib/libelf.a(64.xlatetof.o)
 .text.sxword_64M__tof
                0x00000000004112e0       0x54 0x4 /usr/local/popcorn/aarch64/lib/libelf.a(64.xlatetof.o)
 .text.xword_64M__tom
                0x0000000000411334       0x54 0x4 /usr/local/popcorn/aarch64/lib/libelf.a(64.xlatetof.o)
 .text.xword_64M__tof
                0x0000000000411388       0x54 0x4 /usr/local/popcorn/aarch64/lib/libelf.a(64.xlatetof.o)
 .text.array_copy
                0x00000000004113dc      0x138 0x4 /usr/local/popcorn/aarch64/lib/libelf.a(64.xlatetof.o)
 .text          0x0000000000411514        0x0 0x4 /usr/local/popcorn/aarch64/lib/libelf.a(gelfshdr.o)
 .text.gelf_getshdr
                0x0000000000411514      0x118 0x4 /usr/local/popcorn/aarch64/lib/libelf.a(gelfshdr.o)
                0x0000000000411514                gelf_getshdr
 .text.gelf_update_shdr
                0x000000000041162c      0x11c 0x4 /usr/local/popcorn/aarch64/lib/libelf.a(gelfshdr.o)
                0x000000000041162c                gelf_update_shdr
 .text          0x0000000000411748        0x0 0x4 /usr/local/popcorn/aarch64/lib/libelf.a(swap64.o)
 .text._elf_load_u64L
                0x0000000000411748       0x50 0x4 /usr/local/popcorn/aarch64/lib/libelf.a(swap64.o)
                0x0000000000411748                _elf_load_u64L
 .text._elf_load_u64M
                0x0000000000411798       0x50 0x4 /usr/local/popcorn/aarch64/lib/libelf.a(swap64.o)
                0x0000000000411798                _elf_load_u64M
 .text._elf_load_i64L
                0x00000000004117e8       0x50 0x4 /usr/local/popcorn/aarch64/lib/libelf.a(swap64.o)
                0x00000000004117e8                _elf_load_i64L
 .text._elf_load_i64M
                0x0000000000411838       0x50 0x4 /usr/local/popcorn/aarch64/lib/libelf.a(swap64.o)
                0x0000000000411838                _elf_load_i64M
 .text._elf_store_u64L
                0x0000000000411888       0x40 0x4 /usr/local/popcorn/aarch64/lib/libelf.a(swap64.o)
                0x0000000000411888                _elf_store_u64L
 .text._elf_store_u64M
                0x00000000004118c8       0x40 0x4 /usr/local/popcorn/aarch64/lib/libelf.a(swap64.o)
                0x00000000004118c8                _elf_store_u64M
 .text._elf_store_i64L
                0x0000000000411908       0x40 0x4 /usr/local/popcorn/aarch64/lib/libelf.a(swap64.o)
                0x0000000000411908                _elf_store_i64L
 .text._elf_store_i64M
                0x0000000000411948       0x40 0x4 /usr/local/popcorn/aarch64/lib/libelf.a(swap64.o)
                0x0000000000411948                _elf_store_i64M
 .text          0x0000000000411988        0x0 0x4 /usr/local/popcorn/aarch64/lib/libelf.a(verdef_32_tof.o)
 .text._elf_verdef_32L11_tof
                0x0000000000411988        0x8 0x4 /usr/local/popcorn/aarch64/lib/libelf.a(verdef_32_tof.o)
                0x0000000000411988                _elf_verdef_32L11_tof
 .text.xlt_verdef
                0x0000000000411990      0x2a0 0x4 /usr/local/popcorn/aarch64/lib/libelf.a(verdef_32_tof.o)
 .text._elf_verdef_32M11_tof
                0x0000000000411c30        0x8 0x4 /usr/local/popcorn/aarch64/lib/libelf.a(verdef_32_tof.o)
                0x0000000000411c30                _elf_verdef_32M11_tof
 .text._elf_verneed_32L11_tof
                0x0000000000411c38        0x8 0x4 /usr/local/popcorn/aarch64/lib/libelf.a(verdef_32_tof.o)
                0x0000000000411c38                _elf_verneed_32L11_tof
 .text.xlt_verneed
                0x0000000000411c40      0x2e0 0x4 /usr/local/popcorn/aarch64/lib/libelf.a(verdef_32_tof.o)
 .text._elf_verneed_32M11_tof
                0x0000000000411f20        0x8 0x4 /usr/local/popcorn/aarch64/lib/libelf.a(verdef_32_tof.o)
                0x0000000000411f20                _elf_verneed_32M11_tof
 .text          0x0000000000411f28        0x0 0x4 /usr/local/popcorn/aarch64/lib/libelf.a(verdef_32_tom.o)
 .text._elf_verdef_32L11_tom
                0x0000000000411f28        0x8 0x4 /usr/local/popcorn/aarch64/lib/libelf.a(verdef_32_tom.o)
                0x0000000000411f28                _elf_verdef_32L11_tom
 .text.xlt_verdef
                0x0000000000411f30      0x2d4 0x4 /usr/local/popcorn/aarch64/lib/libelf.a(verdef_32_tom.o)
 .text._elf_verdef_32M11_tom
                0x0000000000412204        0x8 0x4 /usr/local/popcorn/aarch64/lib/libelf.a(verdef_32_tom.o)
                0x0000000000412204                _elf_verdef_32M11_tom
 .text._elf_verneed_32L11_tom
                0x000000000041220c        0x8 0x4 /usr/local/popcorn/aarch64/lib/libelf.a(verdef_32_tom.o)
                0x000000000041220c                _elf_verneed_32L11_tom
 .text.xlt_verneed
                0x0000000000412214      0x2d8 0x4 /usr/local/popcorn/aarch64/lib/libelf.a(verdef_32_tom.o)
 .text._elf_verneed_32M11_tom
                0x00000000004124ec        0x8 0x4 /usr/local/popcorn/aarch64/lib/libelf.a(verdef_32_tom.o)
                0x00000000004124ec                _elf_verneed_32M11_tom
 .text          0x00000000004124f4        0x0 0x4 /usr/local/popcorn/aarch64/lib/libelf.a(verdef_64_tof.o)
 .text._elf_verdef_64L11_tof
                0x00000000004124f4        0x8 0x4 /usr/local/popcorn/aarch64/lib/libelf.a(verdef_64_tof.o)
                0x00000000004124f4                _elf_verdef_64L11_tof
 .text.xlt_verdef
                0x00000000004124fc      0x2a0 0x4 /usr/local/popcorn/aarch64/lib/libelf.a(verdef_64_tof.o)
 .text._elf_verdef_64M11_tof
                0x000000000041279c        0x8 0x4 /usr/local/popcorn/aarch64/lib/libelf.a(verdef_64_tof.o)
                0x000000000041279c                _elf_verdef_64M11_tof
 .text._elf_verneed_64L11_tof
                0x00000000004127a4        0x8 0x4 /usr/local/popcorn/aarch64/lib/libelf.a(verdef_64_tof.o)
                0x00000000004127a4                _elf_verneed_64L11_tof
 .text.xlt_verneed
                0x00000000004127ac      0x2e0 0x4 /usr/local/popcorn/aarch64/lib/libelf.a(verdef_64_tof.o)
 .text._elf_verneed_64M11_tof
                0x0000000000412a8c        0x8 0x4 /usr/local/popcorn/aarch64/lib/libelf.a(verdef_64_tof.o)
                0x0000000000412a8c                _elf_verneed_64M11_tof
 .text          0x0000000000412a94        0x0 0x4 /usr/local/popcorn/aarch64/lib/libelf.a(verdef_64_tom.o)
 .text._elf_verdef_64L11_tom
                0x0000000000412a94        0x8 0x4 /usr/local/popcorn/aarch64/lib/libelf.a(verdef_64_tom.o)
                0x0000000000412a94                _elf_verdef_64L11_tom
 .text.xlt_verdef
                0x0000000000412a9c      0x2d4 0x4 /usr/local/popcorn/aarch64/lib/libelf.a(verdef_64_tom.o)
 .text._elf_verdef_64M11_tom
                0x0000000000412d70        0x8 0x4 /usr/local/popcorn/aarch64/lib/libelf.a(verdef_64_tom.o)
                0x0000000000412d70                _elf_verdef_64M11_tom
 .text._elf_verneed_64L11_tom
                0x0000000000412d78        0x8 0x4 /usr/local/popcorn/aarch64/lib/libelf.a(verdef_64_tom.o)
                0x0000000000412d78                _elf_verneed_64L11_tom
 .text.xlt_verneed
                0x0000000000412d80      0x2d8 0x4 /usr/local/popcorn/aarch64/lib/libelf.a(verdef_64_tom.o)
 .text._elf_verneed_64M11_tom
                0x0000000000413058        0x8 0x4 /usr/local/popcorn/aarch64/lib/libelf.a(verdef_64_tom.o)
                0x0000000000413058                _elf_verneed_64M11_tom
 .text          0x0000000000413060        0x0 0x4 /usr/local/popcorn/aarch64/lib/libelf.a(getscn.o)
 .text.elf_getscn
                0x0000000000413060       0x90 0x4 /usr/local/popcorn/aarch64/lib/libelf.a(getscn.o)
                0x0000000000413060                elf_getscn
 .text          0x00000000004130f0        0x0 0x4 /usr/local/popcorn/aarch64/lib/libelf.a(newscn.o)
 .text._elf_update_shnum
                0x00000000004130f0       0x78 0x4 /usr/local/popcorn/aarch64/lib/libelf.a(newscn.o)
                0x00000000004130f0                _elf_update_shnum
 .text._elf_first_scn
                0x0000000000413168       0xf4 0x4 /usr/local/popcorn/aarch64/lib/libelf.a(newscn.o)
                0x0000000000413168                _elf_first_scn
 .text.elf_newscn
                0x000000000041325c      0x250 0x4 /usr/local/popcorn/aarch64/lib/libelf.a(newscn.o)
                0x000000000041325c                elf_newscn
 .text          0x00000000004134ac        0x0 0x4 /usr/local/popcorn/aarch64/lib/libelf.a(32.fsize.o)
 .text.elf32_fsize
                0x00000000004134ac       0x4c 0x4 /usr/local/popcorn/aarch64/lib/libelf.a(32.fsize.o)
                0x00000000004134ac                elf32_fsize
 .text.elf64_fsize
                0x00000000004134f8       0x4c 0x4 /usr/local/popcorn/aarch64/lib/libelf.a(32.fsize.o)
                0x00000000004134f8                elf64_fsize
 .text.gelf_fsize
                0x0000000000413544       0xa8 0x4 /usr/local/popcorn/aarch64/lib/libelf.a(32.fsize.o)
                0x0000000000413544                gelf_fsize
 .text.gelf_msize
                0x00000000004135ec       0xb4 0x4 /usr/local/popcorn/aarch64/lib/libelf.a(32.fsize.o)
                0x00000000004135ec                gelf_msize
 .text          0x00000000004136a0        0x0 0x4 /usr/local/popcorn/aarch64/lib/libc.a(arch_crash.o)
 .text.__crash_aarch64
                0x00000000004136a0       0x30 0x4 /usr/local/popcorn/aarch64/lib/libc.a(arch_crash.o)
                0x00000000004136a0                __crash_aarch64
                0x00000000004136a0                crash_aarch64
 .text.__crash_powerpc64
                0x00000000004136d0        0x8 0x4 /usr/local/popcorn/aarch64/lib/libc.a(arch_crash.o)
                0x00000000004136d0                __crash_powerpc64
                0x00000000004136d0                crash_powerpc64
 .text.__crash_x86_64
                0x00000000004136d8        0x8 0x4 /usr/local/popcorn/aarch64/lib/libc.a(arch_crash.o)
                0x00000000004136d8                __crash_x86_64
                0x00000000004136d8                crash_x86_64
 .text.__crash  0x00000000004136e0       0x30 0x4 /usr/local/popcorn/aarch64/lib/libc.a(arch_crash.o)
                0x00000000004136e0                __crash
                0x00000000004136e0                crash
 .text          0x0000000000413710        0x0 0x4 /usr/local/popcorn/aarch64/lib/libc.a(getenv.o)
 .text.getenv   0x0000000000413710       0x8c 0x4 /usr/local/popcorn/aarch64/lib/libc.a(getenv.o)
                0x0000000000413710                getenv
 .text          0x000000000041379c        0x0 0x4 /usr/local/popcorn/aarch64/lib/libc.a(platform.o)
 .text.popcorn_getnid
                0x000000000041379c       0x38 0x4 /usr/local/popcorn/aarch64/lib/libc.a(platform.o)
                0x000000000041379c                popcorn_getnid
 .text.popcorn_getthreadinfo
                0x00000000004137d4       0x1c 0x4 /usr/local/popcorn/aarch64/lib/libc.a(platform.o)
                0x00000000004137d4                popcorn_getthreadinfo
 .text.popcorn_getnodeinfo
                0x00000000004137f0       0x8c 0x4 /usr/local/popcorn/aarch64/lib/libc.a(platform.o)
                0x00000000004137f0                popcorn_getnodeinfo
 .text          0x000000000041387c        0x0 0x4 /usr/local/popcorn/aarch64/lib/libc.a(assert.o)
 .text.__assert_fail
                0x000000000041387c       0x4c 0x4 /usr/local/popcorn/aarch64/lib/libc.a(assert.o)
                0x000000000041387c                __assert_fail
 .text          0x00000000004138c8        0x0 0x4 /usr/local/popcorn/aarch64/lib/libc.a(open.o)
 .text.open     0x00000000004138c8      0x10c 0x4 /usr/local/popcorn/aarch64/lib/libc.a(open.o)
                0x00000000004138c8                open
                0x00000000004138c8                open64
 .text          0x00000000004139d4        0x0 0x4 /usr/local/popcorn/aarch64/lib/libc.a(calloc.o)
 .text.calloc   0x00000000004139d4       0x48 0x4 /usr/local/popcorn/aarch64/lib/libc.a(calloc.o)
                0x00000000004139d4                calloc
 .text.popcorn_calloc
                0x0000000000413a1c       0x4c 0x4 /usr/local/popcorn/aarch64/lib/libc.a(calloc.o)
                0x0000000000413a1c                popcorn_calloc
 .text.popcorn_calloc_cur
                0x0000000000413a68       0x5c 0x4 /usr/local/popcorn/aarch64/lib/libc.a(calloc.o)
                0x0000000000413a68                popcorn_calloc_cur
 .text          0x0000000000413ac4        0x0 0x4 /usr/local/popcorn/aarch64/lib/libc.a(lite_malloc.o)
 .text.__simple_malloc
                0x0000000000413ac4      0x104 0x4 /usr/local/popcorn/aarch64/lib/libc.a(lite_malloc.o)
 .text          0x0000000000413bc8        0x0 0x4 /usr/local/popcorn/aarch64/lib/libc.a(malloc.o)
 .text.__init_malloc
                0x0000000000413bc8       0x14 0x4 /usr/local/popcorn/aarch64/lib/libc.a(malloc.o)
 .text.malloc   0x0000000000413bdc      0x828 0x4 /usr/local/popcorn/aarch64/lib/libc.a(malloc.o)
                0x0000000000413bdc                malloc
 .text.lock_bin
                0x0000000000414404       0xac 0x4 /usr/local/popcorn/aarch64/lib/libc.a(malloc.o)
 .text.unbin    0x00000000004144b0       0xa4 0x4 /usr/local/popcorn/aarch64/lib/libc.a(malloc.o)
 .text.unlock_bin
                0x0000000000414554       0x6c 0x4 /usr/local/popcorn/aarch64/lib/libc.a(malloc.o)
 .text.__malloc0
                0x00000000004145c0       0xc4 0x4 /usr/local/popcorn/aarch64/lib/libc.a(malloc.o)
                0x00000000004145c0                __malloc0
 .text.realloc  0x0000000000414684      0x26c 0x4 /usr/local/popcorn/aarch64/lib/libc.a(malloc.o)
                0x0000000000414684                realloc
 .text.free     0x00000000004148f0      0x6b0 0x4 /usr/local/popcorn/aarch64/lib/libc.a(malloc.o)
                0x00000000004148f0                free
 .text.alloc_fwd
                0x0000000000414fa0       0xc8 0x4 /usr/local/popcorn/aarch64/lib/libc.a(malloc.o)
 .text          0x0000000000415068        0x0 0x4 /usr/local/popcorn/aarch64/lib/libc.a(popcorn_malloc.o)
 .text.__init_malloc
                0x0000000000415068       0x14 0x4 /usr/local/popcorn/aarch64/lib/libc.a(popcorn_malloc.o)
 .text.popcorn_malloc
                0x000000000041507c      0xa88 0x4 /usr/local/popcorn/aarch64/lib/libc.a(popcorn_malloc.o)
                0x000000000041507c                popcorn_malloc
 .text.__popcorn_malloc0
                0x0000000000415b04       0xc4 0x4 /usr/local/popcorn/aarch64/lib/libc.a(popcorn_malloc.o)
                0x0000000000415b04                __popcorn_malloc0
 .text.popcorn_malloc_cur
                0x0000000000415bc8       0x28 0x4 /usr/local/popcorn/aarch64/lib/libc.a(popcorn_malloc.o)
                0x0000000000415bc8                popcorn_malloc_cur
 .text.popcorn_realloc
                0x0000000000415bf0      0x520 0x4 /usr/local/popcorn/aarch64/lib/libc.a(popcorn_malloc.o)
                0x0000000000415bf0                popcorn_realloc
 .text.popcorn_free
                0x0000000000416110      0x9d8 0x4 /usr/local/popcorn/aarch64/lib/libc.a(popcorn_malloc.o)
                0x0000000000416110                popcorn_free
 .text.popcorn_realloc_cur
                0x0000000000416ae8       0x30 0x4 /usr/local/popcorn/aarch64/lib/libc.a(popcorn_malloc.o)
                0x0000000000416ae8                popcorn_realloc_cur
 .text          0x0000000000416b18        0x0 0x4 /usr/local/popcorn/aarch64/lib/libc.a(getrlimit.o)
 .text.getrlimit
                0x0000000000416b18       0xf8 0x4 /usr/local/popcorn/aarch64/lib/libc.a(getrlimit.o)
                0x0000000000416b18                getrlimit
                0x0000000000416b18                getrlimit64
 .text          0x0000000000416c10        0x0 0x4 /usr/local/popcorn/aarch64/lib/libc.a(syscall.o)
 .text.syscall  0x0000000000416c10      0x188 0x4 /usr/local/popcorn/aarch64/lib/libc.a(syscall.o)
                0x0000000000416c10                syscall
 .text          0x0000000000416d98        0x0 0x4 /usr/local/popcorn/aarch64/lib/libc.a(madvise.o)
 .text.__madvise
                0x0000000000416d98       0x20 0x4 /usr/local/popcorn/aarch64/lib/libc.a(madvise.o)
                0x0000000000416d98                __madvise
                0x0000000000416d98                madvise
 .text          0x0000000000416db8        0x0 0x4 /usr/local/popcorn/aarch64/lib/libc.a(mremap.o)
 .text.dummy    0x0000000000416db8        0x4 0x4 /usr/local/popcorn/aarch64/lib/libc.a(mremap.o)
 .text.__mremap
                0x0000000000416dbc      0x110 0x4 /usr/local/popcorn/aarch64/lib/libc.a(mremap.o)
                0x0000000000416dbc                __mremap
                0x0000000000416dbc                mremap
 .text          0x0000000000416ecc        0x0 0x4 /usr/local/popcorn/aarch64/lib/libc.a(sigaction.o)
 .text.__get_handler_set
                0x0000000000416ecc       0x10 0x4 /usr/local/popcorn/aarch64/lib/libc.a(sigaction.o)
                0x0000000000416ecc                __get_handler_set
 .text.__libc_sigaction
                0x0000000000416edc      0x194 0x4 /usr/local/popcorn/aarch64/lib/libc.a(sigaction.o)
                0x0000000000416edc                __libc_sigaction
 .text.__sigaction
                0x0000000000417070       0x40 0x4 /usr/local/popcorn/aarch64/lib/libc.a(sigaction.o)
                0x0000000000417070                __sigaction
                0x0000000000417070                sigaction
 .text          0x00000000004170b0        0x0 0x4 /usr/local/popcorn/aarch64/lib/libc.a(sigemptyset.o)
 .text.sigemptyset
                0x00000000004170b0        0xc 0x4 /usr/local/popcorn/aarch64/lib/libc.a(sigemptyset.o)
                0x00000000004170b0                sigemptyset
 .text          0x00000000004170bc        0x0 0x4 /usr/local/popcorn/aarch64/lib/libc.a(sigrtmin.o)
 .text.__libc_current_sigrtmin
                0x00000000004170bc        0x8 0x4 /usr/local/popcorn/aarch64/lib/libc.a(sigrtmin.o)
                0x00000000004170bc                __libc_current_sigrtmin
 .text          0x00000000004170c4        0x0 0x4 /usr/local/popcorn/aarch64/lib/libc.a(fclose.o)
 .text.dummy    0x00000000004170c4        0x4 0x4 /usr/local/popcorn/aarch64/lib/libc.a(fclose.o)
                0x00000000004170c4                __unlist_locked_file
 .text.fclose   0x00000000004170c8       0xd8 0x4 /usr/local/popcorn/aarch64/lib/libc.a(fclose.o)
                0x00000000004170c8                fclose
 .text          0x00000000004171a0        0x0 0x4 /usr/local/popcorn/aarch64/lib/libc.a(fflush.o)
 .text.fflush   0x00000000004171a0      0x154 0x4 /usr/local/popcorn/aarch64/lib/libc.a(fflush.o)
                0x00000000004171a0                fflush
                0x00000000004171a0                fflush_unlocked
 .text          0x00000000004172f4        0x0 0x4 /usr/local/popcorn/aarch64/lib/libc.a(fopen.o)
 .text.fopen    0x00000000004172f4       0xc0 0x4 /usr/local/popcorn/aarch64/lib/libc.a(fopen.o)
                0x00000000004172f4                fopen
                0x00000000004172f4                fopen64
 .text          0x00000000004173b4        0x0 0x4 /usr/local/popcorn/aarch64/lib/libc.a(fprintf.o)
 .text.fprintf  0x00000000004173b4       0x74 0x4 /usr/local/popcorn/aarch64/lib/libc.a(fprintf.o)
                0x00000000004173b4                fprintf
 .text          0x0000000000417428        0x0 0x4 /usr/local/popcorn/aarch64/lib/libc.a(fscanf.o)
 .text.fscanf   0x0000000000417428       0x74 0x4 /usr/local/popcorn/aarch64/lib/libc.a(fscanf.o)
                0x0000000000417428                __isoc99_fscanf
                0x0000000000417428                fscanf
 .text          0x000000000041749c        0x0 0x4 /usr/local/popcorn/aarch64/lib/libc.a(fseek.o)
 .text.__fseeko_unlocked
                0x000000000041749c       0xc0 0x4 /usr/local/popcorn/aarch64/lib/libc.a(fseek.o)
                0x000000000041749c                __fseeko_unlocked
 .text.__fseeko
                0x000000000041755c       0x7c 0x4 /usr/local/popcorn/aarch64/lib/libc.a(fseek.o)
                0x000000000041755c                __fseeko
                0x000000000041755c                fseeko
                0x000000000041755c                fseeko64
 .text.fseek    0x00000000004175d8        0x4 0x4 /usr/local/popcorn/aarch64/lib/libc.a(fseek.o)
                0x00000000004175d8                fseek
 .text          0x00000000004175dc        0x0 0x4 /usr/local/popcorn/aarch64/lib/libc.a(getc.o)
 .text.getc     0x00000000004175dc       0xa0 0x4 /usr/local/popcorn/aarch64/lib/libc.a(getc.o)
                0x00000000004175dc                _IO_getc
                0x00000000004175dc                getc
 .text          0x000000000041767c        0x0 0x4 /usr/local/popcorn/aarch64/lib/libc.a(getline.o)
 .text.getline  0x000000000041767c       0x10 0x4 /usr/local/popcorn/aarch64/lib/libc.a(getline.o)
                0x000000000041767c                getline
 .text          0x000000000041768c        0x0 0x4 /usr/local/popcorn/aarch64/lib/libc.a(snprintf.o)
 .text.snprintf
                0x000000000041768c       0x74 0x4 /usr/local/popcorn/aarch64/lib/libc.a(snprintf.o)
                0x000000000041768c                snprintf
 .text          0x0000000000417700        0x0 0x4 /usr/local/popcorn/aarch64/lib/libc.a(sscanf.o)
 .text.sscanf   0x0000000000417700       0x74 0x4 /usr/local/popcorn/aarch64/lib/libc.a(sscanf.o)
                0x0000000000417700                __isoc99_sscanf
                0x0000000000417700                sscanf
 .text          0x0000000000417774        0x0 0x4 /usr/local/popcorn/aarch64/lib/libc.a(vfscanf.o)
 .text.vfscanf  0x0000000000417774      0xd98 0x4 /usr/local/popcorn/aarch64/lib/libc.a(vfscanf.o)
                0x0000000000417774                __isoc99_vfscanf
                0x0000000000417774                vfscanf
 .text          0x000000000041850c        0x0 0x4 /usr/local/popcorn/aarch64/lib/libc.a(vsnprintf.o)
 .text.vsnprintf
                0x000000000041850c       0xd4 0x4 /usr/local/popcorn/aarch64/lib/libc.a(vsnprintf.o)
                0x000000000041850c                vsnprintf
 .text.sn_write
                0x00000000004185e0       0xd8 0x4 /usr/local/popcorn/aarch64/lib/libc.a(vsnprintf.o)
 .text          0x00000000004186b8        0x0 0x4 /usr/local/popcorn/aarch64/lib/libc.a(vsscanf.o)
 .text.vsscanf  0x00000000004186b8       0x80 0x4 /usr/local/popcorn/aarch64/lib/libc.a(vsscanf.o)
                0x00000000004186b8                __isoc99_vsscanf
                0x00000000004186b8                vsscanf
 .text.do_read  0x0000000000418738        0x4 0x4 /usr/local/popcorn/aarch64/lib/libc.a(vsscanf.o)
 .text          0x000000000041873c        0x0 0x4 /usr/local/popcorn/aarch64/lib/libc.a(bsearch.o)
 .text.bsearch  0x000000000041873c       0x84 0x4 /usr/local/popcorn/aarch64/lib/libc.a(bsearch.o)
                0x000000000041873c                bsearch
 .text          0x00000000004187c0        0x0 0x4 /usr/local/popcorn/aarch64/lib/libc.a(qsort.o)
 .text.qsort    0x00000000004187c0      0x34c 0x4 /usr/local/popcorn/aarch64/lib/libc.a(qsort.o)
                0x00000000004187c0                qsort
 .text.sift     0x0000000000418b0c      0x108 0x4 /usr/local/popcorn/aarch64/lib/libc.a(qsort.o)
 .text.trinkle  0x0000000000418c14      0x1dc 0x4 /usr/local/popcorn/aarch64/lib/libc.a(qsort.o)
 .text.cycle    0x0000000000418df0       0xbc 0x4 /usr/local/popcorn/aarch64/lib/libc.a(qsort.o)
 .text          0x0000000000418eac        0x0 0x4 /usr/local/popcorn/aarch64/lib/libc.a(strtol.o)
 .text.strtoull
                0x0000000000418eac        0x8 0x4 /usr/local/popcorn/aarch64/lib/libc.a(strtol.o)
                0x0000000000418eac                __strtoull_internal
                0x0000000000418eac                strtoull
 .text.strtox   0x0000000000418eb4       0xb4 0x4 /usr/local/popcorn/aarch64/lib/libc.a(strtol.o)
 .text.strtoll  0x0000000000418f68        0x8 0x4 /usr/local/popcorn/aarch64/lib/libc.a(strtol.o)
                0x0000000000418f68                __strtoll_internal
                0x0000000000418f68                strtoll
 .text.strtoul  0x0000000000418f70        0x8 0x4 /usr/local/popcorn/aarch64/lib/libc.a(strtol.o)
                0x0000000000418f70                __strtoul_internal
                0x0000000000418f70                strtoul
 .text.strtol   0x0000000000418f78        0x8 0x4 /usr/local/popcorn/aarch64/lib/libc.a(strtol.o)
                0x0000000000418f78                __strtol_internal
                0x0000000000418f78                strtol
 .text.strtoimax
                0x0000000000418f80        0x8 0x4 /usr/local/popcorn/aarch64/lib/libc.a(strtol.o)
                0x0000000000418f80                __strtoimax_internal
                0x0000000000418f80                strtoimax
 .text.strtoumax
                0x0000000000418f88        0x8 0x4 /usr/local/popcorn/aarch64/lib/libc.a(strtol.o)
                0x0000000000418f88                __strtoumax_internal
                0x0000000000418f88                strtoumax
 .text          0x0000000000418f90        0x0 0x4 /usr/local/popcorn/aarch64/lib/libc.a(strchr.o)
 .text.strchr   0x0000000000418f90       0x2c 0x4 /usr/local/popcorn/aarch64/lib/libc.a(strchr.o)
                0x0000000000418f90                strchr
 .text          0x0000000000418fbc        0x0 0x4 /usr/local/popcorn/aarch64/lib/libc.a(strchrnul.o)
 .text.__strchrnul
                0x0000000000418fbc       0xac 0x4 /usr/local/popcorn/aarch64/lib/libc.a(strchrnul.o)
                0x0000000000418fbc                __strchrnul
                0x0000000000418fbc                strchrnul
 .text          0x0000000000419068        0x0 0x4 /usr/local/popcorn/aarch64/lib/libc.a(strcmp.o)
 .text.strcmp   0x0000000000419068       0x28 0x4 /usr/local/popcorn/aarch64/lib/libc.a(strcmp.o)
                0x0000000000419068                strcmp
 .text          0x0000000000419090        0x0 0x4 /usr/local/popcorn/aarch64/lib/libc.a(strncmp.o)
 .text.strncmp  0x0000000000419090       0x50 0x4 /usr/local/popcorn/aarch64/lib/libc.a(strncmp.o)
                0x0000000000419090                strncmp
 .text          0x00000000004190e0        0x0 0x4 /usr/local/popcorn/aarch64/lib/libc.a(pthread_attr_get.o)
 .text.pthread_attr_getdetachstate
                0x00000000004190e0       0x10 0x4 /usr/local/popcorn/aarch64/lib/libc.a(pthread_attr_get.o)
                0x00000000004190e0                pthread_attr_getdetachstate
 .text.pthread_attr_getguardsize
                0x00000000004190f0       0x10 0x4 /usr/local/popcorn/aarch64/lib/libc.a(pthread_attr_get.o)
                0x00000000004190f0                pthread_attr_getguardsize
 .text.pthread_attr_getinheritsched
                0x0000000000419100       0x10 0x4 /usr/local/popcorn/aarch64/lib/libc.a(pthread_attr_get.o)
                0x0000000000419100                pthread_attr_getinheritsched
 .text.pthread_attr_getschedparam
                0x0000000000419110       0x10 0x4 /usr/local/popcorn/aarch64/lib/libc.a(pthread_attr_get.o)
                0x0000000000419110                pthread_attr_getschedparam
 .text.pthread_attr_getschedpolicy
                0x0000000000419120       0x10 0x4 /usr/local/popcorn/aarch64/lib/libc.a(pthread_attr_get.o)
                0x0000000000419120                pthread_attr_getschedpolicy
 .text.pthread_attr_getscope
                0x0000000000419130        0xc 0x4 /usr/local/popcorn/aarch64/lib/libc.a(pthread_attr_get.o)
                0x0000000000419130                pthread_attr_getscope
 .text.pthread_attr_getstack
                0x000000000041913c       0x2c 0x4 /usr/local/popcorn/aarch64/lib/libc.a(pthread_attr_get.o)
                0x000000000041913c                pthread_attr_getstack
 .text.pthread_attr_getstacksize
                0x0000000000419168       0x10 0x4 /usr/local/popcorn/aarch64/lib/libc.a(pthread_attr_get.o)
                0x0000000000419168                pthread_attr_getstacksize
 .text.pthread_barrierattr_getpshared
                0x0000000000419178       0x18 0x4 /usr/local/popcorn/aarch64/lib/libc.a(pthread_attr_get.o)
                0x0000000000419178                pthread_barrierattr_getpshared
 .text.pthread_condattr_getclock
                0x0000000000419190       0x14 0x4 /usr/local/popcorn/aarch64/lib/libc.a(pthread_attr_get.o)
                0x0000000000419190                pthread_condattr_getclock
 .text.pthread_condattr_getpshared
                0x00000000004191a4       0x14 0x4 /usr/local/popcorn/aarch64/lib/libc.a(pthread_attr_get.o)
                0x00000000004191a4                pthread_condattr_getpshared
 .text.pthread_mutexattr_getprotocol
                0x00000000004191b8        0xc 0x4 /usr/local/popcorn/aarch64/lib/libc.a(pthread_attr_get.o)
                0x00000000004191b8                pthread_mutexattr_getprotocol
 .text.pthread_mutexattr_getpshared
                0x00000000004191c4       0x14 0x4 /usr/local/popcorn/aarch64/lib/libc.a(pthread_attr_get.o)
                0x00000000004191c4                pthread_mutexattr_getpshared
 .text.pthread_mutexattr_getrobust
                0x00000000004191d8       0x14 0x4 /usr/local/popcorn/aarch64/lib/libc.a(pthread_attr_get.o)
                0x00000000004191d8                pthread_mutexattr_getrobust
 .text.pthread_mutexattr_gettype
                0x00000000004191ec       0x14 0x4 /usr/local/popcorn/aarch64/lib/libc.a(pthread_attr_get.o)
                0x00000000004191ec                pthread_mutexattr_gettype
 .text.pthread_rwlockattr_getpshared
                0x0000000000419200       0x10 0x4 /usr/local/popcorn/aarch64/lib/libc.a(pthread_attr_get.o)
                0x0000000000419200                pthread_rwlockattr_getpshared
 .text          0x0000000000419210        0x0 0x4 /usr/local/popcorn/aarch64/lib/libc.a(pthread_getattr_np.o)
 .text.pthread_getattr_np
                0x0000000000419210       0xec 0x4 /usr/local/popcorn/aarch64/lib/libc.a(pthread_getattr_np.o)
                0x0000000000419210                pthread_getattr_np
 .text          0x00000000004192fc        0x0 0x4 /usr/local/popcorn/aarch64/lib/libc.a(pthread_migrate.o)
 .text.pthread_set_migrate_args
                0x00000000004192fc        0xc 0x4 /usr/local/popcorn/aarch64/lib/libc.a(pthread_migrate.o)
                0x00000000004192fc                pthread_set_migrate_args
 .text.pthread_get_migrate_args
                0x0000000000419308        0xc 0x4 /usr/local/popcorn/aarch64/lib/libc.a(pthread_migrate.o)
                0x0000000000419308                pthread_get_migrate_args
 .text          0x0000000000419314        0x0 0x4 /usr/local/popcorn/aarch64/lib/libc.a(pthread_self.o)
 .text.__pthread_self_internal
                0x0000000000419314        0xc 0x4 /usr/local/popcorn/aarch64/lib/libc.a(pthread_self.o)
                0x0000000000419314                pthread_self
                0x0000000000419314                thrd_current
 .text          0x0000000000419320        0x0 0x4 /usr/local/popcorn/aarch64/lib/libc.a(close.o)
 .text.dummy    0x0000000000419320        0x4 0x4 /usr/local/popcorn/aarch64/lib/libc.a(close.o)
 .text.close    0x0000000000419324       0x44 0x4 /usr/local/popcorn/aarch64/lib/libc.a(close.o)
                0x0000000000419324                close
 .text          0x0000000000419368        0x0 0x4 /usr/local/popcorn/aarch64/lib/libc.a(lseek.o)
 .text.lseek    0x0000000000419368       0x14 0x4 /usr/local/popcorn/aarch64/lib/libc.a(lseek.o)
                0x0000000000419368                lseek
                0x0000000000419368                lseek64
 .text          0x000000000041937c        0x0 0x4 /usr/local/popcorn/aarch64/lib/libc.a(read.o)
 .text.read     0x000000000041937c       0x38 0x4 /usr/local/popcorn/aarch64/lib/libc.a(read.o)
                0x000000000041937c                read
 .text          0x00000000004193b4        0x0 0x4 /usr/local/popcorn/aarch64/lib/libc.a(abort.o)
 .text.abort    0x00000000004193b4       0x34 0x4 /usr/local/popcorn/aarch64/lib/libc.a(abort.o)
                0x00000000004193b4                abort
 .text          0x00000000004193e8        0x0 0x4 /usr/local/popcorn/aarch64/lib/libc.a(floatscan.o)
 .text.__floatscan
                0x00000000004193e8     0x163c 0x4 /usr/local/popcorn/aarch64/lib/libc.a(floatscan.o)
                0x00000000004193e8                __floatscan
 .text.scanexp  0x000000000041aa24      0x21c 0x4 /usr/local/popcorn/aarch64/lib/libc.a(floatscan.o)
 .text          0x000000000041ac40        0x0 0x4 /usr/local/popcorn/aarch64/lib/libc.a(intscan.o)
 .text.__intscan
                0x000000000041ac40      0x5c8 0x4 /usr/local/popcorn/aarch64/lib/libc.a(intscan.o)
                0x000000000041ac40                __intscan
 .text          0x000000000041b208        0x0 0x4 /usr/local/popcorn/aarch64/lib/libc.a(shgetc.o)
 .text.__shlim  0x000000000041b208       0x24 0x4 /usr/local/popcorn/aarch64/lib/libc.a(shgetc.o)
                0x000000000041b208                __shlim
 .text.__shgetc
                0x000000000041b22c       0xbc 0x4 /usr/local/popcorn/aarch64/lib/libc.a(shgetc.o)
                0x000000000041b22c                __shgetc
 .text          0x000000000041b2e8        0x0 0x4 /usr/local/popcorn/aarch64/lib/libc.a(expand_heap.o)
 .text.__expand_heap
                0x000000000041b2e8      0x178 0x4 /usr/local/popcorn/aarch64/lib/libc.a(expand_heap.o)
                0x000000000041b2e8                __expand_heap
 .text.__expand_heap_node
                0x000000000041b460      0x238 0x4 /usr/local/popcorn/aarch64/lib/libc.a(expand_heap.o)
                0x000000000041b460                __expand_heap_node
 .text.popcorn_get_arena
                0x000000000041b698      0x128 0x4 /usr/local/popcorn/aarch64/lib/libc.a(expand_heap.o)
                0x000000000041b698                popcorn_get_arena
 .text          0x000000000041b7c0        0x0 0x4 /usr/local/popcorn/aarch64/lib/libc.a(fabs.o)
 .text.fabs     0x000000000041b7c0        0x8 0x4 /usr/local/popcorn/aarch64/lib/libc.a(fabs.o)
                0x000000000041b7c0                fabs
 .text          0x000000000041b7c8        0x0 0x4 /usr/local/popcorn/aarch64/lib/libc.a(copysignl.o)
 .text.copysignl
                0x000000000041b7c8       0x2c 0x4 /usr/local/popcorn/aarch64/lib/libc.a(copysignl.o)
                0x000000000041b7c8                copysignl
 .text          0x000000000041b7f4        0x0 0x4 /usr/local/popcorn/aarch64/lib/libc.a(fmodl.o)
 .text.fmodl    0x000000000041b7f4      0x254 0x4 /usr/local/popcorn/aarch64/lib/libc.a(fmodl.o)
                0x000000000041b7f4                fmodl
 .text          0x000000000041ba48        0x0 0x4 /usr/local/popcorn/aarch64/lib/libc.a(scalbn.o)
 .text.scalbn   0x000000000041ba48       0x88 0x4 /usr/local/popcorn/aarch64/lib/libc.a(scalbn.o)
                0x000000000041ba48                scalbn
 .text          0x000000000041bad0        0x0 0x4 /usr/local/popcorn/aarch64/lib/libc.a(scalbnl.o)
 .text.scalbnl  0x000000000041bad0       0xd4 0x4 /usr/local/popcorn/aarch64/lib/libc.a(scalbnl.o)
                0x000000000041bad0                scalbnl
 .text          0x000000000041bba4        0x0 0x4 /usr/local/popcorn/aarch64/lib/libc.a(mbrtowc.o)
 .text.mbrtowc  0x000000000041bba4      0x144 0x4 /usr/local/popcorn/aarch64/lib/libc.a(mbrtowc.o)
                0x000000000041bba4                mbrtowc
 .text          0x000000000041bce8        0x0 0x4 /usr/local/popcorn/aarch64/lib/libc.a(mbsinit.o)
 .text.mbsinit  0x000000000041bce8       0x1c 0x4 /usr/local/popcorn/aarch64/lib/libc.a(mbsinit.o)
                0x000000000041bce8                mbsinit
 .text          0x000000000041bd04        0x0 0x4 /usr/local/popcorn/aarch64/lib/libc.a(restore.o)
 .text.__restore
                0x000000000041bd10        0x8 0x10 /usr/local/popcorn/aarch64/lib/libc.a(restore.o)
                0x000000000041bd10                __restore
 .text.__restore_rt
                0x000000000041bd20        0x8 0x10 /usr/local/popcorn/aarch64/lib/libc.a(restore.o)
                0x000000000041bd20                __restore_rt
 .text          0x000000000041bd28        0x0 0x4 /usr/local/popcorn/aarch64/lib/libc.a(raise.o)
 .text.raise    0x000000000041bd28       0x58 0x4 /usr/local/popcorn/aarch64/lib/libc.a(raise.o)
                0x000000000041bd28                raise
 .text          0x000000000041bd80        0x0 0x4 /usr/local/popcorn/aarch64/lib/libc.a(__fdopen.o)
 .text.__fdopen
                0x000000000041bd80      0x1b4 0x4 /usr/local/popcorn/aarch64/lib/libc.a(__fdopen.o)
                0x000000000041bd80                __fdopen
                0x000000000041bd80                fdopen
 .text          0x000000000041bf34        0x0 0x4 /usr/local/popcorn/aarch64/lib/libc.a(__fmodeflags.o)
 .text.__fmodeflags
                0x000000000041bf34       0x94 0x4 /usr/local/popcorn/aarch64/lib/libc.a(__fmodeflags.o)
                0x000000000041bf34                __fmodeflags
 .text          0x000000000041bfc8        0x0 0x4 /usr/local/popcorn/aarch64/lib/libc.a(__stdio_read.o)
 .text.__stdio_read
                0x000000000041bfc8       0xe0 0x4 /usr/local/popcorn/aarch64/lib/libc.a(__stdio_read.o)
                0x000000000041bfc8                __stdio_read
 .text          0x000000000041c0a8        0x0 0x4 /usr/local/popcorn/aarch64/lib/libc.a(__string_read.o)
 .text.__string_read
                0x000000000041c0a8       0x84 0x4 /usr/local/popcorn/aarch64/lib/libc.a(__string_read.o)
                0x000000000041c0a8                __string_read
 .text          0x000000000041c12c        0x0 0x4 /usr/local/popcorn/aarch64/lib/libc.a(__uflow.o)
 .text.__uflow  0x000000000041c12c       0x54 0x4 /usr/local/popcorn/aarch64/lib/libc.a(__uflow.o)
                0x000000000041c12c                __uflow
 .text          0x000000000041c180        0x0 0x4 /usr/local/popcorn/aarch64/lib/libc.a(getdelim.o)
 .text.getdelim
                0x000000000041c180      0x270 0x4 /usr/local/popcorn/aarch64/lib/libc.a(getdelim.o)
                0x000000000041c180                __getdelim
                0x000000000041c180                getdelim
 .text          0x000000000041c3f0        0x0 0x4 /usr/local/popcorn/aarch64/lib/libc.a(ofl_add.o)
 .text.__ofl_add
                0x000000000041c3f0       0x40 0x4 /usr/local/popcorn/aarch64/lib/libc.a(ofl_add.o)
                0x000000000041c3f0                __ofl_add
 .text          0x000000000041c430        0x0 0x4 /usr/local/popcorn/aarch64/lib/libc.a(internal.o)
 .text          0x000000000041c430        0x0 0x4 /usr/local/popcorn/aarch64/lib/libc.a(__toread.o)
 .text.__toread
                0x000000000041c430       0x88 0x4 /usr/local/popcorn/aarch64/lib/libc.a(__toread.o)
                0x000000000041c430                __toread
 .text.__toread_needs_stdio_exit
                0x000000000041c4b8        0x4 0x4 /usr/local/popcorn/aarch64/lib/libc.a(__toread.o)
                0x000000000041c4b8                __toread_needs_stdio_exit
 .text          0x000000000041c4c0      0xd34 0x8 /usr/lib/gcc-cross/aarch64-linux-gnu/5/libgcc.a(addtf3.o)
                0x000000000041c4c0                __addtf3
 .text          0x000000000041d1f8      0x8f8 0x8 /usr/lib/gcc-cross/aarch64-linux-gnu/5/libgcc.a(divtf3.o)
                0x000000000041d1f8                __divtf3
 .text          0x000000000041daf0      0x114 0x8 /usr/lib/gcc-cross/aarch64-linux-gnu/5/libgcc.a(eqtf2.o)
                0x000000000041daf0                __eqtf2
                0x000000000041daf0                __netf2
 .text          0x000000000041dc08      0x14c 0x8 /usr/lib/gcc-cross/aarch64-linux-gnu/5/libgcc.a(getf2.o)
                0x000000000041dc08                __getf2
                0x000000000041dc08                __gttf2
 .text          0x000000000041dd58      0x164 0x8 /usr/lib/gcc-cross/aarch64-linux-gnu/5/libgcc.a(letf2.o)
                0x000000000041dd58                __letf2
                0x000000000041dd58                __lttf2
 .text          0x000000000041dec0      0x790 0x8 /usr/lib/gcc-cross/aarch64-linux-gnu/5/libgcc.a(multf3.o)
                0x000000000041dec0                __multf3
 .text          0x000000000041e650      0xddc 0x8 /usr/lib/gcc-cross/aarch64-linux-gnu/5/libgcc.a(subtf3.o)
                0x000000000041e650                __subtf3
 .text          0x000000000041f430       0xd4 0x8 /usr/lib/gcc-cross/aarch64-linux-gnu/5/libgcc.a(unordtf2.o)
                0x000000000041f430                __unordtf2
 .text          0x000000000041f508      0x100 0x8 /usr/lib/gcc-cross/aarch64-linux-gnu/5/libgcc.a(fixtfsi.o)
                0x000000000041f508                __fixtfsi
 .text          0x000000000041f608       0xe4 0x8 /usr/lib/gcc-cross/aarch64-linux-gnu/5/libgcc.a(fixunstfsi.o)
                0x000000000041f608                __fixunstfsi
 .text          0x000000000041f6f0       0x7c 0x8 /usr/lib/gcc-cross/aarch64-linux-gnu/5/libgcc.a(floatsitf.o)
                0x000000000041f6f0                __floatsitf
 .text          0x000000000041f770       0x70 0x8 /usr/lib/gcc-cross/aarch64-linux-gnu/5/libgcc.a(floatunsitf.o)
                0x000000000041f770                __floatunsitf
 .text          0x000000000041f7e0       0xf4 0x8 /usr/lib/gcc-cross/aarch64-linux-gnu/5/libgcc.a(extendsftf2.o)
                0x000000000041f7e0                __extendsftf2
 .text          0x000000000041f8d8      0x118 0x8 /usr/lib/gcc-cross/aarch64-linux-gnu/5/libgcc.a(extenddftf2.o)
                0x000000000041f8d8                __extenddftf2
 .text          0x000000000041f9f0      0x340 0x8 /usr/lib/gcc-cross/aarch64-linux-gnu/5/libgcc.a(trunctfsf2.o)
                0x000000000041f9f0                __trunctfsf2
 .text          0x000000000041fd30      0x398 0x8 /usr/lib/gcc-cross/aarch64-linux-gnu/5/libgcc.a(trunctfdf2.o)
                0x000000000041fd30                __trunctfdf2
 .text          0x00000000004200c8       0x6c 0x8 /usr/lib/gcc-cross/aarch64-linux-gnu/5/libgcc.a(sfp-exceptions.o)
                0x00000000004200c8                __sfp_handle_exceptions

.rodata         0x0000000000420140     0x36fb
 .rodata.popcorn_migratemep__str___d__d__it
                0x0000000000420140       0x22 0x1 popcorn-migratemep_aarch64.o
                0x0000000000420140                popcorn_migratemep__str___d__d__it
 .rodata.popcorn_migratemep__str_1_pthread_cr
                0x0000000000420162        0xf 0x1 popcorn-migratemep_aarch64.o
                0x0000000000420162                popcorn_migratemep__str_1_pthread_cr
 .rodata.popcorn_migratemep__str_2_main__node
                0x0000000000420171       0x12 0x1 popcorn-migratemep_aarch64.o
                0x0000000000420171                popcorn_migratemep__str_2_main__node
 .rodata.popcorn_migratemep__str_3_pthread_jo
                0x0000000000420183        0xd 0x1 popcorn-migratemep_aarch64.o
                0x0000000000420183                popcorn_migratemep__str_3_pthread_jo
 .rodata.src_env___libc_start_main__str_
                0x0000000000420190        0x1 0x1 /usr/local/popcorn/aarch64/lib/libc.a(__libc_start_main.o)
                0x0000000000420190                src_env___libc_start_main__str_
 .rodata.src_env___libc_start_main___init_libc_pfd_
                0x0000000000420194       0x18 0x4 /usr/local/popcorn/aarch64/lib/libc.a(__libc_start_main.o)
                0x0000000000420194                src_env___libc_start_main___init_libc_pfd_
 .rodata.src_env___libc_start_main__str_1__dev_null_
                0x00000000004201ac        0xa 0x1 /usr/local/popcorn/aarch64/lib/libc.a(__libc_start_main.o)
                0x00000000004201ac                src_env___libc_start_main__str_1__dev_null_
 .rodata.stderr
                0x00000000004201b8        0x8 0x8 /usr/local/popcorn/aarch64/lib/libc.a(stderr.o)
                0x00000000004201b8                stderr
 .rodata.stdout
                0x00000000004201c0        0x8 0x8 /usr/local/popcorn/aarch64/lib/libc.a(stdout.o)
                0x00000000004201c0                stdout
 ** merge constants
                0x00000000004201d0      0x140
 .rodata        0x0000000000420310       0x20 0x10 /usr/local/popcorn/aarch64/lib/libc.a(vfprintf.o)
 .rodata.printf_core
                0x0000000000420330      0x170 0x8 /usr/local/popcorn/aarch64/lib/libc.a(vfprintf.o)
 .rodata.pop_arg
                0x00000000004204a0       0x90 0x8 /usr/local/popcorn/aarch64/lib/libc.a(vfprintf.o)
 .rodata.src_stdio_vfprintf_c_states
                0x0000000000420530      0x1d0 0x1 /usr/local/popcorn/aarch64/lib/libc.a(vfprintf.o)
 .rodata.src_stdio_vfprintf__str______0X0x_
                0x0000000000420700        0xa 0x1 /usr/local/popcorn/aarch64/lib/libc.a(vfprintf.o)
                0x0000000000420700                src_stdio_vfprintf__str______0X0x_
 .rodata.src_stdio_vfprintf__str_1__null__
                0x000000000042070a        0x7 0x1 /usr/local/popcorn/aarch64/lib/libc.a(vfprintf.o)
                0x000000000042070a                src_stdio_vfprintf__str_1__null__
 .rodata.src_stdio_vfprintf_c_xdigits
                0x0000000000420711       0x10 0x1 /usr/local/popcorn/aarch64/lib/libc.a(vfprintf.o)
 .rodata.src_stdio_vfprintf__str_2__0X_0X_0X_
                0x0000000000420721       0x13 0x1 /usr/local/popcorn/aarch64/lib/libc.a(vfprintf.o)
                0x0000000000420721                src_stdio_vfprintf__str_2__0X_0X_0X_
 .rodata.src_stdio_vfprintf__str_3_inf_
                0x0000000000420734        0x4 0x1 /usr/local/popcorn/aarch64/lib/libc.a(vfprintf.o)
                0x0000000000420734                src_stdio_vfprintf__str_3_inf_
 .rodata.src_stdio_vfprintf__str_4_INF_
                0x0000000000420738        0x4 0x1 /usr/local/popcorn/aarch64/lib/libc.a(vfprintf.o)
                0x0000000000420738                src_stdio_vfprintf__str_4_INF_
 .rodata.src_stdio_vfprintf__str_5_nan_
                0x000000000042073c        0x4 0x1 /usr/local/popcorn/aarch64/lib/libc.a(vfprintf.o)
                0x000000000042073c                src_stdio_vfprintf__str_5_nan_
 .rodata.src_stdio_vfprintf__str_6_NAN_
                0x0000000000420740        0x4 0x1 /usr/local/popcorn/aarch64/lib/libc.a(vfprintf.o)
                0x0000000000420740                src_stdio_vfprintf__str_6_NAN_
 .rodata.src_stdio_vfprintf__str_7___
                0x0000000000420744        0x2 0x1 /usr/local/popcorn/aarch64/lib/libc.a(vfprintf.o)
                0x0000000000420744                src_stdio_vfprintf__str_7___
 .rodata.src_errno_strerror_c_errid
                0x0000000000420746       0x58 0x1 /usr/local/popcorn/aarch64/lib/libc.a(strerror.o)
 .rodata.src_errno_strerror_c_errmsg
                0x000000000042079e      0x70c 0x1 /usr/local/popcorn/aarch64/lib/libc.a(strerror.o)
 .rodata.src_signal_block_c_all_mask
                0x0000000000420eb0        0x8 0x8 /usr/local/popcorn/aarch64/lib/libc.a(block.o)
 .rodata.src_signal_block_c_app_mask
                0x0000000000420eb8        0x8 0x8 /usr/local/popcorn/aarch64/lib/libc.a(block.o)
 .rodata.src_migrate__str_Destinatio
                0x0000000000420ec0       0x24 0x1 /usr/local/popcorn/aarch64/lib/libmigrate.a(migrate.o)
                0x0000000000420ec0                src_migrate__str_Destinatio
 .rodata.src_migrate__str_1_0_____Unsu
                0x0000000000420ee4       0x21 0x1 /usr/local/popcorn/aarch64/lib/libmigrate.a(migrate.o)
                0x0000000000420ee4                src_migrate__str_1_0_____Unsu
 .rodata.src_migrate__str_2_src_migrat
                0x0000000000420f05        0xe 0x1 /usr/local/popcorn/aarch64/lib/libmigrate.a(migrate.o)
                0x0000000000420f05                src_migrate__str_2_src_migrat
 .rodata.src_migrate___func_____migrate_shim_internal___migrate_
                0x0000000000420f13       0x18 0x1 /usr/local/popcorn/aarch64/lib/libmigrate.a(migrate.o)
                0x0000000000420f13                src_migrate___func_____migrate_shim_internal___migrate_
 .rodata.src_migrate__str_3_Could_not_
                0x0000000000420f2b       0x1a 0x1 /usr/local/popcorn/aarch64/lib/libmigrate.a(migrate.o)
                0x0000000000420f2b                src_migrate__str_3_Could_not_
 .rodata.src_migrate__str_4_Could_not_
                0x0000000000420f45       0x1a 0x1 /usr/local/popcorn/aarch64/lib/libmigrate.a(migrate.o)
                0x0000000000420f45                src_migrate__str_4_Could_not_
 .rodata.src_migrate___func___get_thread_pointer_get_thread
                0x0000000000420f5f       0x13 0x1 /usr/local/popcorn/aarch64/lib/libmigrate.a(migrate.o)
                0x0000000000420f5f                src_migrate___func___get_thread_pointer_get_thread
 .rodata.src_trigger__str_Could_not_
                0x0000000000420f72       0x34 0x1 /usr/local/popcorn/aarch64/lib/libmigrate.a(trigger.o)
                0x0000000000420f72                src_trigger__str_Could_not_
 .rodata.src_trigger__str_1_Could_not_
                0x0000000000420fa6       0x3b 0x1 /usr/local/popcorn/aarch64/lib/libmigrate.a(trigger.o)
                0x0000000000420fa6                src_trigger__str_1_Could_not_
 .rodata.src_mapping__str_POPCORN_TH
                0x0000000000420fe1       0x18 0x1 /usr/local/popcorn/aarch64/lib/libmigrate.a(mapping.o)
                0x0000000000420fe1                src_mapping__str_POPCORN_TH
 .rodata.src_mapping__str_1_thread_sch
                0x0000000000420ff9       0x14 0x1 /usr/local/popcorn/aarch64/lib/libmigrate.a(mapping.o)
                0x0000000000420ff9                src_mapping__str_1_thread_sch
 .rodata.src_mapping__str_2_r_
                0x000000000042100d        0x2 0x1 /usr/local/popcorn/aarch64/lib/libmigrate.a(mapping.o)
                0x000000000042100d                src_mapping__str_2_r_
 .rodata.src_mapping__str_3__lu__lu_
                0x000000000042100f        0x8 0x1 /usr/local/popcorn/aarch64/lib/libmigrate.a(mapping.o)
                0x000000000042100f                src_mapping__str_3__lu__lu_
 .rodata.src_mapping__str_4__d_
                0x0000000000421017        0x3 0x1 /usr/local/popcorn/aarch64/lib/libmigrate.a(mapping.o)
                0x0000000000421017                src_mapping__str_4__d_
 .rodata.src_userspace__str_ST_AARCH64
                0x000000000042101a        0xf 0x1 /usr/local/popcorn/aarch64/lib/libstack-transform.a(userspace.o)
                0x000000000042101a                src_userspace__str_ST_AARCH64
 .rodata.src_userspace__str_1__s_aarch64
                0x0000000000421029        0xb 0x1 /usr/local/popcorn/aarch64/lib/libstack-transform.a(userspace.o)
                0x0000000000421029                src_userspace__str_1__s_aarch64
 .rodata.src_userspace__str_2_ST_POWERPC
                0x0000000000421034       0x11 0x1 /usr/local/popcorn/aarch64/lib/libstack-transform.a(userspace.o)
                0x0000000000421034                src_userspace__str_2_ST_POWERPC
 .rodata.src_userspace__str_3__s_powerpc
                0x0000000000421045        0xd 0x1 /usr/local/popcorn/aarch64/lib/libstack-transform.a(userspace.o)
                0x0000000000421045                src_userspace__str_3__s_powerpc
 .rodata.src_userspace__str_4_ST_X86_64_
                0x0000000000421052        0xe 0x1 /usr/local/popcorn/aarch64/lib/libstack-transform.a(userspace.o)
                0x0000000000421052                src_userspace__str_4_ST_X86_64_
 .rodata.src_userspace__str_5__s_x86_64_
                0x0000000000421060        0xa 0x1 /usr/local/popcorn/aarch64/lib/libstack-transform.a(userspace.o)
                0x0000000000421060                src_userspace__str_5__s_x86_64_
 .rodata.src_userspace__str_6__proc__d_m
                0x000000000042106a        0xe 0x1 /usr/local/popcorn/aarch64/lib/libstack-transform.a(userspace.o)
                0x000000000042106a                src_userspace__str_6__proc__d_m
 .rodata.src_userspace__str_7_r_
                0x0000000000421078        0x2 0x1 /usr/local/popcorn/aarch64/lib/libstack-transform.a(userspace.o)
                0x0000000000421078                src_userspace__str_7_r_
 .rodata.src_userspace__str_8__lx__lx__s
                0x000000000042107a       0x19 0x1 /usr/local/popcorn/aarch64/lib/libstack-transform.a(userspace.o)
                0x000000000042107a                src_userspace__str_8__lx__lx(short)
 .rodata.src_userspace__str_9__stack__
                0x0000000000421093        0x8 0x1 /usr/local/popcorn/aarch64/lib/libstack-transform.a(userspace.o)
                0x0000000000421093                src_userspace__str_9__stack__
 .rodata.src_userspace_switch_table_10_
                0x00000000004210a0       0x18 0x10 /usr/local/popcorn/aarch64/lib/libstack-transform.a(userspace.o)
                0x00000000004210a0                src_userspace_switch_table_10_
 .rodata.src_init__str__stack_tra
                0x00000000004210b8       0x1f 0x1 /usr/local/popcorn/aarch64/lib/libstack-transform.a(init.o)
                0x00000000004210b8                src_init__str__stack_tra
 .rodata.src_init__str_1__stack_tra
                0x00000000004210d7       0x18 0x1 /usr/local/popcorn/aarch64/lib/libstack-transform.a(init.o)
                0x00000000004210d7                src_init__str_1__stack_tra
 .rodata.src_init__str_2__stack_tra
                0x00000000004210ef       0x14 0x1 /usr/local/popcorn/aarch64/lib/libstack-transform.a(init.o)
                0x00000000004210ef                src_init__str_2__stack_tra
 .rodata.src_init__str_3__stack_tra
                0x0000000000421103       0x16 0x1 /usr/local/popcorn/aarch64/lib/libstack-transform.a(init.o)
                0x0000000000421103                src_init__str_3__stack_tra
 .rodata.src_init__str_4__stack_tra
                0x0000000000421119       0x16 0x1 /usr/local/popcorn/aarch64/lib/libstack-transform.a(init.o)
                0x0000000000421119                src_init__str_4__stack_tra
 .rodata.src_init__str_5__stack_tra
                0x000000000042112f       0x1c 0x1 /usr/local/popcorn/aarch64/lib/libstack-transform.a(init.o)
                0x000000000042112f                src_init__str_5__stack_tra
 .rodata.src_rewrite__str__src_rewri
                0x000000000042114b       0x42 0x1 /usr/local/popcorn/aarch64/lib/libstack-transform.a(rewrite.o)
                0x000000000042114b                src_rewrite__str__src_rewri
 .rodata.src_rewrite__str_1__src_rewri
                0x000000000042118d       0x68 0x1 /usr/local/popcorn/aarch64/lib/libstack-transform.a(rewrite.o)
                0x000000000042118d                src_rewrite__str_1__src_rewri
 .rodata.src_rewrite__str_2__src_rewri
                0x00000000004211f5       0x54 0x1 /usr/local/popcorn/aarch64/lib/libstack-transform.a(rewrite.o)
                0x00000000004211f5                src_rewrite__str_2__src_rewri
 .rodata.src_rewrite__str_3__src_rewri
                0x0000000000421249       0x61 0x1 /usr/local/popcorn/aarch64/lib/libstack-transform.a(rewrite.o)
                0x0000000000421249                src_rewrite__str_3__src_rewri
 .rodata.src_util__str_aarch64_
                0x00000000004212aa        0x8 0x1 /usr/local/popcorn/aarch64/lib/libstack-transform.a(util.o)
                0x00000000004212aa                src_util__str_aarch64_
 .rodata.src_util__str_1_powerpc64_
                0x00000000004212b2        0xa 0x1 /usr/local/popcorn/aarch64/lib/libstack-transform.a(util.o)
                0x00000000004212b2                src_util__str_1_powerpc64_
 .rodata.src_util__str_2_x86_64_
                0x00000000004212bc        0x7 0x1 /usr/local/popcorn/aarch64/lib/libstack-transform.a(util.o)
                0x00000000004212bc                src_util__str_2_x86_64_
 .rodata.src_util__str_3_unknown_un
                0x00000000004212c3       0x21 0x1 /usr/local/popcorn/aarch64/lib/libstack-transform.a(util.o)
                0x00000000004212c3                src_util__str_3_unknown_un
 .rodata.src_arch_aarch64_properties_c_callee_saved_aarch64
                0x00000000004212e4       0x28 0x2 /usr/local/popcorn/aarch64/lib/libstack-transform.a(properties.o)
 .rodata.src_arch_aarch64_properties_c_callee_saved_size_aarch64
                0x000000000042130c       0x28 0x2 /usr/local/popcorn/aarch64/lib/libstack-transform.a(properties.o)
 .rodata.properties_aarch64
                0x0000000000421338       0x38 0x8 /usr/local/popcorn/aarch64/lib/libstack-transform.a(properties.o)
                0x0000000000421338                properties_aarch64
 .rodata.src_arch_aarch64_properties__str__src_arch_
                0x0000000000421370       0x51 0x1 /usr/local/popcorn/aarch64/lib/libstack-transform.a(properties.o)
                0x0000000000421370                src_arch_aarch64_properties__str__src_arch_
 .rodata.reg_aarch64
                0x00000000004213c8      0x300 0x8 /usr/local/popcorn/aarch64/lib/libstack-transform.a(regs.o)
 .rodata.regs_aarch64
                0x00000000004216c8       0xa8 0x8 /usr/local/popcorn/aarch64/lib/libstack-transform.a(regs.o)
                0x00000000004216c8                regs_aarch64
 .rodata.src_arch_aarch64_regs__str__src_arch_
                0x0000000000421770       0x4c 0x1 /usr/local/popcorn/aarch64/lib/libstack-transform.a(regs.o)
                0x0000000000421770                src_arch_aarch64_regs__str__src_arch_
 .rodata.src_arch_aarch64_regs__str_1__src_arch_
                0x00000000004217bc       0x4c 0x1 /usr/local/popcorn/aarch64/lib/libstack-transform.a(regs.o)
                0x00000000004217bc                src_arch_aarch64_regs__str_1__src_arch_
 .rodata.is_callee_saved_powerpc64
                0x0000000000421808      0x208 0x8 /usr/local/popcorn/aarch64/lib/libstack-transform.a(properties.o)
 .rodata.callee_reg_size_powerpc64
                0x0000000000421a10      0x210 0x8 /usr/local/popcorn/aarch64/lib/libstack-transform.a(properties.o)
 .rodata.src_arch_powerpc64_properties_c_callee_saved_powerpc64
                0x0000000000421c20       0x4e 0x2 /usr/local/popcorn/aarch64/lib/libstack-transform.a(properties.o)
 .rodata.src_arch_powerpc64_properties_c_callee_saved_size_powerpc64
                0x0000000000421c6e       0x4c 0x2 /usr/local/popcorn/aarch64/lib/libstack-transform.a(properties.o)
 .rodata.properties_powerpc64
                0x0000000000421cc0       0x38 0x8 /usr/local/popcorn/aarch64/lib/libstack-transform.a(properties.o)
                0x0000000000421cc0                properties_powerpc64
 .rodata.src_arch_powerpc64_properties__str__src_arch_
                0x0000000000421cf8       0x56 0x1 /usr/local/popcorn/aarch64/lib/libstack-transform.a(properties.o)
                0x0000000000421cf8                src_arch_powerpc64_properties__str__src_arch_
 .rodata.reg_powerpc64
                0x0000000000421d50      0x218 0x8 /usr/local/popcorn/aarch64/lib/libstack-transform.a(regs.o)
 .rodata.regs_powerpc64
                0x0000000000421f68       0xa8 0x8 /usr/local/popcorn/aarch64/lib/libstack-transform.a(regs.o)
                0x0000000000421f68                regs_powerpc64
 .rodata.src_arch_powerpc64_regs__str__src_arch_
                0x0000000000422010       0x50 0x1 /usr/local/popcorn/aarch64/lib/libstack-transform.a(regs.o)
                0x0000000000422010                src_arch_powerpc64_regs__str__src_arch_
 .rodata.src_arch_powerpc64_regs__str_1__src_arch_
                0x0000000000422060       0x50 0x1 /usr/local/popcorn/aarch64/lib/libstack-transform.a(regs.o)
                0x0000000000422060                src_arch_powerpc64_regs__str_1__src_arch_
 .rodata.src_arch_x86_64_properties_c_callee_saved_x86_64
                0x00000000004220b0        0xe 0x2 /usr/local/popcorn/aarch64/lib/libstack-transform.a(properties.o)
 .rodata.src_arch_x86_64_properties_c_callee_saved_size_x86_64
                0x00000000004220be        0xe 0x2 /usr/local/popcorn/aarch64/lib/libstack-transform.a(properties.o)
 .rodata.properties_x86_64
                0x00000000004220d0       0x38 0x8 /usr/local/popcorn/aarch64/lib/libstack-transform.a(properties.o)
                0x00000000004220d0                properties_x86_64
 .rodata.src_arch_x86_64_properties__str__src_arch_
                0x0000000000422108       0x4f 0x1 /usr/local/popcorn/aarch64/lib/libstack-transform.a(properties.o)
                0x0000000000422108                src_arch_x86_64_properties__str__src_arch_
 .rodata.reg_x86_64
                0x0000000000422158      0x108 0x8 /usr/local/popcorn/aarch64/lib/libstack-transform.a(regs.o)
 .rodata.regs_x86_64
                0x0000000000422260       0xa8 0x8 /usr/local/popcorn/aarch64/lib/libstack-transform.a(regs.o)
                0x0000000000422260                regs_x86_64
 .rodata.src_arch_x86_64_regs__str__src_arch_
                0x0000000000422308       0x4b 0x1 /usr/local/popcorn/aarch64/lib/libstack-transform.a(regs.o)
                0x0000000000422308                src_arch_x86_64_regs__str__src_arch_
 .rodata.src_arch_x86_64_regs__str_1__src_arch_
                0x0000000000422353       0x4b 0x1 /usr/local/popcorn/aarch64/lib/libstack-transform.a(regs.o)
                0x0000000000422353                src_arch_x86_64_regs__str_1__src_arch_
 .rodata.src_arch_x86_64_regs__str_2__src_arch_
                0x000000000042239e       0x4a 0x1 /usr/local/popcorn/aarch64/lib/libstack-transform.a(regs.o)
                0x000000000042239e                src_arch_x86_64_regs__str_2__src_arch_
 .rodata.src_arch_x86_64_regs__str_3__src_arch_
                0x00000000004223e8       0x4a 0x1 /usr/local/popcorn/aarch64/lib/libstack-transform.a(regs.o)
                0x00000000004223e8                src_arch_x86_64_regs__str_3__src_arch_
 .rodata.put_val_arch
                0x0000000000422438       0xb0 0x8 /usr/local/popcorn/aarch64/lib/libstack-transform.a(data.o)
 .rodata.points_to_stack
                0x00000000004224e8       0x28 0x8 /usr/local/popcorn/aarch64/lib/libstack-transform.a(data.o)
 .rodata.src_data__str__src_data_
                0x0000000000422510       0x50 0x1 /usr/local/popcorn/aarch64/lib/libstack-transform.a(data.o)
                0x0000000000422510                src_data__str__src_data_
 .rodata.src_data__str_1__src_data_
                0x0000000000422560       0x3d 0x1 /usr/local/popcorn/aarch64/lib/libstack-transform.a(data.o)
                0x0000000000422560                src_data__str_1__src_data_
 .rodata.src_data__str_2__src_data_
                0x000000000042259d       0x30 0x1 /usr/local/popcorn/aarch64/lib/libstack-transform.a(data.o)
                0x000000000042259d                src_data__str_2__src_data_
 .rodata.src_data__str_3__src_data_
                0x00000000004225cd       0x49 0x1 /usr/local/popcorn/aarch64/lib/libstack-transform.a(data.o)
                0x00000000004225cd                src_data__str_3__src_data_
 .rodata.src_data__str_4__src_data_
                0x0000000000422616       0x3f 0x1 /usr/local/popcorn/aarch64/lib/libstack-transform.a(data.o)
                0x0000000000422616                src_data__str_4__src_data_
 .rodata.src_data__str_5__src_data_
                0x0000000000422655       0x3d 0x1 /usr/local/popcorn/aarch64/lib/libstack-transform.a(data.o)
                0x0000000000422655                src_data__str_5__src_data_
 .rodata.src_data__str_6__src_data_
                0x0000000000422692       0x3f 0x1 /usr/local/popcorn/aarch64/lib/libstack-transform.a(data.o)
                0x0000000000422692                src_data__str_6__src_data_
 .rodata.src_data__str_7__src_data_
                0x00000000004226d1       0x37 0x1 /usr/local/popcorn/aarch64/lib/libstack-transform.a(data.o)
                0x00000000004226d1                src_data__str_7__src_data_
 .rodata.src_data__str_8__src_data_
                0x0000000000422708       0x37 0x1 /usr/local/popcorn/aarch64/lib/libstack-transform.a(data.o)
                0x0000000000422708                src_data__str_8__src_data_
 .rodata.src_data__str_9__src_data_
                0x000000000042273f       0x3f 0x1 /usr/local/popcorn/aarch64/lib/libstack-transform.a(data.o)
                0x000000000042273f                src_data__str_9__src_data_
 .rodata.src_data__str_10__src_data_
                0x000000000042277e       0x3f 0x1 /usr/local/popcorn/aarch64/lib/libstack-transform.a(data.o)
                0x000000000042277e                src_data__str_10__src_data_
 .rodata.elf_begin
                0x00000000004227c0       0x40 0x8 /usr/local/popcorn/aarch64/lib/libelf.a(begin.o)
 .rodata.begin_c__elf_init
                0x0000000000422800       0xe0 0x8 /usr/local/popcorn/aarch64/lib/libelf.a(begin.o)
 .rodata.begin_c_fmag
                0x00000000004228e0        0x3 0x1 /usr/local/popcorn/aarch64/lib/libelf.a(begin.o)
 .rodata.begin__str__ELF_
                0x00000000004228e3        0x5 0x1 /usr/local/popcorn/aarch64/lib/libelf.a(begin.o)
                0x00000000004228e3                begin__str__ELF_
 .rodata.begin__str_1___arch___
                0x00000000004228e8        0x9 0x1 /usr/local/popcorn/aarch64/lib/libelf.a(begin.o)
                0x00000000004228e8                begin__str_1___arch___
 .rodata.version__str_LIBELF_SAN
                0x00000000004228f1       0x15 0x1 /usr/local/popcorn/aarch64/lib/libelf.a(version.o)
                0x00000000004228f1                version__str_LIBELF_SAN
 .rodata.32_xlatetof_c_xlate32_11
                0x0000000000422908      0x220 0x8 /usr/local/popcorn/aarch64/lib/libelf.a(32.xlatetof.o)
 .rodata._elf_scn_type
                0x0000000000422b28       0x88 0x8 /usr/local/popcorn/aarch64/lib/libelf.a(cook.o)
 .rodata._elf_cook
                0x0000000000422bb0      0x110 0x8 /usr/local/popcorn/aarch64/lib/libelf.a(cook.o)
 .rodata._elf_scn_init
                0x0000000000422cc0       0xa0 0x8 /usr/local/popcorn/aarch64/lib/libelf.a(cook.o)
                0x0000000000422cc0                _elf_scn_init
 .rodata._elf_data_init
                0x0000000000422d60       0x58 0x8 /usr/local/popcorn/aarch64/lib/libelf.a(cook.o)
                0x0000000000422d60                _elf_data_init
 .rodata.64_xlatetof_c_xlate64_11
                0x0000000000422db8      0x220 0x8 /usr/local/popcorn/aarch64/lib/libelf.a(64.xlatetof.o)
 .rodata._elf_fmsize
                0x0000000000422fd8      0x220 0x8 /usr/local/popcorn/aarch64/lib/libelf.a(32.fsize.o)
                0x0000000000422fd8                _elf_fmsize
 .rodata.src_exit_assert__str_Assertion_
                0x00000000004231f8       0x23 0x1 /usr/local/popcorn/aarch64/lib/libc.a(assert.o)
                0x00000000004231f8                src_exit_assert__str_Assertion_
 .rodata.src_malloc_malloc_c_bin_tab
                0x000000000042321b       0x3c 0x1 /usr/local/popcorn/aarch64/lib/libc.a(malloc.o)
 .rodata.src_malloc_popcorn_malloc_c_bin_tab
                0x0000000000423257       0x3c 0x1 /usr/local/popcorn/aarch64/lib/libc.a(popcorn_malloc.o)
 .rodata.src_stdio_fopen__str_rwa_
                0x0000000000423293        0x4 0x1 /usr/local/popcorn/aarch64/lib/libc.a(fopen.o)
                0x0000000000423293                src_stdio_fopen__str_rwa_
 .rodata.vfscanf
                0x0000000000423298      0x338 0x8 /usr/local/popcorn/aarch64/lib/libc.a(vfscanf.o)
 .rodata.src_stdlib_qsort_qsort_p_
                0x00000000004235d0       0x10 0x8 /usr/local/popcorn/aarch64/lib/libc.a(qsort.o)
                0x00000000004235d0                src_stdlib_qsort_qsort_p_
 ** merge constants
                0x00000000004235e0       0x18
 ** merge constants
                0x00000000004235f8        0x4
 .rodata.src_internal_floatscan__str_infinity_
                0x00000000004235fc        0x9 0x1 /usr/local/popcorn/aarch64/lib/libc.a(floatscan.o)
                0x00000000004235fc                src_internal_floatscan__str_infinity_
 .rodata.src_internal_floatscan_c_decfloat_p10s
                0x0000000000423608       0x20 0x4 /usr/local/popcorn/aarch64/lib/libc.a(floatscan.o)
 .rodata.src_internal_floatscan_switch_table_
                0x0000000000423628        0xc 0x4 /usr/local/popcorn/aarch64/lib/libc.a(floatscan.o)
                0x0000000000423628                src_internal_floatscan_switch_table_
 .rodata.src_internal_floatscan_switch_table_2_
                0x0000000000423634        0xc 0x4 /usr/local/popcorn/aarch64/lib/libc.a(floatscan.o)
                0x0000000000423634                src_internal_floatscan_switch_table_2_
 .rodata.src_internal_intscan_c_table
                0x0000000000423640      0x101 0x1 /usr/local/popcorn/aarch64/lib/libc.a(intscan.o)
 .rodata.src_internal_intscan__str__________
                0x0000000000423741        0x9 0x1 /usr/local/popcorn/aarch64/lib/libc.a(intscan.o)
                0x0000000000423741                src_internal_intscan__str__________
 .rodata.src_stdio___fdopen__str_rwa_
                0x000000000042374a        0x4 0x1 /usr/local/popcorn/aarch64/lib/libc.a(__fdopen.o)
                0x000000000042374a                src_stdio___fdopen__str_rwa_
 .rodata.__fsmu8
                0x0000000000423750       0xcc 0x4 /usr/local/popcorn/aarch64/lib/libc.a(internal.o)
                0x0000000000423750                __fsmu8
 .rodata        0x000000000042381c        0xf 0x4 /usr/lib/gcc-cross/aarch64-linux-gnu/5/libgcc.a(divtf3.o)
 .rodata        0x000000000042382c        0xf 0x4 /usr/lib/gcc-cross/aarch64-linux-gnu/5/libgcc.a(multf3.o)

.llvm_stackmaps
                0x0000000000423840      0xc20
 .llvm_stackmaps
                0x0000000000423840      0x3b8 0x8 popcorn-migratemep_aarch64.o
 .llvm_stackmaps
                0x0000000000423bf8       0x48 0x8 /usr/local/popcorn/aarch64/lib/libc.a(__libc_start_main.o)
 .llvm_stackmaps
                0x0000000000423c40       0x80 0x8 /usr/local/popcorn/aarch64/lib/libc.a(pthread_create.o)
 .llvm_stackmaps
                0x0000000000423cc0      0x408 0x8 /usr/local/popcorn/aarch64/lib/libmigrate.a(migrate.o)
 .llvm_stackmaps
                0x00000000004240c8      0x120 0x8 /usr/local/popcorn/aarch64/lib/libmigrate.a(trigger.o)
 .llvm_stackmaps
                0x00000000004241e8      0x278 0x8 /usr/local/popcorn/aarch64/lib/libmigrate.a(mapping.o)

.eh_frame       0x0000000000424460       0x80
 ** eh_frame    0x0000000000424460       0x80

.tbss           0x000000000043ff90    0xde0b0
 .tbss.src_userspace_c_bounds
                0x000000000043ff90       0x10 0x8 /usr/local/popcorn/aarch64/lib/libstack-transform.a(userspace.o)
 .tbss.src_rewrite_c_src_ctx
                0x000000000043ffa0     0xb050 0x8 /usr/local/popcorn/aarch64/lib/libstack-transform.a(rewrite.o)
 .tbss.src_rewrite_c_src_regs
                0x000000000044aff0    0x62000 0x1 /usr/local/popcorn/aarch64/lib/libstack-transform.a(rewrite.o)
 .tbss.src_rewrite_c_src_callee
                0x00000000004acff0     0x2000 0x1 /usr/local/popcorn/aarch64/lib/libstack-transform.a(rewrite.o)
 .tbss.src_rewrite_c_dest_ctx
                0x00000000004aeff0     0xb050 0x8 /usr/local/popcorn/aarch64/lib/libstack-transform.a(rewrite.o)
 .tbss.src_rewrite_c_dest_regs
                0x00000000004ba040    0x62000 0x1 /usr/local/popcorn/aarch64/lib/libstack-transform.a(rewrite.o)
 .tbss.src_rewrite_c_dest_callee
                0x000000000051c040     0x2000 0x1 /usr/local/popcorn/aarch64/lib/libstack-transform.a(rewrite.o)

.data.rel.ro.local
                0x000000000043ff90       0x28
 .data.rel.ro.local
                0x000000000043ff90       0x10 0x8 /usr/local/popcorn/aarch64/lib/libc.a(__libc_start_main.o)
 .data.rel.ro.local
                0x000000000043ffa0       0x10 0x8 /usr/local/popcorn/aarch64/lib/libc.a(exit.o)
 .data.rel.ro.local
                0x000000000043ffb0        0x8 0x8 /usr/local/popcorn/aarch64/lib/libc.a(__init_tls.o)

.data.rel.ro    0x000000000043ffb8       0x10
 .data.rel.ro   0x000000000043ffb8       0x10 0x8 /usr/local/popcorn/aarch64/lib/crt1.o

.init_array     0x000000000043ffc8       0x30
 .init_array    0x000000000043ffc8        0x8 0x8 /usr/local/popcorn/aarch64/lib/libmigrate.a(migrate.o)
 .init_array    0x000000000043ffd0        0x8 0x8 /usr/local/popcorn/aarch64/lib/libmigrate.a(trigger.o)
 .init_array    0x000000000043ffd8        0x8 0x8 /usr/local/popcorn/aarch64/lib/libmigrate.a(mapping.o)
 .init_array    0x000000000043ffe0        0x8 0x8 /usr/local/popcorn/aarch64/lib/libstack-transform.a(init.o)
 .init_array    0x000000000043ffe8        0x8 0x8 /usr/local/popcorn/aarch64/lib/libc.a(malloc.o)
 .init_array    0x000000000043fff0        0x8 0x8 /usr/local/popcorn/aarch64/lib/libc.a(popcorn_malloc.o)

.fini_array     0x000000000043fff8        0x8
 .fini_array    0x000000000043fff8        0x8 0x8 /usr/local/popcorn/aarch64/lib/libmigrate.a(mapping.o)

.data           0x0000000000440000      0x1fc
 .data          0x0000000000440000        0x0 0x4 popcorn-migratemep_aarch64.o
 .data          0x0000000000440000        0x0 0x4 /usr/local/popcorn/aarch64/lib/crt1.o
 .data          0x0000000000440000        0x0 0x4 /usr/local/popcorn/aarch64/lib/libc.a(__libc_start_main.o)
 .data          0x0000000000440000        0x0 0x4 /usr/local/popcorn/aarch64/lib/libc.a(exit.o)
 .data          0x0000000000440000        0x0 0x4 /usr/local/popcorn/aarch64/lib/libc.a(libc.o)
 .data          0x0000000000440000        0x0 0x4 /usr/local/popcorn/aarch64/lib/libc.a(perror.o)
 .data          0x0000000000440000        0x0 0x4 /usr/local/popcorn/aarch64/lib/libc.a(printf.o)
 .data          0x0000000000440000        0x0 0x4 /usr/local/popcorn/aarch64/lib/libc.a(stderr.o)
 .data.src_stdio_stderr_c_f
                0x0000000000440000       0xe8 0x8 /usr/local/popcorn/aarch64/lib/libc.a(stderr.o)
 .data.__stderr_used
                0x00000000004400e8        0x8 0x8 /usr/local/popcorn/aarch64/lib/libc.a(stderr.o)
                0x00000000004400e8                __stderr_used
 .data          0x00000000004400f0        0x0 0x4 /usr/local/popcorn/aarch64/lib/libc.a(stdout.o)
 .data.src_stdio_stdout_c_f
                0x00000000004400f0       0xe8 0x8 /usr/local/popcorn/aarch64/lib/libc.a(stdout.o)
 .data.__stdout_used
                0x00000000004401d8        0x8 0x8 /usr/local/popcorn/aarch64/lib/libc.a(stdout.o)
                0x00000000004401d8                __stdout_used
 .data          0x00000000004401e0        0x0 0x4 /usr/local/popcorn/aarch64/lib/libc.a(vfprintf.o)
 .data          0x00000000004401e0        0x0 0x4 /usr/local/popcorn/aarch64/lib/libc.a(memset.o)
 .data          0x00000000004401e0        0x0 0x4 /usr/local/popcorn/aarch64/lib/libc.a(strlen.o)
 .data          0x00000000004401e0        0x0 0x4 /usr/local/popcorn/aarch64/lib/libc.a(strnlen.o)
 .data          0x00000000004401e0        0x0 0x4 /usr/local/popcorn/aarch64/lib/libc.a(pthread_create.o)
 .data.__default_stacksize
                0x00000000004401e0        0x8 0x8 /usr/local/popcorn/aarch64/lib/libc.a(pthread_create.o)
                0x00000000004401e0                __default_stacksize
 .data.__default_guardsize
                0x00000000004401e8        0x8 0x8 /usr/local/popcorn/aarch64/lib/libc.a(pthread_create.o)
                0x00000000004401e8                __default_guardsize
 .data          0x00000000004401f0        0x0 0x4 /usr/local/popcorn/aarch64/lib/libc.a(pthread_join.o)
 .data          0x00000000004401f0        0x0 0x4 /usr/local/popcorn/aarch64/lib/libc.a(pthread_setcancelstate.o)
 .data          0x00000000004401f0        0x0 0x4 /usr/local/popcorn/aarch64/lib/libc.a(pthread_testcancel.o)
 .data          0x00000000004401f0        0x0 0x4 /usr/local/popcorn/aarch64/lib/libc.a(vmlock.o)
 .data          0x00000000004401f0        0x0 0x4 /usr/local/popcorn/aarch64/lib/libc.a(getpid.o)
 .data          0x00000000004401f0        0x0 0x4 /usr/local/popcorn/aarch64/lib/libc.a(gettid.o)
 .data          0x00000000004401f0        0x0 0x4 /usr/local/popcorn/aarch64/lib/libc.a(sleep.o)
 .data          0x00000000004401f0        0x0 0x4 /usr/local/popcorn/aarch64/lib/libc.a(__environ.o)
 .data          0x00000000004401f0        0x0 0x4 /usr/local/popcorn/aarch64/lib/libc.a(__init_tls.o)
 .data          0x00000000004401f0        0x0 0x4 /usr/local/popcorn/aarch64/lib/libc.a(__errno_location.o)
 .data          0x00000000004401f0        0x0 0x4 /usr/local/popcorn/aarch64/lib/libc.a(strerror.o)
 .data          0x00000000004401f0        0x0 0x4 /usr/local/popcorn/aarch64/lib/libc.a(_Exit.o)
 .data          0x00000000004401f0        0x0 0x4 /usr/local/popcorn/aarch64/lib/libc.a(__lctrans.o)
 .data          0x00000000004401f0        0x0 0x4 /usr/local/popcorn/aarch64/lib/libc.a(__fpclassifyl.o)
 .data          0x00000000004401f0        0x0 0x4 /usr/local/popcorn/aarch64/lib/libc.a(__signbitl.o)
 .data          0x00000000004401f0        0x0 0x4 /usr/local/popcorn/aarch64/lib/libc.a(frexpl.o)
 .data          0x00000000004401f0        0x0 0x4 /usr/local/popcorn/aarch64/lib/libc.a(mmap.o)
 .data          0x00000000004401f0        0x0 0x4 /usr/local/popcorn/aarch64/lib/libc.a(mprotect.o)
 .data          0x00000000004401f0        0x0 0x4 /usr/local/popcorn/aarch64/lib/libc.a(munmap.o)
 .data          0x00000000004401f0        0x0 0x4 /usr/local/popcorn/aarch64/lib/libc.a(wctomb.o)
 .data          0x00000000004401f0        0x0 0x4 /usr/local/popcorn/aarch64/lib/libc.a(block.o)
 .data          0x00000000004401f0        0x0 0x4 /usr/local/popcorn/aarch64/lib/libc.a(__lockfile.o)
 .data          0x00000000004401f0        0x0 0x4 /usr/local/popcorn/aarch64/lib/libc.a(__stdio_close.o)
 .data          0x00000000004401f0        0x0 0x4 /usr/local/popcorn/aarch64/lib/libc.a(__stdio_seek.o)
 .data          0x00000000004401f0        0x0 0x4 /usr/local/popcorn/aarch64/lib/libc.a(__stdio_write.o)
 .data          0x00000000004401f0        0x0 0x4 /usr/local/popcorn/aarch64/lib/libc.a(__stdout_write.o)
 .data          0x00000000004401f0        0x0 0x4 /usr/local/popcorn/aarch64/lib/libc.a(fputc.o)
 .data          0x00000000004401f0        0x0 0x4 /usr/local/popcorn/aarch64/lib/libc.a(fwrite.o)
 .data          0x00000000004401f0        0x0 0x4 /usr/local/popcorn/aarch64/lib/libc.a(ofl.o)
 .data          0x00000000004401f0        0x0 0x4 /usr/local/popcorn/aarch64/lib/libc.a(memchr.o)
 .data          0x00000000004401f0        0x0 0x4 /usr/local/popcorn/aarch64/lib/libc.a(memcpy.o)
 .data          0x00000000004401f0        0x0 0x4 /usr/local/popcorn/aarch64/lib/libc.a(__lock.o)
 .data          0x00000000004401f0        0x0 0x4 /usr/local/popcorn/aarch64/lib/libc.a(__timedwait.o)
 .data          0x00000000004401f0        0x0 0x4 /usr/local/popcorn/aarch64/lib/libc.a(__wait.o)
 .data          0x00000000004401f0        0x0 0x4 /usr/local/popcorn/aarch64/lib/libc.a(__cleartid_exit_nostack.o)
 .data          0x00000000004401f0        0x0 0x4 /usr/local/popcorn/aarch64/lib/libc.a(__set_thread_area.o)
 .data          0x00000000004401f0        0x0 0x4 /usr/local/popcorn/aarch64/lib/libc.a(__unmapself.o)
 .data          0x00000000004401f0        0x0 0x4 /usr/local/popcorn/aarch64/lib/libc.a(clone.o)
 .data          0x00000000004401f0        0x0 0x4 /usr/local/popcorn/aarch64/lib/libc.a(clock_gettime.o)
 .data          0x00000000004401f0        0x0 0x4 /usr/local/popcorn/aarch64/lib/libc.a(nanosleep.o)
 .data          0x00000000004401f0        0x0 0x4 /usr/local/popcorn/aarch64/lib/libc.a(syscall_ret.o)
 .data          0x00000000004401f0        0x0 0x4 /usr/local/popcorn/aarch64/lib/libc.a(wcrtomb.o)
 .data          0x00000000004401f0        0x0 0x4 /usr/local/popcorn/aarch64/lib/libc.a(__overflow.o)
 .data          0x00000000004401f0        0x0 0x4 /usr/local/popcorn/aarch64/lib/libc.a(__towrite.o)
 .data          0x00000000004401f0        0x0 0x4 /usr/local/popcorn/aarch64/lib/libc.a(__syscall_cp.o)
 .data          0x00000000004401f0        0x0 0x4 /usr/local/popcorn/aarch64/lib/libc.a(syscall.o)
 .data          0x00000000004401f0        0x0 0x4 /usr/local/popcorn/aarch64/lib/libc.a(__stdio_exit.o)
 .data          0x00000000004401f0        0x0 0x4 /usr/local/popcorn/aarch64/lib/libmigrate.a(migrate.o)
 .data.src_migrate_c_origin_nid
                0x00000000004401f0        0x4 0x4 /usr/local/popcorn/aarch64/lib/libmigrate.a(migrate.o)
 .data          0x00000000004401f4        0x0 0x4 /usr/local/popcorn/aarch64/lib/libmigrate.a(trigger.o)
 .data.__migrate_flag
                0x00000000004401f4        0x4 0x4 /usr/local/popcorn/aarch64/lib/libmigrate.a(trigger.o)
                0x00000000004401f4                __migrate_flag
 .data          0x00000000004401f8        0x0 0x1 /usr/local/popcorn/aarch64/lib/libmigrate.a(migrate_x86_64.o)
 .data          0x00000000004401f8        0x0 0x1 /usr/local/popcorn/aarch64/lib/libmigrate.a(migrate_aarch64.o)
 .data          0x00000000004401f8        0x0 0x1 /usr/local/popcorn/aarch64/lib/libmigrate.a(migrate_powerpc64.o)
 .data          0x00000000004401f8        0x0 0x4 /usr/local/popcorn/aarch64/lib/libmigrate.a(mapping.o)
 .data          0x00000000004401f8        0x0 0x4 /usr/local/popcorn/aarch64/lib/libstack-transform.a(userspace.o)
 .data          0x00000000004401f8        0x0 0x4 /usr/local/popcorn/aarch64/lib/libstack-transform.a(init.o)
 .data          0x00000000004401f8        0x0 0x4 /usr/local/popcorn/aarch64/lib/libstack-transform.a(rewrite.o)
 .data          0x00000000004401f8        0x0 0x4 /usr/local/popcorn/aarch64/lib/libstack-transform.a(unwind.o)
 .data          0x00000000004401f8        0x0 0x4 /usr/local/popcorn/aarch64/lib/libstack-transform.a(util.o)
 .data          0x00000000004401f8        0x0 0x4 /usr/local/popcorn/aarch64/lib/libstack-transform.a(properties.o)
 .data          0x00000000004401f8        0x0 0x4 /usr/local/popcorn/aarch64/lib/libstack-transform.a(regs.o)
 .data          0x00000000004401f8        0x0 0x4 /usr/local/popcorn/aarch64/lib/libstack-transform.a(properties.o)
 .data          0x00000000004401f8        0x0 0x4 /usr/local/popcorn/aarch64/lib/libstack-transform.a(regs.o)
 .data          0x00000000004401f8        0x0 0x4 /usr/local/popcorn/aarch64/lib/libstack-transform.a(properties.o)
 .data          0x00000000004401f8        0x0 0x4 /usr/local/popcorn/aarch64/lib/libstack-transform.a(regs.o)
 .data          0x00000000004401f8        0x0 0x4 /usr/local/popcorn/aarch64/lib/libstack-transform.a(data.o)
 .data          0x00000000004401f8        0x0 0x4 /usr/local/popcorn/aarch64/lib/libelf.a(begin.o)
 .data          0x00000000004401f8        0x0 0x4 /usr/local/popcorn/aarch64/lib/libelf.a(end.o)
 .data          0x00000000004401f8        0x0 0x4 /usr/local/popcorn/aarch64/lib/libelf.a(getdata.o)
 .data          0x00000000004401f8        0x0 0x4 /usr/local/popcorn/aarch64/lib/libelf.a(getident.o)
 .data          0x00000000004401f8        0x0 0x4 /usr/local/popcorn/aarch64/lib/libelf.a(nextscn.o)
 .data          0x00000000004401f8        0x0 0x4 /usr/local/popcorn/aarch64/lib/libelf.a(strptr.o)
 .data          0x00000000004401f8        0x0 0x4 /usr/local/popcorn/aarch64/lib/libelf.a(version.o)
 .data          0x00000000004401f8        0x0 0x4 /usr/local/popcorn/aarch64/lib/libelf.a(32.getehdr.o)
 .data          0x00000000004401f8        0x0 0x4 /usr/local/popcorn/aarch64/lib/libelf.a(32.xlatetof.o)
 .data          0x00000000004401f8        0x0 0x4 /usr/local/popcorn/aarch64/lib/libelf.a(cook.o)
 .data          0x00000000004401f8        0x0 0x4 /usr/local/popcorn/aarch64/lib/libelf.a(data.o)
 .data._elf_sanity_checks
                0x00000000004401f8        0x4 0x4 /usr/local/popcorn/aarch64/lib/libelf.a(data.o)
                0x00000000004401f8                _elf_sanity_checks
 .data          0x00000000004401fc        0x0 0x4 /usr/local/popcorn/aarch64/lib/libelf.a(input.o)
 .data          0x00000000004401fc        0x0 0x4 /usr/local/popcorn/aarch64/lib/libelf.a(x.elfext.o)
 .data          0x00000000004401fc        0x0 0x4 /usr/local/popcorn/aarch64/lib/libelf.a(64.xlatetof.o)
 .data          0x00000000004401fc        0x0 0x4 /usr/local/popcorn/aarch64/lib/libelf.a(gelfshdr.o)
 .data          0x00000000004401fc        0x0 0x4 /usr/local/popcorn/aarch64/lib/libelf.a(swap64.o)
 .data          0x00000000004401fc        0x0 0x4 /usr/local/popcorn/aarch64/lib/libelf.a(verdef_32_tof.o)
 .data          0x00000000004401fc        0x0 0x4 /usr/local/popcorn/aarch64/lib/libelf.a(verdef_32_tom.o)
 .data          0x00000000004401fc        0x0 0x4 /usr/local/popcorn/aarch64/lib/libelf.a(verdef_64_tof.o)
 .data          0x00000000004401fc        0x0 0x4 /usr/local/popcorn/aarch64/lib/libelf.a(verdef_64_tom.o)
 .data          0x00000000004401fc        0x0 0x4 /usr/local/popcorn/aarch64/lib/libelf.a(getscn.o)
 .data          0x00000000004401fc        0x0 0x4 /usr/local/popcorn/aarch64/lib/libelf.a(newscn.o)
 .data          0x00000000004401fc        0x0 0x4 /usr/local/popcorn/aarch64/lib/libelf.a(32.fsize.o)
 .data          0x00000000004401fc        0x0 0x4 /usr/local/popcorn/aarch64/lib/libc.a(arch_crash.o)
 .data          0x00000000004401fc        0x0 0x4 /usr/local/popcorn/aarch64/lib/libc.a(getenv.o)
 .data          0x00000000004401fc        0x0 0x4 /usr/local/popcorn/aarch64/lib/libc.a(platform.o)
 .data          0x00000000004401fc        0x0 0x4 /usr/local/popcorn/aarch64/lib/libc.a(assert.o)
 .data          0x00000000004401fc        0x0 0x4 /usr/local/popcorn/aarch64/lib/libc.a(open.o)
 .data          0x00000000004401fc        0x0 0x4 /usr/local/popcorn/aarch64/lib/libc.a(calloc.o)
 .data          0x00000000004401fc        0x0 0x4 /usr/local/popcorn/aarch64/lib/libc.a(lite_malloc.o)
 .data          0x00000000004401fc        0x0 0x4 /usr/local/popcorn/aarch64/lib/libc.a(malloc.o)
 .data          0x00000000004401fc        0x0 0x4 /usr/local/popcorn/aarch64/lib/libc.a(popcorn_malloc.o)
 .data          0x00000000004401fc        0x0 0x4 /usr/local/popcorn/aarch64/lib/libc.a(getrlimit.o)
 .data          0x00000000004401fc        0x0 0x4 /usr/local/popcorn/aarch64/lib/libc.a(syscall.o)
 .data          0x00000000004401fc        0x0 0x4 /usr/local/popcorn/aarch64/lib/libc.a(madvise.o)
 .data          0x00000000004401fc        0x0 0x4 /usr/local/popcorn/aarch64/lib/libc.a(mremap.o)
 .data          0x00000000004401fc        0x0 0x4 /usr/local/popcorn/aarch64/lib/libc.a(sigaction.o)
 .data          0x00000000004401fc        0x0 0x4 /usr/local/popcorn/aarch64/lib/libc.a(sigemptyset.o)
 .data          0x00000000004401fc        0x0 0x4 /usr/local/popcorn/aarch64/lib/libc.a(sigrtmin.o)
 .data          0x00000000004401fc        0x0 0x4 /usr/local/popcorn/aarch64/lib/libc.a(fclose.o)
 .data          0x00000000004401fc        0x0 0x4 /usr/local/popcorn/aarch64/lib/libc.a(fflush.o)
 .data          0x00000000004401fc        0x0 0x4 /usr/local/popcorn/aarch64/lib/libc.a(fopen.o)
 .data          0x00000000004401fc        0x0 0x4 /usr/local/popcorn/aarch64/lib/libc.a(fprintf.o)
 .data          0x00000000004401fc        0x0 0x4 /usr/local/popcorn/aarch64/lib/libc.a(fscanf.o)
 .data          0x00000000004401fc        0x0 0x4 /usr/local/popcorn/aarch64/lib/libc.a(fseek.o)
 .data          0x00000000004401fc        0x0 0x4 /usr/local/popcorn/aarch64/lib/libc.a(getc.o)
 .data          0x00000000004401fc        0x0 0x4 /usr/local/popcorn/aarch64/lib/libc.a(getline.o)
 .data          0x00000000004401fc        0x0 0x4 /usr/local/popcorn/aarch64/lib/libc.a(snprintf.o)
 .data          0x00000000004401fc        0x0 0x4 /usr/local/popcorn/aarch64/lib/libc.a(sscanf.o)
 .data          0x00000000004401fc        0x0 0x4 /usr/local/popcorn/aarch64/lib/libc.a(vfscanf.o)
 .data          0x00000000004401fc        0x0 0x4 /usr/local/popcorn/aarch64/lib/libc.a(vsnprintf.o)
 .data          0x00000000004401fc        0x0 0x4 /usr/local/popcorn/aarch64/lib/libc.a(vsscanf.o)
 .data          0x00000000004401fc        0x0 0x4 /usr/local/popcorn/aarch64/lib/libc.a(bsearch.o)
 .data          0x00000000004401fc        0x0 0x4 /usr/local/popcorn/aarch64/lib/libc.a(qsort.o)
 .data          0x00000000004401fc        0x0 0x4 /usr/local/popcorn/aarch64/lib/libc.a(strtol.o)
 .data          0x00000000004401fc        0x0 0x4 /usr/local/popcorn/aarch64/lib/libc.a(strchr.o)
 .data          0x00000000004401fc        0x0 0x4 /usr/local/popcorn/aarch64/lib/libc.a(strchrnul.o)
 .data          0x00000000004401fc        0x0 0x4 /usr/local/popcorn/aarch64/lib/libc.a(strcmp.o)
 .data          0x00000000004401fc        0x0 0x4 /usr/local/popcorn/aarch64/lib/libc.a(strncmp.o)
 .data          0x00000000004401fc        0x0 0x4 /usr/local/popcorn/aarch64/lib/libc.a(pthread_attr_get.o)
 .data          0x00000000004401fc        0x0 0x4 /usr/local/popcorn/aarch64/lib/libc.a(pthread_getattr_np.o)
 .data          0x00000000004401fc        0x0 0x4 /usr/local/popcorn/aarch64/lib/libc.a(pthread_migrate.o)
 .data          0x00000000004401fc        0x0 0x4 /usr/local/popcorn/aarch64/lib/libc.a(pthread_self.o)
 .data          0x00000000004401fc        0x0 0x4 /usr/local/popcorn/aarch64/lib/libc.a(close.o)
 .data          0x00000000004401fc        0x0 0x4 /usr/local/popcorn/aarch64/lib/libc.a(lseek.o)
 .data          0x00000000004401fc        0x0 0x4 /usr/local/popcorn/aarch64/lib/libc.a(read.o)
 .data          0x00000000004401fc        0x0 0x4 /usr/local/popcorn/aarch64/lib/libc.a(abort.o)
 .data          0x00000000004401fc        0x0 0x4 /usr/local/popcorn/aarch64/lib/libc.a(floatscan.o)
 .data          0x00000000004401fc        0x0 0x4 /usr/local/popcorn/aarch64/lib/libc.a(intscan.o)
 .data          0x00000000004401fc        0x0 0x4 /usr/local/popcorn/aarch64/lib/libc.a(shgetc.o)
 .data          0x00000000004401fc        0x0 0x4 /usr/local/popcorn/aarch64/lib/libc.a(expand_heap.o)
 .data          0x00000000004401fc        0x0 0x4 /usr/local/popcorn/aarch64/lib/libc.a(fabs.o)
 .data          0x00000000004401fc        0x0 0x4 /usr/local/popcorn/aarch64/lib/libc.a(copysignl.o)
 .data          0x00000000004401fc        0x0 0x4 /usr/local/popcorn/aarch64/lib/libc.a(fmodl.o)
 .data          0x00000000004401fc        0x0 0x4 /usr/local/popcorn/aarch64/lib/libc.a(scalbn.o)
 .data          0x00000000004401fc        0x0 0x4 /usr/local/popcorn/aarch64/lib/libc.a(scalbnl.o)
 .data          0x00000000004401fc        0x0 0x4 /usr/local/popcorn/aarch64/lib/libc.a(mbrtowc.o)
 .data          0x00000000004401fc        0x0 0x4 /usr/local/popcorn/aarch64/lib/libc.a(mbsinit.o)
 .data          0x00000000004401fc        0x0 0x4 /usr/local/popcorn/aarch64/lib/libc.a(restore.o)
 .data          0x00000000004401fc        0x0 0x4 /usr/local/popcorn/aarch64/lib/libc.a(raise.o)
 .data          0x00000000004401fc        0x0 0x4 /usr/local/popcorn/aarch64/lib/libc.a(__fdopen.o)
 .data          0x00000000004401fc        0x0 0x4 /usr/local/popcorn/aarch64/lib/libc.a(__fmodeflags.o)
 .data          0x00000000004401fc        0x0 0x4 /usr/local/popcorn/aarch64/lib/libc.a(__stdio_read.o)
 .data          0x00000000004401fc        0x0 0x4 /usr/local/popcorn/aarch64/lib/libc.a(__string_read.o)
 .data          0x00000000004401fc        0x0 0x4 /usr/local/popcorn/aarch64/lib/libc.a(__uflow.o)
 .data          0x00000000004401fc        0x0 0x4 /usr/local/popcorn/aarch64/lib/libc.a(getdelim.o)
 .data          0x00000000004401fc        0x0 0x4 /usr/local/popcorn/aarch64/lib/libc.a(ofl_add.o)
 .data          0x00000000004401fc        0x0 0x4 /usr/local/popcorn/aarch64/lib/libc.a(internal.o)
 .data          0x00000000004401fc        0x0 0x4 /usr/local/popcorn/aarch64/lib/libc.a(__toread.o)
 .data          0x00000000004401fc        0x0 0x1 /usr/lib/gcc-cross/aarch64-linux-gnu/5/libgcc.a(addtf3.o)
 .data          0x00000000004401fc        0x0 0x1 /usr/lib/gcc-cross/aarch64-linux-gnu/5/libgcc.a(divtf3.o)
 .data          0x00000000004401fc        0x0 0x1 /usr/lib/gcc-cross/aarch64-linux-gnu/5/libgcc.a(eqtf2.o)
 .data          0x00000000004401fc        0x0 0x1 /usr/lib/gcc-cross/aarch64-linux-gnu/5/libgcc.a(getf2.o)
 .data          0x00000000004401fc        0x0 0x1 /usr/lib/gcc-cross/aarch64-linux-gnu/5/libgcc.a(letf2.o)
 .data          0x00000000004401fc        0x0 0x1 /usr/lib/gcc-cross/aarch64-linux-gnu/5/libgcc.a(multf3.o)
 .data          0x00000000004401fc        0x0 0x1 /usr/lib/gcc-cross/aarch64-linux-gnu/5/libgcc.a(subtf3.o)
 .data          0x00000000004401fc        0x0 0x1 /usr/lib/gcc-cross/aarch64-linux-gnu/5/libgcc.a(unordtf2.o)
 .data          0x00000000004401fc        0x0 0x1 /usr/lib/gcc-cross/aarch64-linux-gnu/5/libgcc.a(fixtfsi.o)
 .data          0x00000000004401fc        0x0 0x1 /usr/lib/gcc-cross/aarch64-linux-gnu/5/libgcc.a(fixunstfsi.o)
 .data          0x00000000004401fc        0x0 0x1 /usr/lib/gcc-cross/aarch64-linux-gnu/5/libgcc.a(floatsitf.o)
 .data          0x00000000004401fc        0x0 0x1 /usr/lib/gcc-cross/aarch64-linux-gnu/5/libgcc.a(floatunsitf.o)
 .data          0x00000000004401fc        0x0 0x1 /usr/lib/gcc-cross/aarch64-linux-gnu/5/libgcc.a(extendsftf2.o)
 .data          0x00000000004401fc        0x0 0x1 /usr/lib/gcc-cross/aarch64-linux-gnu/5/libgcc.a(extenddftf2.o)
 .data          0x00000000004401fc        0x0 0x1 /usr/lib/gcc-cross/aarch64-linux-gnu/5/libgcc.a(trunctfsf2.o)
 .data          0x00000000004401fc        0x0 0x1 /usr/lib/gcc-cross/aarch64-linux-gnu/5/libgcc.a(trunctfdf2.o)
 .data          0x00000000004401fc        0x0 0x1 /usr/lib/gcc-cross/aarch64-linux-gnu/5/libgcc.a(sfp-exceptions.o)

.bss            0x0000000000441000    0x23080
 .bss           0x0000000000441000        0x0 0x4 popcorn-migratemep_aarch64.o
 .bss           0x0000000000441000        0x0 0x4 /usr/local/popcorn/aarch64/lib/crt1.o
 .bss           0x0000000000441000        0x0 0x4 /usr/local/popcorn/aarch64/lib/libc.a(__libc_start_main.o)
 .bss.__popcorn_stack_base
                0x0000000000441000        0x8 0x8 /usr/local/popcorn/aarch64/lib/libc.a(__libc_start_main.o)
                0x0000000000441000                __popcorn_stack_base
 .bss           0x0000000000441008        0x0 0x4 /usr/local/popcorn/aarch64/lib/libc.a(exit.o)
 .bss           0x0000000000441008        0x0 0x4 /usr/local/popcorn/aarch64/lib/libc.a(libc.o)
 .bss.__progname
                0x0000000000441008        0x8 0x8 /usr/local/popcorn/aarch64/lib/libc.a(libc.o)
                0x0000000000441008                __progname
                0x0000000000441008                program_invocation_short_name
 .bss.__progname_full
                0x0000000000441010        0x8 0x8 /usr/local/popcorn/aarch64/lib/libc.a(libc.o)
                0x0000000000441010                __progname_full
                0x0000000000441010                program_invocation_name
 .bss           0x0000000000441018        0x0 0x4 /usr/local/popcorn/aarch64/lib/libc.a(perror.o)
 .bss           0x0000000000441018        0x0 0x4 /usr/local/popcorn/aarch64/lib/libc.a(printf.o)
 .bss           0x0000000000441018        0x0 0x4 /usr/local/popcorn/aarch64/lib/libc.a(stderr.o)
 .bss.src_stdio_stderr_c_buf
                0x0000000000441018        0x8 0x1 /usr/local/popcorn/aarch64/lib/libc.a(stderr.o)
 .bss           0x0000000000441020        0x0 0x4 /usr/local/popcorn/aarch64/lib/libc.a(stdout.o)
 .bss.src_stdio_stdout_c_buf
                0x0000000000441020      0x408 0x1 /usr/local/popcorn/aarch64/lib/libc.a(stdout.o)
 .bss           0x0000000000441428        0x0 0x4 /usr/local/popcorn/aarch64/lib/libc.a(vfprintf.o)
 .bss           0x0000000000441428        0x0 0x4 /usr/local/popcorn/aarch64/lib/libc.a(memset.o)
 .bss           0x0000000000441428        0x0 0x4 /usr/local/popcorn/aarch64/lib/libc.a(strlen.o)
 .bss           0x0000000000441428        0x0 0x4 /usr/local/popcorn/aarch64/lib/libc.a(strnlen.o)
 .bss           0x0000000000441428        0x0 0x4 /usr/local/popcorn/aarch64/lib/libc.a(pthread_create.o)
 .bss.src_thread_pthread_create_c_dummy
                0x0000000000441428        0x8 0x8 /usr/local/popcorn/aarch64/lib/libc.a(pthread_create.o)
                0x0000000000441428                __pthread_tsd_size
 .bss.src_thread_pthread_create_c_dummy_tsd
                0x0000000000441430        0x8 0x8 /usr/local/popcorn/aarch64/lib/libc.a(pthread_create.o)
                0x0000000000441430                __pthread_tsd_main
 .bss.__block_new_threads
                0x0000000000441438        0x4 0x4 /usr/local/popcorn/aarch64/lib/libc.a(pthread_create.o)
                0x0000000000441438                __block_new_threads
 .bss.src_thread_pthread_create_c_dummy_file
                0x0000000000441440        0x8 0x8 /usr/local/popcorn/aarch64/lib/libc.a(pthread_create.o)
                0x0000000000441440                __stdin_used
 .bss           0x0000000000441448        0x0 0x4 /usr/local/popcorn/aarch64/lib/libc.a(pthread_join.o)
 .bss           0x0000000000441448        0x0 0x4 /usr/local/popcorn/aarch64/lib/libc.a(pthread_setcancelstate.o)
 .bss           0x0000000000441448        0x0 0x4 /usr/local/popcorn/aarch64/lib/libc.a(pthread_testcancel.o)
 .bss           0x0000000000441448        0x0 0x4 /usr/local/popcorn/aarch64/lib/libc.a(vmlock.o)
 .bss.src_thread_vmlock_c_vmlock
                0x0000000000441448        0x8 0x4 /usr/local/popcorn/aarch64/lib/libc.a(vmlock.o)
 .bss           0x0000000000441450        0x0 0x4 /usr/local/popcorn/aarch64/lib/libc.a(getpid.o)
 .bss           0x0000000000441450        0x0 0x4 /usr/local/popcorn/aarch64/lib/libc.a(gettid.o)
 .bss           0x0000000000441450        0x0 0x4 /usr/local/popcorn/aarch64/lib/libc.a(sleep.o)
 .bss           0x0000000000441450        0x0 0x4 /usr/local/popcorn/aarch64/lib/libc.a(__environ.o)
 .bss.__environ
                0x0000000000441450        0x8 0x8 /usr/local/popcorn/aarch64/lib/libc.a(__environ.o)
                0x0000000000441450                ___environ
                0x0000000000441450                __environ
                0x0000000000441450                _environ
                0x0000000000441450                environ
 .bss           0x0000000000441458        0x0 0x4 /usr/local/popcorn/aarch64/lib/libc.a(__init_tls.o)
 .bss.src_env___init_tls_c_main_tls
                0x0000000000441458       0x30 0x8 /usr/local/popcorn/aarch64/lib/libc.a(__init_tls.o)
 .bss.src_env___init_tls_c_builtin_tls
                0x0000000000441488      0x1a8 0x8 /usr/local/popcorn/aarch64/lib/libc.a(__init_tls.o)
 .bss           0x0000000000441630        0x0 0x4 /usr/local/popcorn/aarch64/lib/libc.a(__errno_location.o)
 .bss           0x0000000000441630        0x0 0x4 /usr/local/popcorn/aarch64/lib/libc.a(strerror.o)
 .bss           0x0000000000441630        0x0 0x4 /usr/local/popcorn/aarch64/lib/libc.a(_Exit.o)
 .bss           0x0000000000441630        0x0 0x4 /usr/local/popcorn/aarch64/lib/libc.a(__lctrans.o)
 .bss           0x0000000000441630        0x0 0x4 /usr/local/popcorn/aarch64/lib/libc.a(__fpclassifyl.o)
 .bss           0x0000000000441630        0x0 0x4 /usr/local/popcorn/aarch64/lib/libc.a(__signbitl.o)
 .bss           0x0000000000441630        0x0 0x4 /usr/local/popcorn/aarch64/lib/libc.a(frexpl.o)
 .bss           0x0000000000441630        0x0 0x4 /usr/local/popcorn/aarch64/lib/libc.a(mmap.o)
 .bss           0x0000000000441630        0x0 0x4 /usr/local/popcorn/aarch64/lib/libc.a(mprotect.o)
 .bss           0x0000000000441630        0x0 0x4 /usr/local/popcorn/aarch64/lib/libc.a(munmap.o)
 .bss           0x0000000000441630        0x0 0x4 /usr/local/popcorn/aarch64/lib/libc.a(wctomb.o)
 .bss           0x0000000000441630        0x0 0x4 /usr/local/popcorn/aarch64/lib/libc.a(block.o)
 .bss           0x0000000000441630        0x0 0x4 /usr/local/popcorn/aarch64/lib/libc.a(__lockfile.o)
 .bss           0x0000000000441630        0x0 0x4 /usr/local/popcorn/aarch64/lib/libc.a(__stdio_close.o)
 .bss           0x0000000000441630        0x0 0x4 /usr/local/popcorn/aarch64/lib/libc.a(__stdio_seek.o)
 .bss           0x0000000000441630        0x0 0x4 /usr/local/popcorn/aarch64/lib/libc.a(__stdio_write.o)
 .bss           0x0000000000441630        0x0 0x4 /usr/local/popcorn/aarch64/lib/libc.a(__stdout_write.o)
 .bss           0x0000000000441630        0x0 0x4 /usr/local/popcorn/aarch64/lib/libc.a(fputc.o)
 .bss           0x0000000000441630        0x0 0x4 /usr/local/popcorn/aarch64/lib/libc.a(fwrite.o)
 .bss           0x0000000000441630        0x0 0x4 /usr/local/popcorn/aarch64/lib/libc.a(ofl.o)
 .bss.src_stdio_ofl_c_ofl_lock
                0x0000000000441630        0x8 0x4 /usr/local/popcorn/aarch64/lib/libc.a(ofl.o)
 .bss.src_stdio_ofl_c_ofl_head
                0x0000000000441638        0x8 0x8 /usr/local/popcorn/aarch64/lib/libc.a(ofl.o)
 .bss           0x0000000000441640        0x0 0x4 /usr/local/popcorn/aarch64/lib/libc.a(memchr.o)
 .bss           0x0000000000441640        0x0 0x4 /usr/local/popcorn/aarch64/lib/libc.a(memcpy.o)
 .bss           0x0000000000441640        0x0 0x4 /usr/local/popcorn/aarch64/lib/libc.a(__lock.o)
 .bss           0x0000000000441640        0x0 0x4 /usr/local/popcorn/aarch64/lib/libc.a(__timedwait.o)
 .bss           0x0000000000441640        0x0 0x4 /usr/local/popcorn/aarch64/lib/libc.a(__wait.o)
 .bss           0x0000000000441640        0x0 0x4 /usr/local/popcorn/aarch64/lib/libc.a(__cleartid_exit_nostack.o)
 .bss           0x0000000000441640        0x0 0x4 /usr/local/popcorn/aarch64/lib/libc.a(__set_thread_area.o)
 .bss           0x0000000000441640        0x0 0x4 /usr/local/popcorn/aarch64/lib/libc.a(__unmapself.o)
 .bss           0x0000000000441640        0x0 0x4 /usr/local/popcorn/aarch64/lib/libc.a(clone.o)
 .bss           0x0000000000441640        0x0 0x4 /usr/local/popcorn/aarch64/lib/libc.a(clock_gettime.o)
 .bss           0x0000000000441640        0x0 0x4 /usr/local/popcorn/aarch64/lib/libc.a(nanosleep.o)
 .bss           0x0000000000441640        0x0 0x4 /usr/local/popcorn/aarch64/lib/libc.a(syscall_ret.o)
 .bss           0x0000000000441640        0x0 0x4 /usr/local/popcorn/aarch64/lib/libc.a(wcrtomb.o)
 .bss           0x0000000000441640        0x0 0x4 /usr/local/popcorn/aarch64/lib/libc.a(__overflow.o)
 .bss           0x0000000000441640        0x0 0x4 /usr/local/popcorn/aarch64/lib/libc.a(__towrite.o)
 .bss           0x0000000000441640        0x0 0x4 /usr/local/popcorn/aarch64/lib/libc.a(__syscall_cp.o)
 .bss           0x0000000000441640        0x0 0x4 /usr/local/popcorn/aarch64/lib/libc.a(syscall.o)
 .bss           0x0000000000441640        0x0 0x4 /usr/local/popcorn/aarch64/lib/libc.a(__stdio_exit.o)
 .bss.src_stdio___stdio_exit_c_dummy_file
                0x0000000000441640        0x8 0x8 /usr/local/popcorn/aarch64/lib/libc.a(__stdio_exit.o)
 .bss           0x0000000000441648        0x0 0x4 /usr/local/popcorn/aarch64/lib/libmigrate.a(migrate.o)
 .bss.src_migrate_c_ni
                0x0000000000441648      0x180 0x4 /usr/local/popcorn/aarch64/lib/libmigrate.a(migrate.o)
 .bss           0x00000000004417c8        0x0 0x4 /usr/local/popcorn/aarch64/lib/libmigrate.a(trigger.o)
 .bss           0x00000000004417c8        0x0 0x1 /usr/local/popcorn/aarch64/lib/libmigrate.a(migrate_x86_64.o)
 .bss           0x00000000004417c8        0x0 0x1 /usr/local/popcorn/aarch64/lib/libmigrate.a(migrate_aarch64.o)
 .bss           0x00000000004417c8        0x0 0x1 /usr/local/popcorn/aarch64/lib/libmigrate.a(migrate_powerpc64.o)
 .bss           0x00000000004417c8        0x0 0x4 /usr/local/popcorn/aarch64/lib/libmigrate.a(mapping.o)
 .bss.src_mapping_c_default_node
                0x00000000004417c8        0x4 0x4 /usr/local/popcorn/aarch64/lib/libmigrate.a(mapping.o)
 .bss.src_mapping_c_mappings
                0x00000000004417d0        0x8 0x8 /usr/local/popcorn/aarch64/lib/libmigrate.a(mapping.o)
 .bss.src_mapping_c_num_mappings
                0x00000000004417d8        0x8 0x8 /usr/local/popcorn/aarch64/lib/libmigrate.a(mapping.o)
 .bss           0x00000000004417e0        0x0 0x4 /usr/local/popcorn/aarch64/lib/libstack-transform.a(userspace.o)
 .bss.aarch64_fn
                0x00000000004417e0        0x8 0x8 /usr/local/popcorn/aarch64/lib/libstack-transform.a(userspace.o)
                0x00000000004417e0                aarch64_fn
 .bss.powerpc64_fn
                0x00000000004417e8        0x8 0x8 /usr/local/popcorn/aarch64/lib/libstack-transform.a(userspace.o)
                0x00000000004417e8                powerpc64_fn
 .bss.x86_64_fn
                0x00000000004417f0        0x8 0x8 /usr/local/popcorn/aarch64/lib/libstack-transform.a(userspace.o)
                0x00000000004417f0                x86_64_fn
 .bss.src_userspace_c_aarch64_handle
                0x00000000004417f8        0x8 0x8 /usr/local/popcorn/aarch64/lib/libstack-transform.a(userspace.o)
 .bss.src_userspace_c_alloc_aarch64_fn
                0x0000000000441800        0x1 0x1 /usr/local/popcorn/aarch64/lib/libstack-transform.a(userspace.o)
 .bss.src_userspace_c_powerpc64_handle
                0x0000000000441808        0x8 0x8 /usr/local/popcorn/aarch64/lib/libstack-transform.a(userspace.o)
 .bss.src_userspace_c_alloc_powerpc64_fn
                0x0000000000441810        0x1 0x1 /usr/local/popcorn/aarch64/lib/libstack-transform.a(userspace.o)
 .bss.src_userspace_c_x86_64_handle
                0x0000000000441818        0x8 0x8 /usr/local/popcorn/aarch64/lib/libstack-transform.a(userspace.o)
 .bss.src_userspace_c_alloc_x86_64_fn
                0x0000000000441820        0x1 0x1 /usr/local/popcorn/aarch64/lib/libstack-transform.a(userspace.o)
 .bss           0x0000000000441824        0x0 0x4 /usr/local/popcorn/aarch64/lib/libstack-transform.a(init.o)
 .bss           0x0000000000441824        0x0 0x4 /usr/local/popcorn/aarch64/lib/libstack-transform.a(rewrite.o)
 .bss           0x0000000000441824        0x0 0x4 /usr/local/popcorn/aarch64/lib/libstack-transform.a(unwind.o)
 .bss           0x0000000000441824        0x0 0x4 /usr/local/popcorn/aarch64/lib/libstack-transform.a(util.o)
 .bss           0x0000000000441824        0x0 0x4 /usr/local/popcorn/aarch64/lib/libstack-transform.a(properties.o)
 .bss           0x0000000000441824        0x0 0x4 /usr/local/popcorn/aarch64/lib/libstack-transform.a(regs.o)
 .bss           0x0000000000441824        0x0 0x4 /usr/local/popcorn/aarch64/lib/libstack-transform.a(properties.o)
 .bss           0x0000000000441824        0x0 0x4 /usr/local/popcorn/aarch64/lib/libstack-transform.a(regs.o)
 .bss           0x0000000000441824        0x0 0x4 /usr/local/popcorn/aarch64/lib/libstack-transform.a(properties.o)
 .bss           0x0000000000441824        0x0 0x4 /usr/local/popcorn/aarch64/lib/libstack-transform.a(regs.o)
 .bss           0x0000000000441824        0x0 0x4 /usr/local/popcorn/aarch64/lib/libstack-transform.a(data.o)
 .bss           0x0000000000441824        0x0 0x4 /usr/local/popcorn/aarch64/lib/libelf.a(begin.o)
 .bss           0x0000000000441824        0x0 0x4 /usr/local/popcorn/aarch64/lib/libelf.a(end.o)
 .bss           0x0000000000441824        0x0 0x4 /usr/local/popcorn/aarch64/lib/libelf.a(getdata.o)
 .bss           0x0000000000441824        0x0 0x4 /usr/local/popcorn/aarch64/lib/libelf.a(getident.o)
 .bss           0x0000000000441824        0x0 0x4 /usr/local/popcorn/aarch64/lib/libelf.a(nextscn.o)
 .bss           0x0000000000441824        0x0 0x4 /usr/local/popcorn/aarch64/lib/libelf.a(strptr.o)
 .bss           0x0000000000441824        0x0 0x4 /usr/local/popcorn/aarch64/lib/libelf.a(version.o)
 .bss           0x0000000000441824        0x0 0x4 /usr/local/popcorn/aarch64/lib/libelf.a(32.getehdr.o)
 .bss           0x0000000000441824        0x0 0x4 /usr/local/popcorn/aarch64/lib/libelf.a(32.xlatetof.o)
 .bss           0x0000000000441824        0x0 0x4 /usr/local/popcorn/aarch64/lib/libelf.a(cook.o)
 .bss           0x0000000000441824        0x0 0x4 /usr/local/popcorn/aarch64/lib/libelf.a(data.o)
 .bss._elf_version
                0x0000000000441824        0x4 0x4 /usr/local/popcorn/aarch64/lib/libelf.a(data.o)
                0x0000000000441824                _elf_version
 .bss._elf_errno
                0x0000000000441828        0x4 0x4 /usr/local/popcorn/aarch64/lib/libelf.a(data.o)
                0x0000000000441828                _elf_errno
 .bss._elf_fill
                0x000000000044182c        0x4 0x4 /usr/local/popcorn/aarch64/lib/libelf.a(data.o)
                0x000000000044182c                _elf_fill
 .bss           0x0000000000441830        0x0 0x4 /usr/local/popcorn/aarch64/lib/libelf.a(input.o)
 .bss           0x0000000000441830        0x0 0x4 /usr/local/popcorn/aarch64/lib/libelf.a(x.elfext.o)
 .bss           0x0000000000441830        0x0 0x4 /usr/local/popcorn/aarch64/lib/libelf.a(64.xlatetof.o)
 .bss           0x0000000000441830        0x0 0x4 /usr/local/popcorn/aarch64/lib/libelf.a(gelfshdr.o)
 .bss           0x0000000000441830        0x0 0x4 /usr/local/popcorn/aarch64/lib/libelf.a(swap64.o)
 .bss           0x0000000000441830        0x0 0x4 /usr/local/popcorn/aarch64/lib/libelf.a(verdef_32_tof.o)
 .bss           0x0000000000441830        0x0 0x4 /usr/local/popcorn/aarch64/lib/libelf.a(verdef_32_tom.o)
 .bss           0x0000000000441830        0x0 0x4 /usr/local/popcorn/aarch64/lib/libelf.a(verdef_64_tof.o)
 .bss           0x0000000000441830        0x0 0x4 /usr/local/popcorn/aarch64/lib/libelf.a(verdef_64_tom.o)
 .bss           0x0000000000441830        0x0 0x4 /usr/local/popcorn/aarch64/lib/libelf.a(getscn.o)
 .bss           0x0000000000441830        0x0 0x4 /usr/local/popcorn/aarch64/lib/libelf.a(newscn.o)
 .bss           0x0000000000441830        0x0 0x4 /usr/local/popcorn/aarch64/lib/libelf.a(32.fsize.o)
 .bss           0x0000000000441830        0x0 0x4 /usr/local/popcorn/aarch64/lib/libc.a(arch_crash.o)
 .bss           0x0000000000441830        0x0 0x4 /usr/local/popcorn/aarch64/lib/libc.a(getenv.o)
 .bss           0x0000000000441830        0x0 0x4 /usr/local/popcorn/aarch64/lib/libc.a(platform.o)
 .bss           0x0000000000441830        0x0 0x4 /usr/local/popcorn/aarch64/lib/libc.a(assert.o)
 .bss           0x0000000000441830        0x0 0x4 /usr/local/popcorn/aarch64/lib/libc.a(open.o)
 .bss           0x0000000000441830        0x0 0x4 /usr/local/popcorn/aarch64/lib/libc.a(calloc.o)
 .bss           0x0000000000441830        0x0 0x4 /usr/local/popcorn/aarch64/lib/libc.a(lite_malloc.o)
 .bss.src_malloc_lite_malloc_c___simple_malloc_cur
                0x0000000000441830        0x8 0x8 /usr/local/popcorn/aarch64/lib/libc.a(lite_malloc.o)
 .bss.src_malloc_lite_malloc_c___simple_malloc_end
                0x0000000000441838        0x8 0x8 /usr/local/popcorn/aarch64/lib/libc.a(lite_malloc.o)
 .bss.src_malloc_lite_malloc_c___simple_malloc_lock
                0x0000000000441840        0x8 0x4 /usr/local/popcorn/aarch64/lib/libc.a(lite_malloc.o)
 .bss           0x0000000000441848        0x0 0x4 /usr/local/popcorn/aarch64/lib/libc.a(malloc.o)
 .bss.src_malloc_malloc_c_mal
                0x0000000000442000     0x1000 0x1000 /usr/local/popcorn/aarch64/lib/libc.a(malloc.o)
 .bss.src_malloc_malloc_c_expand_heap_heap_lock
                0x0000000000443000        0x8 0x4 /usr/local/popcorn/aarch64/lib/libc.a(malloc.o)
 .bss.src_malloc_malloc_c_expand_heap_end
                0x0000000000443008        0x8 0x8 /usr/local/popcorn/aarch64/lib/libc.a(malloc.o)
 .bss           0x0000000000443010        0x0 0x4 /usr/local/popcorn/aarch64/lib/libc.a(popcorn_malloc.o)
 .bss.src_malloc_popcorn_malloc_c_expand_heap_heap_lock
                0x0000000000443010      0x100 0x4 /usr/local/popcorn/aarch64/lib/libc.a(popcorn_malloc.o)
 .bss.src_malloc_popcorn_malloc_c_expand_heap_end
                0x0000000000443110      0x100 0x8 /usr/local/popcorn/aarch64/lib/libc.a(popcorn_malloc.o)
 .bss           0x0000000000443210        0x0 0x4 /usr/local/popcorn/aarch64/lib/libc.a(getrlimit.o)
 .bss           0x0000000000443210        0x0 0x4 /usr/local/popcorn/aarch64/lib/libc.a(syscall.o)
 .bss           0x0000000000443210        0x0 0x4 /usr/local/popcorn/aarch64/lib/libc.a(madvise.o)
 .bss           0x0000000000443210        0x0 0x4 /usr/local/popcorn/aarch64/lib/libc.a(mremap.o)
 .bss           0x0000000000443210        0x0 0x4 /usr/local/popcorn/aarch64/lib/libc.a(sigaction.o)
 .bss.src_signal_sigaction_c_handler_set
                0x0000000000443210        0x8 0x8 /usr/local/popcorn/aarch64/lib/libc.a(sigaction.o)
 .bss.src_signal_sigaction_c_unmask_done
                0x0000000000443218        0x1 0x1 /usr/local/popcorn/aarch64/lib/libc.a(sigaction.o)
 .bss           0x000000000044321c        0x0 0x4 /usr/local/popcorn/aarch64/lib/libc.a(sigemptyset.o)
 .bss           0x000000000044321c        0x0 0x4 /usr/local/popcorn/aarch64/lib/libc.a(sigrtmin.o)
 .bss           0x000000000044321c        0x0 0x4 /usr/local/popcorn/aarch64/lib/libc.a(fclose.o)
 .bss           0x000000000044321c        0x0 0x4 /usr/local/popcorn/aarch64/lib/libc.a(fflush.o)
 .bss.src_stdio_fflush_c_dummy
                0x0000000000443220        0x8 0x8 /usr/local/popcorn/aarch64/lib/libc.a(fflush.o)
 .bss           0x0000000000443228        0x0 0x4 /usr/local/popcorn/aarch64/lib/libc.a(fopen.o)
 .bss           0x0000000000443228        0x0 0x4 /usr/local/popcorn/aarch64/lib/libc.a(fprintf.o)
 .bss           0x0000000000443228        0x0 0x4 /usr/local/popcorn/aarch64/lib/libc.a(fscanf.o)
 .bss           0x0000000000443228        0x0 0x4 /usr/local/popcorn/aarch64/lib/libc.a(fseek.o)
 .bss           0x0000000000443228        0x0 0x4 /usr/local/popcorn/aarch64/lib/libc.a(getc.o)
 .bss           0x0000000000443228        0x0 0x4 /usr/local/popcorn/aarch64/lib/libc.a(getline.o)
 .bss           0x0000000000443228        0x0 0x4 /usr/local/popcorn/aarch64/lib/libc.a(snprintf.o)
 .bss           0x0000000000443228        0x0 0x4 /usr/local/popcorn/aarch64/lib/libc.a(sscanf.o)
 .bss           0x0000000000443228        0x0 0x4 /usr/local/popcorn/aarch64/lib/libc.a(vfscanf.o)
 .bss           0x0000000000443228        0x0 0x4 /usr/local/popcorn/aarch64/lib/libc.a(vsnprintf.o)
 .bss           0x0000000000443228        0x0 0x4 /usr/local/popcorn/aarch64/lib/libc.a(vsscanf.o)
 .bss           0x0000000000443228        0x0 0x4 /usr/local/popcorn/aarch64/lib/libc.a(bsearch.o)
 .bss           0x0000000000443228        0x0 0x4 /usr/local/popcorn/aarch64/lib/libc.a(qsort.o)
 .bss           0x0000000000443228        0x0 0x4 /usr/local/popcorn/aarch64/lib/libc.a(strtol.o)
 .bss           0x0000000000443228        0x0 0x4 /usr/local/popcorn/aarch64/lib/libc.a(strchr.o)
 .bss           0x0000000000443228        0x0 0x4 /usr/local/popcorn/aarch64/lib/libc.a(strchrnul.o)
 .bss           0x0000000000443228        0x0 0x4 /usr/local/popcorn/aarch64/lib/libc.a(strcmp.o)
 .bss           0x0000000000443228        0x0 0x4 /usr/local/popcorn/aarch64/lib/libc.a(strncmp.o)
 .bss           0x0000000000443228        0x0 0x4 /usr/local/popcorn/aarch64/lib/libc.a(pthread_attr_get.o)
 .bss           0x0000000000443228        0x0 0x4 /usr/local/popcorn/aarch64/lib/libc.a(pthread_getattr_np.o)
 .bss           0x0000000000443228        0x0 0x4 /usr/local/popcorn/aarch64/lib/libc.a(pthread_migrate.o)
 .bss           0x0000000000443228        0x0 0x4 /usr/local/popcorn/aarch64/lib/libc.a(pthread_self.o)
 .bss           0x0000000000443228        0x0 0x4 /usr/local/popcorn/aarch64/lib/libc.a(close.o)
 .bss           0x0000000000443228        0x0 0x4 /usr/local/popcorn/aarch64/lib/libc.a(lseek.o)
 .bss           0x0000000000443228        0x0 0x4 /usr/local/popcorn/aarch64/lib/libc.a(read.o)
 .bss           0x0000000000443228        0x0 0x4 /usr/local/popcorn/aarch64/lib/libc.a(abort.o)
 .bss           0x0000000000443228        0x0 0x4 /usr/local/popcorn/aarch64/lib/libc.a(floatscan.o)
 .bss           0x0000000000443228        0x0 0x4 /usr/local/popcorn/aarch64/lib/libc.a(intscan.o)
 .bss           0x0000000000443228        0x0 0x4 /usr/local/popcorn/aarch64/lib/libc.a(shgetc.o)
 .bss           0x0000000000443228        0x0 0x4 /usr/local/popcorn/aarch64/lib/libc.a(expand_heap.o)
 .bss.src_malloc_expand_heap_c___expand_heap_brk
                0x0000000000443228        0x8 0x8 /usr/local/popcorn/aarch64/lib/libc.a(expand_heap.o)
 .bss.src_malloc_expand_heap_c___expand_heap_mmap_step
                0x0000000000443230        0x4 0x4 /usr/local/popcorn/aarch64/lib/libc.a(expand_heap.o)
 .bss.src_malloc_expand_heap_c___expand_heap_node_node_arenas
                0x0000000000443238      0x100 0x8 /usr/local/popcorn/aarch64/lib/libc.a(expand_heap.o)
 .bss.src_malloc_expand_heap_c___expand_heap_node_node_sizes
                0x0000000000443338      0x100 0x8 /usr/local/popcorn/aarch64/lib/libc.a(expand_heap.o)
 .bss.src_malloc_expand_heap_c_arena_start
                0x0000000000443438        0x8 0x8 /usr/local/popcorn/aarch64/lib/libc.a(expand_heap.o)
 .bss.src_malloc_expand_heap_c_set_arena_start_lock
                0x0000000000443440        0x8 0x4 /usr/local/popcorn/aarch64/lib/libc.a(expand_heap.o)
 .bss           0x0000000000443448        0x0 0x4 /usr/local/popcorn/aarch64/lib/libc.a(fabs.o)
 .bss           0x0000000000443448        0x0 0x4 /usr/local/popcorn/aarch64/lib/libc.a(copysignl.o)
 .bss           0x0000000000443448        0x0 0x4 /usr/local/popcorn/aarch64/lib/libc.a(fmodl.o)
 .bss           0x0000000000443448        0x0 0x4 /usr/local/popcorn/aarch64/lib/libc.a(scalbn.o)
 .bss           0x0000000000443448        0x0 0x4 /usr/local/popcorn/aarch64/lib/libc.a(scalbnl.o)
 .bss           0x0000000000443448        0x0 0x4 /usr/local/popcorn/aarch64/lib/libc.a(mbrtowc.o)
 .bss.src_multibyte_mbrtowc_c_mbrtowc_internal_state
                0x0000000000443448        0x4 0x4 /usr/local/popcorn/aarch64/lib/libc.a(mbrtowc.o)
 .bss           0x000000000044344c        0x0 0x4 /usr/local/popcorn/aarch64/lib/libc.a(mbsinit.o)
 .bss           0x000000000044344c        0x0 0x4 /usr/local/popcorn/aarch64/lib/libc.a(restore.o)
 .bss           0x000000000044344c        0x0 0x4 /usr/local/popcorn/aarch64/lib/libc.a(raise.o)
 .bss           0x000000000044344c        0x0 0x4 /usr/local/popcorn/aarch64/lib/libc.a(__fdopen.o)
 .bss           0x000000000044344c        0x0 0x4 /usr/local/popcorn/aarch64/lib/libc.a(__fmodeflags.o)
 .bss           0x000000000044344c        0x0 0x4 /usr/local/popcorn/aarch64/lib/libc.a(__stdio_read.o)
 .bss           0x000000000044344c        0x0 0x4 /usr/local/popcorn/aarch64/lib/libc.a(__string_read.o)
 .bss           0x000000000044344c        0x0 0x4 /usr/local/popcorn/aarch64/lib/libc.a(__uflow.o)
 .bss           0x000000000044344c        0x0 0x4 /usr/local/popcorn/aarch64/lib/libc.a(getdelim.o)
 .bss           0x000000000044344c        0x0 0x4 /usr/local/popcorn/aarch64/lib/libc.a(ofl_add.o)
 .bss           0x000000000044344c        0x0 0x4 /usr/local/popcorn/aarch64/lib/libc.a(internal.o)
 .bss           0x000000000044344c        0x0 0x4 /usr/local/popcorn/aarch64/lib/libc.a(__toread.o)
 .bss           0x000000000044344c        0x0 0x1 /usr/lib/gcc-cross/aarch64-linux-gnu/5/libgcc.a(addtf3.o)
 .bss           0x000000000044344c        0x0 0x1 /usr/lib/gcc-cross/aarch64-linux-gnu/5/libgcc.a(divtf3.o)
 .bss           0x000000000044344c        0x0 0x1 /usr/lib/gcc-cross/aarch64-linux-gnu/5/libgcc.a(eqtf2.o)
 .bss           0x000000000044344c        0x0 0x1 /usr/lib/gcc-cross/aarch64-linux-gnu/5/libgcc.a(getf2.o)
 .bss           0x000000000044344c        0x0 0x1 /usr/lib/gcc-cross/aarch64-linux-gnu/5/libgcc.a(letf2.o)
 .bss           0x000000000044344c        0x0 0x1 /usr/lib/gcc-cross/aarch64-linux-gnu/5/libgcc.a(multf3.o)
 .bss           0x000000000044344c        0x0 0x1 /usr/lib/gcc-cross/aarch64-linux-gnu/5/libgcc.a(subtf3.o)
 .bss           0x000000000044344c        0x0 0x1 /usr/lib/gcc-cross/aarch64-linux-gnu/5/libgcc.a(unordtf2.o)
 .bss           0x000000000044344c        0x0 0x1 /usr/lib/gcc-cross/aarch64-linux-gnu/5/libgcc.a(fixtfsi.o)
 .bss           0x000000000044344c        0x0 0x1 /usr/lib/gcc-cross/aarch64-linux-gnu/5/libgcc.a(fixunstfsi.o)
 .bss           0x000000000044344c        0x0 0x1 /usr/lib/gcc-cross/aarch64-linux-gnu/5/libgcc.a(floatsitf.o)
 .bss           0x000000000044344c        0x0 0x1 /usr/lib/gcc-cross/aarch64-linux-gnu/5/libgcc.a(floatunsitf.o)
 .bss           0x000000000044344c        0x0 0x1 /usr/lib/gcc-cross/aarch64-linux-gnu/5/libgcc.a(extendsftf2.o)
 .bss           0x000000000044344c        0x0 0x1 /usr/lib/gcc-cross/aarch64-linux-gnu/5/libgcc.a(extenddftf2.o)
 .bss           0x000000000044344c        0x0 0x1 /usr/lib/gcc-cross/aarch64-linux-gnu/5/libgcc.a(trunctfsf2.o)
 .bss           0x000000000044344c        0x0 0x1 /usr/lib/gcc-cross/aarch64-linux-gnu/5/libgcc.a(trunctfdf2.o)
 .bss           0x000000000044344c        0x0 0x1 /usr/lib/gcc-cross/aarch64-linux-gnu/5/libgcc.a(sfp-exceptions.o)
 ** common      0x0000000000444000    0x20080

.debug_str      0x0000000000000000     0x3f8c
 ** merge strings
                0x0000000000000000     0x3f8c

.debug_loc      0x0000000000000000    0x17007
 .debug_loc     0x0000000000000000        0x0 0x1 popcorn-migratemep_aarch64.o
 .debug_loc     0x0000000000000000       0x36 0x1 /usr/local/popcorn/aarch64/lib/crt1.o
 .debug_loc     0x0000000000000036      0x265 0x1 /usr/local/popcorn/aarch64/lib/libc.a(__libc_start_main.o)
 .debug_loc     0x000000000000029b       0x6c 0x1 /usr/local/popcorn/aarch64/lib/libc.a(exit.o)
 .debug_loc     0x0000000000000307        0x0 0x1 /usr/local/popcorn/aarch64/lib/libc.a(libc.o)
 .debug_loc     0x0000000000000307       0x9f 0x1 /usr/local/popcorn/aarch64/lib/libc.a(perror.o)
 .debug_loc     0x00000000000003a6       0x49 0x1 /usr/local/popcorn/aarch64/lib/libc.a(printf.o)
 .debug_loc     0x00000000000003ef        0x0 0x1 /usr/local/popcorn/aarch64/lib/libc.a(stderr.o)
 .debug_loc     0x00000000000003ef        0x0 0x1 /usr/local/popcorn/aarch64/lib/libc.a(stdout.o)
 .debug_loc     0x00000000000003ef     0x36de 0x1 /usr/local/popcorn/aarch64/lib/libc.a(vfprintf.o)
 .debug_loc     0x0000000000003acd      0x16d 0x1 /usr/local/popcorn/aarch64/lib/libc.a(memset.o)
 .debug_loc     0x0000000000003c3a       0xb5 0x1 /usr/local/popcorn/aarch64/lib/libc.a(strlen.o)
 .debug_loc     0x0000000000003cef       0x8f 0x1 /usr/local/popcorn/aarch64/lib/libc.a(strnlen.o)
 .debug_loc     0x0000000000003d7e      0xb83 0x1 /usr/local/popcorn/aarch64/lib/libc.a(pthread_create.o)
 .debug_loc     0x0000000000004901      0x16b 0x1 /usr/local/popcorn/aarch64/lib/libc.a(pthread_join.o)
 .debug_loc     0x0000000000004a6c       0x23 0x1 /usr/local/popcorn/aarch64/lib/libc.a(pthread_setcancelstate.o)
 .debug_loc     0x0000000000004a8f        0x0 0x1 /usr/local/popcorn/aarch64/lib/libc.a(pthread_testcancel.o)
 .debug_loc     0x0000000000004a8f      0x14e 0x1 /usr/local/popcorn/aarch64/lib/libc.a(vmlock.o)
 .debug_loc     0x0000000000004bdd        0x0 0x1 /usr/local/popcorn/aarch64/lib/libc.a(getpid.o)
 .debug_loc     0x0000000000004bdd        0x0 0x1 /usr/local/popcorn/aarch64/lib/libc.a(gettid.o)
 .debug_loc     0x0000000000004bdd       0x23 0x1 /usr/local/popcorn/aarch64/lib/libc.a(sleep.o)
 .debug_loc     0x0000000000004c00        0x0 0x1 /usr/local/popcorn/aarch64/lib/libc.a(__environ.o)
 .debug_loc     0x0000000000004c00      0x2b7 0x1 /usr/local/popcorn/aarch64/lib/libc.a(__init_tls.o)
 .debug_loc     0x0000000000004eb7        0x0 0x1 /usr/local/popcorn/aarch64/lib/libc.a(__errno_location.o)
 .debug_loc     0x0000000000004eb7       0x83 0x1 /usr/local/popcorn/aarch64/lib/libc.a(strerror.o)
 .debug_loc     0x0000000000004f3a       0x23 0x1 /usr/local/popcorn/aarch64/lib/libc.a(_Exit.o)
 .debug_loc     0x0000000000004f5d       0x23 0x1 /usr/local/popcorn/aarch64/lib/libc.a(__lctrans.o)
 .debug_loc     0x0000000000004f80        0x0 0x1 /usr/local/popcorn/aarch64/lib/libc.a(__fpclassifyl.o)
 .debug_loc     0x0000000000004f80        0x0 0x1 /usr/local/popcorn/aarch64/lib/libc.a(__signbitl.o)
 .debug_loc     0x0000000000004f80      0x132 0x1 /usr/local/popcorn/aarch64/lib/libc.a(frexpl.o)
 .debug_loc     0x00000000000050b2      0x24b 0x1 /usr/local/popcorn/aarch64/lib/libc.a(mmap.o)
 .debug_loc     0x00000000000052fd       0xd2 0x1 /usr/local/popcorn/aarch64/lib/libc.a(mprotect.o)
 .debug_loc     0x00000000000053cf       0xb5 0x1 /usr/local/popcorn/aarch64/lib/libc.a(munmap.o)
 .debug_loc     0x0000000000005484       0x23 0x1 /usr/local/popcorn/aarch64/lib/libc.a(wctomb.o)
 .debug_loc     0x00000000000054a7       0xdb 0x1 /usr/local/popcorn/aarch64/lib/libc.a(block.o)
 .debug_loc     0x0000000000005582      0x1f0 0x1 /usr/local/popcorn/aarch64/lib/libc.a(__lockfile.o)
 .debug_loc     0x0000000000005772       0x46 0x1 /usr/local/popcorn/aarch64/lib/libc.a(__stdio_close.o)
 .debug_loc     0x00000000000057b8       0x46 0x1 /usr/local/popcorn/aarch64/lib/libc.a(__stdio_seek.o)
 .debug_loc     0x00000000000057fe      0x18d 0x1 /usr/local/popcorn/aarch64/lib/libc.a(__stdio_write.o)
 .debug_loc     0x000000000000598b       0xc5 0x1 /usr/local/popcorn/aarch64/lib/libc.a(__stdout_write.o)
 .debug_loc     0x0000000000005a50       0x7f 0x1 /usr/local/popcorn/aarch64/lib/libc.a(fputc.o)
 .debug_loc     0x0000000000005acf      0x257 0x1 /usr/local/popcorn/aarch64/lib/libc.a(fwrite.o)
 .debug_loc     0x0000000000005d26        0x0 0x1 /usr/local/popcorn/aarch64/lib/libc.a(ofl.o)
 .debug_loc     0x0000000000005d26      0x190 0x1 /usr/local/popcorn/aarch64/lib/libc.a(memchr.o)
 .debug_loc     0x0000000000005eb6      0x604 0x1 /usr/local/popcorn/aarch64/lib/libc.a(memcpy.o)
 .debug_loc     0x00000000000064ba      0x11b 0x1 /usr/local/popcorn/aarch64/lib/libc.a(__lock.o)
 .debug_loc     0x00000000000065d5      0x325 0x1 /usr/local/popcorn/aarch64/lib/libc.a(__timedwait.o)
 .debug_loc     0x00000000000068fa      0x2f1 0x1 /usr/local/popcorn/aarch64/lib/libc.a(__wait.o)
 .debug_loc     0x0000000000006beb      0x12e 0x1 /usr/local/popcorn/aarch64/lib/libc.a(clock_gettime.o)
 .debug_loc     0x0000000000006d19       0x92 0x1 /usr/local/popcorn/aarch64/lib/libc.a(nanosleep.o)
 .debug_loc     0x0000000000006dab       0x23 0x1 /usr/local/popcorn/aarch64/lib/libc.a(syscall_ret.o)
 .debug_loc     0x0000000000006dce       0x59 0x1 /usr/local/popcorn/aarch64/lib/libc.a(wcrtomb.o)
 .debug_loc     0x0000000000006e27       0xb7 0x1 /usr/local/popcorn/aarch64/lib/libc.a(__overflow.o)
 .debug_loc     0x0000000000006ede        0x0 0x1 /usr/local/popcorn/aarch64/lib/libc.a(__towrite.o)
 .debug_loc     0x0000000000006ede        0x0 0x1 /usr/local/popcorn/aarch64/lib/libc.a(__syscall_cp.o)
 .debug_loc     0x0000000000006ede       0x36 0x1 /usr/local/popcorn/aarch64/lib/libc.a(__stdio_exit.o)
 .debug_loc     0x0000000000006f14      0x493 0x1 /usr/local/popcorn/aarch64/lib/libmigrate.a(migrate.o)
 .debug_loc     0x00000000000073a7       0x59 0x1 /usr/local/popcorn/aarch64/lib/libmigrate.a(trigger.o)
 .debug_loc     0x0000000000007400      0x29f 0x1 /usr/local/popcorn/aarch64/lib/libmigrate.a(mapping.o)
 .debug_loc     0x000000000000769f      0x7f1 0x1 /usr/local/popcorn/aarch64/lib/libstack-transform.a(userspace.o)
 .debug_loc     0x0000000000007e90       0xb2 0x1 /usr/local/popcorn/aarch64/lib/libstack-transform.a(init.o)
 .debug_loc     0x0000000000007f42      0x8bc 0x1 /usr/local/popcorn/aarch64/lib/libstack-transform.a(rewrite.o)
 .debug_loc     0x00000000000087fe      0x78c 0x1 /usr/local/popcorn/aarch64/lib/libstack-transform.a(unwind.o)
 .debug_loc     0x0000000000008f8a      0x82b 0x1 /usr/local/popcorn/aarch64/lib/libstack-transform.a(util.o)
 .debug_loc     0x00000000000097b5       0x23 0x1 /usr/local/popcorn/aarch64/lib/libstack-transform.a(properties.o)
 .debug_loc     0x00000000000097d8      0x690 0x1 /usr/local/popcorn/aarch64/lib/libstack-transform.a(regs.o)
 .debug_loc     0x0000000000009e68       0x6c 0x1 /usr/local/popcorn/aarch64/lib/libstack-transform.a(properties.o)
 .debug_loc     0x0000000000009ed4      0x6c9 0x1 /usr/local/popcorn/aarch64/lib/libstack-transform.a(regs.o)
 .debug_loc     0x000000000000a59d       0x23 0x1 /usr/local/popcorn/aarch64/lib/libstack-transform.a(properties.o)
 .debug_loc     0x000000000000a5c0      0x489 0x1 /usr/local/popcorn/aarch64/lib/libstack-transform.a(regs.o)
 .debug_loc     0x000000000000aa49      0xc35 0x1 /usr/local/popcorn/aarch64/lib/libstack-transform.a(data.o)
 .debug_loc     0x000000000000b67e      0x1b0 0x1 /usr/local/popcorn/aarch64/lib/libc.a(arch_crash.o)
 .debug_loc     0x000000000000b82e       0x59 0x1 /usr/local/popcorn/aarch64/lib/libc.a(getenv.o)
 .debug_loc     0x000000000000b887      0x11b 0x1 /usr/local/popcorn/aarch64/lib/libc.a(platform.o)
 .debug_loc     0x000000000000b9a2      0x124 0x1 /usr/local/popcorn/aarch64/lib/libc.a(assert.o)
 .debug_loc     0x000000000000bac6       0xb5 0x1 /usr/local/popcorn/aarch64/lib/libc.a(open.o)
 .debug_loc     0x000000000000bb7b      0x1a0 0x1 /usr/local/popcorn/aarch64/lib/libc.a(calloc.o)
 .debug_loc     0x000000000000bd1b      0x1fb 0x1 /usr/local/popcorn/aarch64/lib/libc.a(lite_malloc.o)
 .debug_loc     0x000000000000bf16     0x1f44 0x1 /usr/local/popcorn/aarch64/lib/libc.a(malloc.o)
 .debug_loc     0x000000000000de5a     0x2e23 0x1 /usr/local/popcorn/aarch64/lib/libc.a(popcorn_malloc.o)
 .debug_loc     0x0000000000010c7d       0xea 0x1 /usr/local/popcorn/aarch64/lib/libc.a(getrlimit.o)
 .debug_loc     0x0000000000010d67      0x194 0x1 /usr/local/popcorn/aarch64/lib/libc.a(syscall.o)
 .debug_loc     0x0000000000010efb       0x69 0x1 /usr/local/popcorn/aarch64/lib/libc.a(madvise.o)
 .debug_loc     0x0000000000010f64      0x193 0x1 /usr/local/popcorn/aarch64/lib/libc.a(mremap.o)
 .debug_loc     0x00000000000110f7      0x3e9 0x1 /usr/local/popcorn/aarch64/lib/libc.a(sigaction.o)
 .debug_loc     0x00000000000114e0        0x0 0x1 /usr/local/popcorn/aarch64/lib/libc.a(sigemptyset.o)
 .debug_loc     0x00000000000114e0        0x0 0x1 /usr/local/popcorn/aarch64/lib/libc.a(sigrtmin.o)
 .debug_loc     0x00000000000114e0       0xd5 0x1 /usr/local/popcorn/aarch64/lib/libc.a(fclose.o)
 .debug_loc     0x00000000000115b5       0xc5 0x1 /usr/local/popcorn/aarch64/lib/libc.a(fflush.o)
 .debug_loc     0x000000000001167a      0x10e 0x1 /usr/local/popcorn/aarch64/lib/libc.a(fopen.o)
 .debug_loc     0x0000000000011788       0x23 0x1 /usr/local/popcorn/aarch64/lib/libc.a(fprintf.o)
 .debug_loc     0x00000000000117ab       0x23 0x1 /usr/local/popcorn/aarch64/lib/libc.a(fscanf.o)
 .debug_loc     0x00000000000117ce      0x18d 0x1 /usr/local/popcorn/aarch64/lib/libc.a(fseek.o)
 .debug_loc     0x000000000001195b       0x49 0x1 /usr/local/popcorn/aarch64/lib/libc.a(getc.o)
 .debug_loc     0x00000000000119a4       0x49 0x1 /usr/local/popcorn/aarch64/lib/libc.a(getline.o)
 .debug_loc     0x00000000000119ed       0x23 0x1 /usr/local/popcorn/aarch64/lib/libc.a(snprintf.o)
 .debug_loc     0x0000000000011a10       0x23 0x1 /usr/local/popcorn/aarch64/lib/libc.a(sscanf.o)
 .debug_loc     0x0000000000011a33      0xcb3 0x1 /usr/local/popcorn/aarch64/lib/libc.a(vfscanf.o)
 .debug_loc     0x00000000000126e6      0x20d 0x1 /usr/local/popcorn/aarch64/lib/libc.a(vsnprintf.o)
 .debug_loc     0x00000000000128f3       0xdb 0x1 /usr/local/popcorn/aarch64/lib/libc.a(vsscanf.o)
 .debug_loc     0x00000000000129ce      0x157 0x1 /usr/local/popcorn/aarch64/lib/libc.a(bsearch.o)
 .debug_loc     0x0000000000012b25      0xb7e 0x1 /usr/local/popcorn/aarch64/lib/libc.a(qsort.o)
 .debug_loc     0x00000000000136a3      0x168 0x1 /usr/local/popcorn/aarch64/lib/libc.a(strtol.o)
 .debug_loc     0x000000000001380b       0x7c 0x1 /usr/local/popcorn/aarch64/lib/libc.a(strchr.o)
 .debug_loc     0x0000000000013887       0xfe 0x1 /usr/local/popcorn/aarch64/lib/libc.a(strchrnul.o)
 .debug_loc     0x0000000000013985       0x46 0x1 /usr/local/popcorn/aarch64/lib/libc.a(strcmp.o)
 .debug_loc     0x00000000000139cb       0xc2 0x1 /usr/local/popcorn/aarch64/lib/libc.a(strncmp.o)
 .debug_loc     0x0000000000013a8d       0x36 0x1 /usr/local/popcorn/aarch64/lib/libc.a(pthread_attr_get.o)
 .debug_loc     0x0000000000013ac3       0xc5 0x1 /usr/local/popcorn/aarch64/lib/libc.a(pthread_getattr_np.o)
 .debug_loc     0x0000000000013b88        0x0 0x1 /usr/local/popcorn/aarch64/lib/libc.a(pthread_migrate.o)
 .debug_loc     0x0000000000013b88        0x0 0x1 /usr/local/popcorn/aarch64/lib/libc.a(pthread_self.o)
 .debug_loc     0x0000000000013b88       0x46 0x1 /usr/local/popcorn/aarch64/lib/libc.a(close.o)
 .debug_loc     0x0000000000013bce       0x46 0x1 /usr/local/popcorn/aarch64/lib/libc.a(lseek.o)
 .debug_loc     0x0000000000013c14       0xb5 0x1 /usr/local/popcorn/aarch64/lib/libc.a(read.o)
 .debug_loc     0x0000000000013cc9        0x0 0x1 /usr/local/popcorn/aarch64/lib/libc.a(abort.o)
 .debug_loc     0x0000000000013cc9     0x1363 0x1 /usr/local/popcorn/aarch64/lib/libc.a(floatscan.o)
 .debug_loc     0x000000000001502c      0x3d0 0x1 /usr/local/popcorn/aarch64/lib/libc.a(intscan.o)
 .debug_loc     0x00000000000153fc       0x6c 0x1 /usr/local/popcorn/aarch64/lib/libc.a(shgetc.o)
 .debug_loc     0x0000000000015468      0x57c 0x1 /usr/local/popcorn/aarch64/lib/libc.a(expand_heap.o)
 .debug_loc     0x00000000000159e4       0x24 0x1 /usr/local/popcorn/aarch64/lib/libc.a(fabs.o)
 .debug_loc     0x0000000000015a08       0x48 0x1 /usr/local/popcorn/aarch64/lib/libc.a(copysignl.o)
 .debug_loc     0x0000000000015a50      0x561 0x1 /usr/local/popcorn/aarch64/lib/libc.a(fmodl.o)
 .debug_loc     0x0000000000015fb1      0x1b2 0x1 /usr/local/popcorn/aarch64/lib/libc.a(scalbn.o)
 .debug_loc     0x0000000000016163       0xf2 0x1 /usr/local/popcorn/aarch64/lib/libc.a(scalbnl.o)
 .debug_loc     0x0000000000016255      0x285 0x1 /usr/local/popcorn/aarch64/lib/libc.a(mbrtowc.o)
 .debug_loc     0x00000000000164da       0x23 0x1 /usr/local/popcorn/aarch64/lib/libc.a(mbsinit.o)
 .debug_loc     0x00000000000164fd       0x9f 0x1 /usr/local/popcorn/aarch64/lib/libc.a(raise.o)
 .debug_loc     0x000000000001659c      0x1e2 0x1 /usr/local/popcorn/aarch64/lib/libc.a(__fdopen.o)
 .debug_loc     0x000000000001677e       0x6c 0x1 /usr/local/popcorn/aarch64/lib/libc.a(__fmodeflags.o)
 .debug_loc     0x00000000000167ea      0x134 0x1 /usr/local/popcorn/aarch64/lib/libc.a(__stdio_read.o)
 .debug_loc     0x000000000001691e      0x144 0x1 /usr/local/popcorn/aarch64/lib/libc.a(__string_read.o)
 .debug_loc     0x0000000000016a62       0x6e 0x1 /usr/local/popcorn/aarch64/lib/libc.a(__uflow.o)
 .debug_loc     0x0000000000016ad0      0x4a8 0x1 /usr/local/popcorn/aarch64/lib/libc.a(getdelim.o)
 .debug_loc     0x0000000000016f78       0x59 0x1 /usr/local/popcorn/aarch64/lib/libc.a(ofl_add.o)
 .debug_loc     0x0000000000016fd1        0x0 0x1 /usr/local/popcorn/aarch64/lib/libc.a(internal.o)
 .debug_loc     0x0000000000016fd1       0x36 0x1 /usr/local/popcorn/aarch64/lib/libc.a(__toread.o)

.debug_abbrev   0x0000000000000000     0x87cb
 .debug_abbrev  0x0000000000000000       0x8b 0x1 popcorn-migratemep_aarch64.o
 .debug_abbrev  0x000000000000008b       0x62 0x1 /usr/local/popcorn/aarch64/lib/crt1.o
 .debug_abbrev  0x00000000000000ed      0x1b0 0x1 /usr/local/popcorn/aarch64/lib/libc.a(__libc_start_main.o)
 .debug_abbrev  0x000000000000029d       0xa0 0x1 /usr/local/popcorn/aarch64/lib/libc.a(exit.o)
 .debug_abbrev  0x000000000000033d       0x96 0x1 /usr/local/popcorn/aarch64/lib/libc.a(libc.o)
 .debug_abbrev  0x00000000000003d3       0xdc 0x1 /usr/local/popcorn/aarch64/lib/libc.a(perror.o)
 .debug_abbrev  0x00000000000004af       0xaf 0x1 /usr/local/popcorn/aarch64/lib/libc.a(printf.o)
 .debug_abbrev  0x000000000000055e       0xc2 0x1 /usr/local/popcorn/aarch64/lib/libc.a(stderr.o)
 .debug_abbrev  0x0000000000000620       0xcb 0x1 /usr/local/popcorn/aarch64/lib/libc.a(stdout.o)
 .debug_abbrev  0x00000000000006eb      0x2bd 0x1 /usr/local/popcorn/aarch64/lib/libc.a(vfprintf.o)
 .debug_abbrev  0x00000000000009a8       0x82 0x1 /usr/local/popcorn/aarch64/lib/libc.a(memset.o)
 .debug_abbrev  0x0000000000000a2a       0x7a 0x1 /usr/local/popcorn/aarch64/lib/libc.a(strlen.o)
 .debug_abbrev  0x0000000000000aa4       0x75 0x1 /usr/local/popcorn/aarch64/lib/libc.a(strnlen.o)
 .debug_abbrev  0x0000000000000b19      0x2a7 0x1 /usr/local/popcorn/aarch64/lib/libc.a(pthread_create.o)
 .debug_abbrev  0x0000000000000dc0      0x1b9 0x1 /usr/local/popcorn/aarch64/lib/libc.a(pthread_join.o)
 .debug_abbrev  0x0000000000000f79      0x139 0x1 /usr/local/popcorn/aarch64/lib/libc.a(pthread_setcancelstate.o)
 .debug_abbrev  0x00000000000010b2       0x41 0x1 /usr/local/popcorn/aarch64/lib/libc.a(pthread_testcancel.o)
 .debug_abbrev  0x00000000000010f3       0xf0 0x1 /usr/local/popcorn/aarch64/lib/libc.a(vmlock.o)
 .debug_abbrev  0x00000000000011e3       0xa1 0x1 /usr/local/popcorn/aarch64/lib/libc.a(getpid.o)
 .debug_abbrev  0x0000000000001284       0xa1 0x1 /usr/local/popcorn/aarch64/lib/libc.a(gettid.o)
 .debug_abbrev  0x0000000000001325       0x81 0x1 /usr/local/popcorn/aarch64/lib/libc.a(sleep.o)
 .debug_abbrev  0x00000000000013a6       0x36 0x1 /usr/local/popcorn/aarch64/lib/libc.a(__environ.o)
 .debug_abbrev  0x00000000000013dc      0x1c7 0x1 /usr/local/popcorn/aarch64/lib/libc.a(__init_tls.o)
 .debug_abbrev  0x00000000000015a3      0x12a 0x1 /usr/local/popcorn/aarch64/lib/libc.a(__errno_location.o)
 .debug_abbrev  0x00000000000016cd      0x16b 0x1 /usr/local/popcorn/aarch64/lib/libc.a(strerror.o)
 .debug_abbrev  0x0000000000001838       0x8f 0x1 /usr/local/popcorn/aarch64/lib/libc.a(_Exit.o)
 .debug_abbrev  0x00000000000018c7      0x14d 0x1 /usr/local/popcorn/aarch64/lib/libc.a(__lctrans.o)
 .debug_abbrev  0x0000000000001a14       0x9b 0x1 /usr/local/popcorn/aarch64/lib/libc.a(__fpclassifyl.o)
 .debug_abbrev  0x0000000000001aaf       0x8e 0x1 /usr/local/popcorn/aarch64/lib/libc.a(__signbitl.o)
 .debug_abbrev  0x0000000000001b3d       0xa2 0x1 /usr/local/popcorn/aarch64/lib/libc.a(frexpl.o)
 .debug_abbrev  0x0000000000001bdf       0xd8 0x1 /usr/local/popcorn/aarch64/lib/libc.a(mmap.o)
 .debug_abbrev  0x0000000000001cb7       0xcb 0x1 /usr/local/popcorn/aarch64/lib/libc.a(mprotect.o)
 .debug_abbrev  0x0000000000001d82       0xcb 0x1 /usr/local/popcorn/aarch64/lib/libc.a(munmap.o)
 .debug_abbrev  0x0000000000001e4d       0x6e 0x1 /usr/local/popcorn/aarch64/lib/libc.a(wctomb.o)
 .debug_abbrev  0x0000000000001ebb       0xce 0x1 /usr/local/popcorn/aarch64/lib/libc.a(block.o)
 .debug_abbrev  0x0000000000001f89      0x1da 0x1 /usr/local/popcorn/aarch64/lib/libc.a(__lockfile.o)
 .debug_abbrev  0x0000000000002163      0x14e 0x1 /usr/local/popcorn/aarch64/lib/libc.a(__stdio_close.o)
 .debug_abbrev  0x00000000000022b1      0x136 0x1 /usr/local/popcorn/aarch64/lib/libc.a(__stdio_seek.o)
 .debug_abbrev  0x00000000000023e7      0x16e 0x1 /usr/local/popcorn/aarch64/lib/libc.a(__stdio_write.o)
 .debug_abbrev  0x0000000000002555      0x127 0x1 /usr/local/popcorn/aarch64/lib/libc.a(__stdout_write.o)
 .debug_abbrev  0x000000000000267c       0xcf 0x1 /usr/local/popcorn/aarch64/lib/libc.a(fputc.o)
 .debug_abbrev  0x000000000000274b      0x10d 0x1 /usr/local/popcorn/aarch64/lib/libc.a(fwrite.o)
 .debug_abbrev  0x0000000000002858       0xe7 0x1 /usr/local/popcorn/aarch64/lib/libc.a(ofl.o)
 .debug_abbrev  0x000000000000293f       0x88 0x1 /usr/local/popcorn/aarch64/lib/libc.a(memchr.o)
 .debug_abbrev  0x00000000000029c7       0x95 0x1 /usr/local/popcorn/aarch64/lib/libc.a(memcpy.o)
 .debug_abbrev  0x0000000000002a5c       0xfb 0x1 /usr/local/popcorn/aarch64/lib/libc.a(__lock.o)
 .debug_abbrev  0x0000000000002b57       0xc1 0x1 /usr/local/popcorn/aarch64/lib/libc.a(__timedwait.o)
 .debug_abbrev  0x0000000000002c18      0x105 0x1 /usr/local/popcorn/aarch64/lib/libc.a(__wait.o)
 .debug_abbrev  0x0000000000002d1d       0x28 0x1 /usr/local/popcorn/aarch64/lib/libc.a(__cleartid_exit_nostack.o)
 .debug_abbrev  0x0000000000002d45       0x28 0x1 /usr/local/popcorn/aarch64/lib/libc.a(__set_thread_area.o)
 .debug_abbrev  0x0000000000002d6d       0x28 0x1 /usr/local/popcorn/aarch64/lib/libc.a(__unmapself.o)
 .debug_abbrev  0x0000000000002d95       0x28 0x1 /usr/local/popcorn/aarch64/lib/libc.a(clone.o)
 .debug_abbrev  0x0000000000002dbd       0xf8 0x1 /usr/local/popcorn/aarch64/lib/libc.a(clock_gettime.o)
 .debug_abbrev  0x0000000000002eb5       0x82 0x1 /usr/local/popcorn/aarch64/lib/libc.a(nanosleep.o)
 .debug_abbrev  0x0000000000002f37       0x4b 0x1 /usr/local/popcorn/aarch64/lib/libc.a(syscall_ret.o)
 .debug_abbrev  0x0000000000002f82      0x167 0x1 /usr/local/popcorn/aarch64/lib/libc.a(wcrtomb.o)
 .debug_abbrev  0x00000000000030e9       0xde 0x1 /usr/local/popcorn/aarch64/lib/libc.a(__overflow.o)
 .debug_abbrev  0x00000000000031c7       0xe5 0x1 /usr/local/popcorn/aarch64/lib/libc.a(__towrite.o)
 .debug_abbrev  0x00000000000032ac       0x70 0x1 /usr/local/popcorn/aarch64/lib/libc.a(__syscall_cp.o)
 .debug_abbrev  0x000000000000331c       0x28 0x1 /usr/local/popcorn/aarch64/lib/libc.a(syscall.o)
 .debug_abbrev  0x0000000000003344       0xff 0x1 /usr/local/popcorn/aarch64/lib/libc.a(__stdio_exit.o)
 .debug_abbrev  0x0000000000003443      0x215 0x1 /usr/local/popcorn/aarch64/lib/libmigrate.a(migrate.o)
 .debug_abbrev  0x0000000000003658      0x13b 0x1 /usr/local/popcorn/aarch64/lib/libmigrate.a(trigger.o)
 .debug_abbrev  0x0000000000003793      0x127 0x1 /usr/local/popcorn/aarch64/lib/libmigrate.a(mapping.o)
 .debug_abbrev  0x00000000000038ba      0x250 0x1 /usr/local/popcorn/aarch64/lib/libstack-transform.a(userspace.o)
 .debug_abbrev  0x0000000000003b0a      0x166 0x1 /usr/local/popcorn/aarch64/lib/libstack-transform.a(init.o)
 .debug_abbrev  0x0000000000003c70      0x291 0x1 /usr/local/popcorn/aarch64/lib/libstack-transform.a(rewrite.o)
 .debug_abbrev  0x0000000000003f01      0x1f9 0x1 /usr/local/popcorn/aarch64/lib/libstack-transform.a(unwind.o)
 .debug_abbrev  0x00000000000040fa      0x19a 0x1 /usr/local/popcorn/aarch64/lib/libstack-transform.a(util.o)
 .debug_abbrev  0x0000000000004294       0xdd 0x1 /usr/local/popcorn/aarch64/lib/libstack-transform.a(properties.o)
 .debug_abbrev  0x0000000000004371      0x131 0x1 /usr/local/popcorn/aarch64/lib/libstack-transform.a(regs.o)
 .debug_abbrev  0x00000000000044a2       0xec 0x1 /usr/local/popcorn/aarch64/lib/libstack-transform.a(properties.o)
 .debug_abbrev  0x000000000000458e      0x131 0x1 /usr/local/popcorn/aarch64/lib/libstack-transform.a(regs.o)
 .debug_abbrev  0x00000000000046bf       0xdd 0x1 /usr/local/popcorn/aarch64/lib/libstack-transform.a(properties.o)
 .debug_abbrev  0x000000000000479c      0x131 0x1 /usr/local/popcorn/aarch64/lib/libstack-transform.a(regs.o)
 .debug_abbrev  0x00000000000048cd      0x249 0x1 /usr/local/popcorn/aarch64/lib/libstack-transform.a(data.o)
 .debug_abbrev  0x0000000000004b16       0xab 0x1 /usr/local/popcorn/aarch64/lib/libc.a(arch_crash.o)
 .debug_abbrev  0x0000000000004bc1       0x89 0x1 /usr/local/popcorn/aarch64/lib/libc.a(getenv.o)
 .debug_abbrev  0x0000000000004c4a      0x103 0x1 /usr/local/popcorn/aarch64/lib/libc.a(platform.o)
 .debug_abbrev  0x0000000000004d4d       0x57 0x1 /usr/local/popcorn/aarch64/lib/libc.a(assert.o)
 .debug_abbrev  0x0000000000004da4      0x100 0x1 /usr/local/popcorn/aarch64/lib/libc.a(open.o)
 .debug_abbrev  0x0000000000004ea4       0xbb 0x1 /usr/local/popcorn/aarch64/lib/libc.a(calloc.o)
 .debug_abbrev  0x0000000000004f5f       0xa9 0x1 /usr/local/popcorn/aarch64/lib/libc.a(lite_malloc.o)
 .debug_abbrev  0x0000000000005008      0x297 0x1 /usr/local/popcorn/aarch64/lib/libc.a(malloc.o)
 .debug_abbrev  0x000000000000529f      0x283 0x1 /usr/local/popcorn/aarch64/lib/libc.a(popcorn_malloc.o)
 .debug_abbrev  0x0000000000005522      0x10c 0x1 /usr/local/popcorn/aarch64/lib/libc.a(getrlimit.o)
 .debug_abbrev  0x000000000000562e       0xdc 0x1 /usr/local/popcorn/aarch64/lib/libc.a(syscall.o)
 .debug_abbrev  0x000000000000570a       0xc4 0x1 /usr/local/popcorn/aarch64/lib/libc.a(madvise.o)
 .debug_abbrev  0x00000000000057ce       0xec 0x1 /usr/local/popcorn/aarch64/lib/libc.a(mremap.o)
 .debug_abbrev  0x00000000000058ba      0x1e0 0x1 /usr/local/popcorn/aarch64/lib/libc.a(sigaction.o)
 .debug_abbrev  0x0000000000005a9a       0x96 0x1 /usr/local/popcorn/aarch64/lib/libc.a(sigemptyset.o)
 .debug_abbrev  0x0000000000005b30       0x3a 0x1 /usr/local/popcorn/aarch64/lib/libc.a(sigrtmin.o)
 .debug_abbrev  0x0000000000005b6a      0x10c 0x1 /usr/local/popcorn/aarch64/lib/libc.a(fclose.o)
 .debug_abbrev  0x0000000000005c76       0xfd 0x1 /usr/local/popcorn/aarch64/lib/libc.a(fflush.o)
 .debug_abbrev  0x0000000000005d73      0x14a 0x1 /usr/local/popcorn/aarch64/lib/libc.a(fopen.o)
 .debug_abbrev  0x0000000000005ebd       0xd4 0x1 /usr/local/popcorn/aarch64/lib/libc.a(fprintf.o)
 .debug_abbrev  0x0000000000005f91       0xd4 0x1 /usr/local/popcorn/aarch64/lib/libc.a(fscanf.o)
 .debug_abbrev  0x0000000000006065       0xfa 0x1 /usr/local/popcorn/aarch64/lib/libc.a(fseek.o)
 .debug_abbrev  0x000000000000615f       0xdc 0x1 /usr/local/popcorn/aarch64/lib/libc.a(getc.o)
 .debug_abbrev  0x000000000000623b       0x8b 0x1 /usr/local/popcorn/aarch64/lib/libc.a(getline.o)
 .debug_abbrev  0x00000000000062c6       0xbe 0x1 /usr/local/popcorn/aarch64/lib/libc.a(snprintf.o)
 .debug_abbrev  0x0000000000006384       0xbe 0x1 /usr/local/popcorn/aarch64/lib/libc.a(sscanf.o)
 .debug_abbrev  0x0000000000006442      0x1d8 0x1 /usr/local/popcorn/aarch64/lib/libc.a(vfscanf.o)
 .debug_abbrev  0x000000000000661a      0x136 0x1 /usr/local/popcorn/aarch64/lib/libc.a(vsnprintf.o)
 .debug_abbrev  0x0000000000006750      0x129 0x1 /usr/local/popcorn/aarch64/lib/libc.a(vsscanf.o)
 .debug_abbrev  0x0000000000006879       0x95 0x1 /usr/local/popcorn/aarch64/lib/libc.a(bsearch.o)
 .debug_abbrev  0x000000000000690e      0x1a0 0x1 /usr/local/popcorn/aarch64/lib/libc.a(qsort.o)
 .debug_abbrev  0x0000000000006aae      0x15d 0x1 /usr/local/popcorn/aarch64/lib/libc.a(strtol.o)
 .debug_abbrev  0x0000000000006c0b       0x68 0x1 /usr/local/popcorn/aarch64/lib/libc.a(strchr.o)
 .debug_abbrev  0x0000000000006c73       0x7a 0x1 /usr/local/popcorn/aarch64/lib/libc.a(strchrnul.o)
 .debug_abbrev  0x0000000000006ced       0x59 0x1 /usr/local/popcorn/aarch64/lib/libc.a(strcmp.o)
 .debug_abbrev  0x0000000000006d46       0x7a 0x1 /usr/local/popcorn/aarch64/lib/libc.a(strncmp.o)
 .debug_abbrev  0x0000000000006dc0      0x109 0x1 /usr/local/popcorn/aarch64/lib/libc.a(pthread_attr_get.o)
 .debug_abbrev  0x0000000000006ec9      0x125 0x1 /usr/local/popcorn/aarch64/lib/libc.a(pthread_getattr_np.o)
 .debug_abbrev  0x0000000000006fee      0x14f 0x1 /usr/local/popcorn/aarch64/lib/libc.a(pthread_migrate.o)
 .debug_abbrev  0x000000000000713d      0x126 0x1 /usr/local/popcorn/aarch64/lib/libc.a(pthread_self.o)
 .debug_abbrev  0x0000000000007263       0x81 0x1 /usr/local/popcorn/aarch64/lib/libc.a(close.o)
 .debug_abbrev  0x00000000000072e4       0xbf 0x1 /usr/local/popcorn/aarch64/lib/libc.a(lseek.o)
 .debug_abbrev  0x00000000000073a3       0x5d 0x1 /usr/local/popcorn/aarch64/lib/libc.a(read.o)
 .debug_abbrev  0x0000000000007400       0x67 0x1 /usr/local/popcorn/aarch64/lib/libc.a(abort.o)
 .debug_abbrev  0x0000000000007467      0x20a 0x1 /usr/local/popcorn/aarch64/lib/libc.a(floatscan.o)
 .debug_abbrev  0x0000000000007671      0x129 0x1 /usr/local/popcorn/aarch64/lib/libc.a(intscan.o)
 .debug_abbrev  0x000000000000779a      0x105 0x1 /usr/local/popcorn/aarch64/lib/libc.a(shgetc.o)
 .debug_abbrev  0x000000000000789f      0x15f 0x1 /usr/local/popcorn/aarch64/lib/libc.a(expand_heap.o)
 .debug_abbrev  0x00000000000079fe       0x4b 0x1 /usr/local/popcorn/aarch64/lib/libc.a(fabs.o)
 .debug_abbrev  0x0000000000007a49       0xac 0x1 /usr/local/popcorn/aarch64/lib/libc.a(copysignl.o)
 .debug_abbrev  0x0000000000007af5       0xc5 0x1 /usr/local/popcorn/aarch64/lib/libc.a(fmodl.o)
 .debug_abbrev  0x0000000000007bba       0x81 0x1 /usr/local/popcorn/aarch64/lib/libc.a(scalbn.o)
 .debug_abbrev  0x0000000000007c3b       0x8e 0x1 /usr/local/popcorn/aarch64/lib/libc.a(scalbnl.o)
 .debug_abbrev  0x0000000000007cc9      0x176 0x1 /usr/local/popcorn/aarch64/lib/libc.a(mbrtowc.o)
 .debug_abbrev  0x0000000000007e3f       0x82 0x1 /usr/local/popcorn/aarch64/lib/libc.a(mbsinit.o)
 .debug_abbrev  0x0000000000007ec1       0x26 0x1 /usr/local/popcorn/aarch64/lib/libc.a(restore.o)
 .debug_abbrev  0x0000000000007ee7       0xf6 0x1 /usr/local/popcorn/aarch64/lib/libc.a(raise.o)
 .debug_abbrev  0x0000000000007fdd      0x15c 0x1 /usr/local/popcorn/aarch64/lib/libc.a(__fdopen.o)
 .debug_abbrev  0x0000000000008139       0x68 0x1 /usr/local/popcorn/aarch64/lib/libc.a(__fmodeflags.o)
 .debug_abbrev  0x00000000000081a1      0x161 0x1 /usr/local/popcorn/aarch64/lib/libc.a(__stdio_read.o)
 .debug_abbrev  0x0000000000008302       0xde 0x1 /usr/local/popcorn/aarch64/lib/libc.a(__string_read.o)
 .debug_abbrev  0x00000000000083e0       0xde 0x1 /usr/local/popcorn/aarch64/lib/libc.a(__uflow.o)
 .debug_abbrev  0x00000000000084be       0xec 0x1 /usr/local/popcorn/aarch64/lib/libc.a(getdelim.o)
 .debug_abbrev  0x00000000000085aa       0xde 0x1 /usr/local/popcorn/aarch64/lib/libc.a(ofl_add.o)
 .debug_abbrev  0x0000000000008688       0x5e 0x1 /usr/local/popcorn/aarch64/lib/libc.a(internal.o)
 .debug_abbrev  0x00000000000086e6       0xe5 0x1 /usr/local/popcorn/aarch64/lib/libc.a(__toread.o)

.debug_info     0x0000000000000000    0x20600
 .debug_info    0x0000000000000000       0xcb 0x1 popcorn-migratemep_aarch64.o
 .debug_info    0x00000000000000cb       0x8b 0x1 /usr/local/popcorn/aarch64/lib/crt1.o
 .debug_info    0x0000000000000156      0x3b5 0x1 /usr/local/popcorn/aarch64/lib/libc.a(__libc_start_main.o)
 .debug_info    0x000000000000050b       0xb0 0x1 /usr/local/popcorn/aarch64/lib/libc.a(exit.o)
 .debug_info    0x00000000000005bb      0x1d7 0x1 /usr/local/popcorn/aarch64/lib/libc.a(libc.o)
 .debug_info    0x0000000000000792      0x334 0x1 /usr/local/popcorn/aarch64/lib/libc.a(perror.o)
 .debug_info    0x0000000000000ac6       0xe6 0x1 /usr/local/popcorn/aarch64/lib/libc.a(printf.o)
 .debug_info    0x0000000000000bac      0x336 0x1 /usr/local/popcorn/aarch64/lib/libc.a(stderr.o)
 .debug_info    0x0000000000000ee2      0x337 0x1 /usr/local/popcorn/aarch64/lib/libc.a(stdout.o)
 .debug_info    0x0000000000001219     0x1126 0x1 /usr/local/popcorn/aarch64/lib/libc.a(vfprintf.o)
 .debug_info    0x000000000000233f      0x118 0x1 /usr/local/popcorn/aarch64/lib/libc.a(memset.o)
 .debug_info    0x0000000000002457       0xb0 0x1 /usr/local/popcorn/aarch64/lib/libc.a(strlen.o)
 .debug_info    0x0000000000002507       0x95 0x1 /usr/local/popcorn/aarch64/lib/libc.a(strnlen.o)
 .debug_info    0x000000000000259c     0x1253 0x1 /usr/local/popcorn/aarch64/lib/libc.a(pthread_create.o)
 .debug_info    0x00000000000037ef      0x4e7 0x1 /usr/local/popcorn/aarch64/lib/libc.a(pthread_join.o)
 .debug_info    0x0000000000003cd6      0x3cc 0x1 /usr/local/popcorn/aarch64/lib/libc.a(pthread_setcancelstate.o)
 .debug_info    0x00000000000040a2       0x55 0x1 /usr/local/popcorn/aarch64/lib/libc.a(pthread_testcancel.o)
 .debug_info    0x00000000000040f7      0x350 0x1 /usr/local/popcorn/aarch64/lib/libc.a(vmlock.o)
 .debug_info    0x0000000000004447       0xb6 0x1 /usr/local/popcorn/aarch64/lib/libc.a(getpid.o)
 .debug_info    0x00000000000044fd       0xb6 0x1 /usr/local/popcorn/aarch64/lib/libc.a(gettid.o)
 .debug_info    0x00000000000045b3       0x9c 0x1 /usr/local/popcorn/aarch64/lib/libc.a(sleep.o)
 .debug_info    0x000000000000464f       0x45 0x1 /usr/local/popcorn/aarch64/lib/libc.a(__environ.o)
 .debug_info    0x0000000000004694      0x7aa 0x1 /usr/local/popcorn/aarch64/lib/libc.a(__init_tls.o)
 .debug_info    0x0000000000004e3e      0x3a5 0x1 /usr/local/popcorn/aarch64/lib/libc.a(__errno_location.o)
 .debug_info    0x00000000000051e3      0x495 0x1 /usr/local/popcorn/aarch64/lib/libc.a(strerror.o)
 .debug_info    0x0000000000005678       0xcb 0x1 /usr/local/popcorn/aarch64/lib/libc.a(_Exit.o)
 .debug_info    0x0000000000005743      0x467 0x1 /usr/local/popcorn/aarch64/lib/libc.a(__lctrans.o)
 .debug_info    0x0000000000005baa      0x12f 0x1 /usr/local/popcorn/aarch64/lib/libc.a(__fpclassifyl.o)
 .debug_info    0x0000000000005cd9      0x124 0x1 /usr/local/popcorn/aarch64/lib/libc.a(__signbitl.o)
 .debug_info    0x0000000000005dfd      0x145 0x1 /usr/local/popcorn/aarch64/lib/libc.a(frexpl.o)
 .debug_info    0x0000000000005f42      0x1b6 0x1 /usr/local/popcorn/aarch64/lib/libc.a(mmap.o)
 .debug_info    0x00000000000060f8      0x14d 0x1 /usr/local/popcorn/aarch64/lib/libc.a(mprotect.o)
 .debug_info    0x0000000000006245      0x113 0x1 /usr/local/popcorn/aarch64/lib/libc.a(munmap.o)
 .debug_info    0x0000000000006358       0x86 0x1 /usr/local/popcorn/aarch64/lib/libc.a(wctomb.o)
 .debug_info    0x00000000000063de      0x202 0x1 /usr/local/popcorn/aarch64/lib/libc.a(block.o)
 .debug_info    0x00000000000065e0      0x8b0 0x1 /usr/local/popcorn/aarch64/lib/libc.a(__lockfile.o)
 .debug_info    0x0000000000006e90      0x38a 0x1 /usr/local/popcorn/aarch64/lib/libc.a(__stdio_close.o)
 .debug_info    0x000000000000721a      0x3b4 0x1 /usr/local/popcorn/aarch64/lib/libc.a(__stdio_seek.o)
 .debug_info    0x00000000000075ce      0x42e 0x1 /usr/local/popcorn/aarch64/lib/libc.a(__stdio_write.o)
 .debug_info    0x00000000000079fc      0x408 0x1 /usr/local/popcorn/aarch64/lib/libc.a(__stdout_write.o)
 .debug_info    0x0000000000007e04      0x310 0x1 /usr/local/popcorn/aarch64/lib/libc.a(fputc.o)
 .debug_info    0x0000000000008114      0x3d4 0x1 /usr/local/popcorn/aarch64/lib/libc.a(fwrite.o)
 .debug_info    0x00000000000084e8      0x341 0x1 /usr/local/popcorn/aarch64/lib/libc.a(ofl.o)
 .debug_info    0x0000000000008829       0xf3 0x1 /usr/local/popcorn/aarch64/lib/libc.a(memchr.o)
 .debug_info    0x000000000000891c      0x112 0x1 /usr/local/popcorn/aarch64/lib/libc.a(memcpy.o)
 .debug_info    0x0000000000008a2e      0x2ea 0x1 /usr/local/popcorn/aarch64/lib/libc.a(__lock.o)
 .debug_info    0x0000000000008d18      0x19c 0x1 /usr/local/popcorn/aarch64/lib/libc.a(__timedwait.o)
 .debug_info    0x0000000000008eb4      0x34f 0x1 /usr/local/popcorn/aarch64/lib/libc.a(__wait.o)
 .debug_info    0x0000000000009203       0xc3 0x1 /usr/local/popcorn/aarch64/lib/libc.a(__cleartid_exit_nostack.o)
 .debug_info    0x00000000000092c6       0xb7 0x1 /usr/local/popcorn/aarch64/lib/libc.a(__set_thread_area.o)
 .debug_info    0x000000000000937d       0xab 0x1 /usr/local/popcorn/aarch64/lib/libc.a(__unmapself.o)
 .debug_info    0x0000000000009428       0xa1 0x1 /usr/local/popcorn/aarch64/lib/libc.a(clone.o)
 .debug_info    0x00000000000094c9      0x189 0x1 /usr/local/popcorn/aarch64/lib/libc.a(clock_gettime.o)
 .debug_info    0x0000000000009652       0xaf 0x1 /usr/local/popcorn/aarch64/lib/libc.a(nanosleep.o)
 .debug_info    0x0000000000009701       0x62 0x1 /usr/local/popcorn/aarch64/lib/libc.a(syscall_ret.o)
 .debug_info    0x0000000000009763      0x462 0x1 /usr/local/popcorn/aarch64/lib/libc.a(wcrtomb.o)
 .debug_info    0x0000000000009bc5      0x31f 0x1 /usr/local/popcorn/aarch64/lib/libc.a(__overflow.o)
 .debug_info    0x0000000000009ee4      0x314 0x1 /usr/local/popcorn/aarch64/lib/libc.a(__towrite.o)
 .debug_info    0x000000000000a1f8      0x127 0x1 /usr/local/popcorn/aarch64/lib/libc.a(__syscall_cp.o)
 .debug_info    0x000000000000a31f       0xa5 0x1 /usr/local/popcorn/aarch64/lib/libc.a(syscall.o)
 .debug_info    0x000000000000a3c4      0x338 0x1 /usr/local/popcorn/aarch64/lib/libc.a(__stdio_exit.o)
 .debug_info    0x000000000000a6fc      0x43b 0x1 /usr/local/popcorn/aarch64/lib/libmigrate.a(migrate.o)
 .debug_info    0x000000000000ab37      0x3de 0x1 /usr/local/popcorn/aarch64/lib/libmigrate.a(trigger.o)
 .debug_info    0x000000000000af15      0x298 0x1 /usr/local/popcorn/aarch64/lib/libmigrate.a(mapping.o)
 .debug_info    0x000000000000b1ad      0xd01 0x1 /usr/local/popcorn/aarch64/lib/libstack-transform.a(userspace.o)
 .debug_info    0x000000000000beae      0x868 0x1 /usr/local/popcorn/aarch64/lib/libstack-transform.a(init.o)
 .debug_info    0x000000000000c716      0xecf 0x1 /usr/local/popcorn/aarch64/lib/libstack-transform.a(rewrite.o)
 .debug_info    0x000000000000d5e5      0xd31 0x1 /usr/local/popcorn/aarch64/lib/libstack-transform.a(unwind.o)
 .debug_info    0x000000000000e316      0xc1e 0x1 /usr/local/popcorn/aarch64/lib/libstack-transform.a(util.o)
 .debug_info    0x000000000000ef34      0x1eb 0x1 /usr/local/popcorn/aarch64/lib/libstack-transform.a(properties.o)
 .debug_info    0x000000000000f11f      0x61a 0x1 /usr/local/popcorn/aarch64/lib/libstack-transform.a(regs.o)
 .debug_info    0x000000000000f739      0x206 0x1 /usr/local/popcorn/aarch64/lib/libstack-transform.a(properties.o)
 .debug_info    0x000000000000f93f      0x613 0x1 /usr/local/popcorn/aarch64/lib/libstack-transform.a(regs.o)
 .debug_info    0x000000000000ff52      0x1eb 0x1 /usr/local/popcorn/aarch64/lib/libstack-transform.a(properties.o)
 .debug_info    0x000000000001013d      0x748 0x1 /usr/local/popcorn/aarch64/lib/libstack-transform.a(regs.o)
 .debug_info    0x0000000000010885      0xec5 0x1 /usr/local/popcorn/aarch64/lib/libstack-transform.a(data.o)
 .debug_info    0x000000000001174a      0x1cc 0x1 /usr/local/popcorn/aarch64/lib/libc.a(arch_crash.o)
 .debug_info    0x0000000000011916       0xa1 0x1 /usr/local/popcorn/aarch64/lib/libc.a(getenv.o)
 .debug_info    0x00000000000119b7      0x285 0x1 /usr/local/popcorn/aarch64/lib/libc.a(platform.o)
 .debug_info    0x0000000000011c3c       0x95 0x1 /usr/local/popcorn/aarch64/lib/libc.a(assert.o)
 .debug_info    0x0000000000011cd1      0x1c0 0x1 /usr/local/popcorn/aarch64/lib/libc.a(open.o)
 .debug_info    0x0000000000011e91      0x12c 0x1 /usr/local/popcorn/aarch64/lib/libc.a(calloc.o)
 .debug_info    0x0000000000011fbd      0x12d 0x1 /usr/local/popcorn/aarch64/lib/libc.a(lite_malloc.o)
 .debug_info    0x00000000000120ea     0x20ed 0x1 /usr/local/popcorn/aarch64/lib/libc.a(malloc.o)
 .debug_info    0x00000000000141d7     0x2adc 0x1 /usr/local/popcorn/aarch64/lib/libc.a(popcorn_malloc.o)
 .debug_info    0x0000000000016cb3      0x212 0x1 /usr/local/popcorn/aarch64/lib/libc.a(getrlimit.o)
 .debug_info    0x0000000000016ec5      0x20e 0x1 /usr/local/popcorn/aarch64/lib/libc.a(syscall.o)
 .debug_info    0x00000000000170d3      0x121 0x1 /usr/local/popcorn/aarch64/lib/libc.a(madvise.o)
 .debug_info    0x00000000000171f4      0x1e5 0x1 /usr/local/popcorn/aarch64/lib/libc.a(mremap.o)
 .debug_info    0x00000000000173d9      0x822 0x1 /usr/local/popcorn/aarch64/lib/libc.a(sigaction.o)
 .debug_info    0x0000000000017bfb       0x9b 0x1 /usr/local/popcorn/aarch64/lib/libc.a(sigemptyset.o)
 .debug_info    0x0000000000017c96       0x4b 0x1 /usr/local/popcorn/aarch64/lib/libc.a(sigrtmin.o)
 .debug_info    0x0000000000017ce1      0x373 0x1 /usr/local/popcorn/aarch64/lib/libc.a(fclose.o)
 .debug_info    0x0000000000018054      0x35c 0x1 /usr/local/popcorn/aarch64/lib/libc.a(fflush.o)
 .debug_info    0x00000000000183b0      0x4ff 0x1 /usr/local/popcorn/aarch64/lib/libc.a(fopen.o)
 .debug_info    0x00000000000188af      0x10e 0x1 /usr/local/popcorn/aarch64/lib/libc.a(fprintf.o)
 .debug_info    0x00000000000189bd      0x10e 0x1 /usr/local/popcorn/aarch64/lib/libc.a(fscanf.o)
 .debug_info    0x0000000000018acb      0x3c1 0x1 /usr/local/popcorn/aarch64/lib/libc.a(fseek.o)
 .debug_info    0x0000000000018e8c      0x30c 0x1 /usr/local/popcorn/aarch64/lib/libc.a(getc.o)
 .debug_info    0x0000000000019198       0xcd 0x1 /usr/local/popcorn/aarch64/lib/libc.a(getline.o)
 .debug_info    0x0000000000019265      0x11c 0x1 /usr/local/popcorn/aarch64/lib/libc.a(snprintf.o)
 .debug_info    0x0000000000019381       0xf3 0x1 /usr/local/popcorn/aarch64/lib/libc.a(sscanf.o)
 .debug_info    0x0000000000019474      0x693 0x1 /usr/local/popcorn/aarch64/lib/libc.a(vfscanf.o)
 .debug_info    0x0000000000019b07      0x468 0x1 /usr/local/popcorn/aarch64/lib/libc.a(vsnprintf.o)
 .debug_info    0x0000000000019f6f      0x3cb 0x1 /usr/local/popcorn/aarch64/lib/libc.a(vsscanf.o)
 .debug_info    0x000000000001a33a       0xeb 0x1 /usr/local/popcorn/aarch64/lib/libc.a(bsearch.o)
 .debug_info    0x000000000001a425      0x622 0x1 /usr/local/popcorn/aarch64/lib/libc.a(qsort.o)
 .debug_info    0x000000000001aa47      0x5aa 0x1 /usr/local/popcorn/aarch64/lib/libc.a(strtol.o)
 .debug_info    0x000000000001aff1       0x9b 0x1 /usr/local/popcorn/aarch64/lib/libc.a(strchr.o)
 .debug_info    0x000000000001b08c       0xcd 0x1 /usr/local/popcorn/aarch64/lib/libc.a(strchrnul.o)
 .debug_info    0x000000000001b159       0x87 0x1 /usr/local/popcorn/aarch64/lib/libc.a(strcmp.o)
 .debug_info    0x000000000001b1e0       0xcc 0x1 /usr/local/popcorn/aarch64/lib/libc.a(strncmp.o)
 .debug_info    0x000000000001b2ac      0x59c 0x1 /usr/local/popcorn/aarch64/lib/libc.a(pthread_attr_get.o)
 .debug_info    0x000000000001b848      0x431 0x1 /usr/local/popcorn/aarch64/lib/libc.a(pthread_getattr_np.o)
 .debug_info    0x000000000001bc79      0x3de 0x1 /usr/local/popcorn/aarch64/lib/libc.a(pthread_migrate.o)
 .debug_info    0x000000000001c057      0x3ac 0x1 /usr/local/popcorn/aarch64/lib/libc.a(pthread_self.o)
 .debug_info    0x000000000001c403       0x98 0x1 /usr/local/popcorn/aarch64/lib/libc.a(close.o)
 .debug_info    0x000000000001c49b      0x115 0x1 /usr/local/popcorn/aarch64/lib/libc.a(lseek.o)
 .debug_info    0x000000000001c5b0       0x9e 0x1 /usr/local/popcorn/aarch64/lib/libc.a(read.o)
 .debug_info    0x000000000001c64e       0x6d 0x1 /usr/local/popcorn/aarch64/lib/libc.a(abort.o)
 .debug_info    0x000000000001c6bb      0x8e1 0x1 /usr/local/popcorn/aarch64/lib/libc.a(floatscan.o)
 .debug_info    0x000000000001cf9c      0x3c6 0x1 /usr/local/popcorn/aarch64/lib/libc.a(intscan.o)
 .debug_info    0x000000000001d362      0x340 0x1 /usr/local/popcorn/aarch64/lib/libc.a(shgetc.o)
 .debug_info    0x000000000001d6a2      0x6fa 0x1 /usr/local/popcorn/aarch64/lib/libc.a(expand_heap.o)
 .debug_info    0x000000000001dd9c       0x5b 0x1 /usr/local/popcorn/aarch64/lib/libc.a(fabs.o)
 .debug_info    0x000000000001ddf7      0x13b 0x1 /usr/local/popcorn/aarch64/lib/libc.a(copysignl.o)
 .debug_info    0x000000000001df32      0x25a 0x1 /usr/local/popcorn/aarch64/lib/libc.a(fmodl.o)
 .debug_info    0x000000000001e18c       0xc9 0x1 /usr/local/popcorn/aarch64/lib/libc.a(scalbn.o)
 .debug_info    0x000000000001e255      0x142 0x1 /usr/local/popcorn/aarch64/lib/libc.a(scalbnl.o)
 .debug_info    0x000000000001e397      0x4f8 0x1 /usr/local/popcorn/aarch64/lib/libc.a(mbrtowc.o)
 .debug_info    0x000000000001e88f       0xa1 0x1 /usr/local/popcorn/aarch64/lib/libc.a(mbsinit.o)
 .debug_info    0x000000000001e930       0xb9 0x1 /usr/local/popcorn/aarch64/lib/libc.a(restore.o)
 .debug_info    0x000000000001e9e9      0x197 0x1 /usr/local/popcorn/aarch64/lib/libc.a(raise.o)
 .debug_info    0x000000000001eb80      0x54c 0x1 /usr/local/popcorn/aarch64/lib/libc.a(__fdopen.o)
 .debug_info    0x000000000001f0cc       0x7b 0x1 /usr/local/popcorn/aarch64/lib/libc.a(__fmodeflags.o)
 .debug_info    0x000000000001f147      0x413 0x1 /usr/local/popcorn/aarch64/lib/libc.a(__stdio_read.o)
 .debug_info    0x000000000001f55a      0x34c 0x1 /usr/local/popcorn/aarch64/lib/libc.a(__string_read.o)
 .debug_info    0x000000000001f8a6      0x310 0x1 /usr/local/popcorn/aarch64/lib/libc.a(__uflow.o)
 .debug_info    0x000000000001fbb6      0x3c1 0x1 /usr/local/popcorn/aarch64/lib/libc.a(getdelim.o)
 .debug_info    0x000000000001ff77      0x315 0x1 /usr/local/popcorn/aarch64/lib/libc.a(ofl_add.o)
 .debug_info    0x000000000002028c       0x5e 0x1 /usr/local/popcorn/aarch64/lib/libc.a(internal.o)
 .debug_info    0x00000000000202ea      0x316 0x1 /usr/local/popcorn/aarch64/lib/libc.a(__toread.o)

.debug_ranges   0x0000000000000000     0x6440
 .debug_ranges  0x0000000000000000       0x40 0x1 popcorn-migratemep_aarch64.o
 .debug_ranges  0x0000000000000040        0x0 0x1 /usr/local/popcorn/aarch64/lib/crt1.o
 .debug_ranges  0x0000000000000040       0xc0 0x1 /usr/local/popcorn/aarch64/lib/libc.a(__libc_start_main.o)
 .debug_ranges  0x0000000000000100       0x40 0x1 /usr/local/popcorn/aarch64/lib/libc.a(exit.o)
 .debug_ranges  0x0000000000000140        0x0 0x1 /usr/local/popcorn/aarch64/lib/libc.a(libc.o)
 .debug_ranges  0x0000000000000140        0x0 0x1 /usr/local/popcorn/aarch64/lib/libc.a(perror.o)
 .debug_ranges  0x0000000000000140        0x0 0x1 /usr/local/popcorn/aarch64/lib/libc.a(printf.o)
 .debug_ranges  0x0000000000000140        0x0 0x1 /usr/local/popcorn/aarch64/lib/libc.a(stderr.o)
 .debug_ranges  0x0000000000000140        0x0 0x1 /usr/local/popcorn/aarch64/lib/libc.a(stdout.o)
 .debug_ranges  0x0000000000000140      0xbd0 0x1 /usr/local/popcorn/aarch64/lib/libc.a(vfprintf.o)
 .debug_ranges  0x0000000000000d10        0x0 0x1 /usr/local/popcorn/aarch64/lib/libc.a(memset.o)
 .debug_ranges  0x0000000000000d10        0x0 0x1 /usr/local/popcorn/aarch64/lib/libc.a(strlen.o)
 .debug_ranges  0x0000000000000d10        0x0 0x1 /usr/local/popcorn/aarch64/lib/libc.a(strnlen.o)
 .debug_ranges  0x0000000000000d10      0x2a0 0x1 /usr/local/popcorn/aarch64/lib/libc.a(pthread_create.o)
 .debug_ranges  0x0000000000000fb0       0x40 0x1 /usr/local/popcorn/aarch64/lib/libc.a(pthread_join.o)
 .debug_ranges  0x0000000000000ff0        0x0 0x1 /usr/local/popcorn/aarch64/lib/libc.a(pthread_setcancelstate.o)
 .debug_ranges  0x0000000000000ff0       0x30 0x1 /usr/local/popcorn/aarch64/lib/libc.a(pthread_testcancel.o)
 .debug_ranges  0x0000000000001020       0x40 0x1 /usr/local/popcorn/aarch64/lib/libc.a(vmlock.o)
 .debug_ranges  0x0000000000001060        0x0 0x1 /usr/local/popcorn/aarch64/lib/libc.a(getpid.o)
 .debug_ranges  0x0000000000001060        0x0 0x1 /usr/local/popcorn/aarch64/lib/libc.a(gettid.o)
 .debug_ranges  0x0000000000001060        0x0 0x1 /usr/local/popcorn/aarch64/lib/libc.a(sleep.o)
 .debug_ranges  0x0000000000001060        0x0 0x1 /usr/local/popcorn/aarch64/lib/libc.a(__environ.o)
 .debug_ranges  0x0000000000001060       0x40 0x1 /usr/local/popcorn/aarch64/lib/libc.a(__init_tls.o)
 .debug_ranges  0x00000000000010a0        0x0 0x1 /usr/local/popcorn/aarch64/lib/libc.a(__errno_location.o)
 .debug_ranges  0x00000000000010a0       0x30 0x1 /usr/local/popcorn/aarch64/lib/libc.a(strerror.o)
 .debug_ranges  0x00000000000010d0        0x0 0x1 /usr/local/popcorn/aarch64/lib/libc.a(_Exit.o)
 .debug_ranges  0x00000000000010d0       0x40 0x1 /usr/local/popcorn/aarch64/lib/libc.a(__lctrans.o)
 .debug_ranges  0x0000000000001110        0x0 0x1 /usr/local/popcorn/aarch64/lib/libc.a(__fpclassifyl.o)
 .debug_ranges  0x0000000000001110        0x0 0x1 /usr/local/popcorn/aarch64/lib/libc.a(__signbitl.o)
 .debug_ranges  0x0000000000001110        0x0 0x1 /usr/local/popcorn/aarch64/lib/libc.a(frexpl.o)
 .debug_ranges  0x0000000000001110       0x60 0x1 /usr/local/popcorn/aarch64/lib/libc.a(mmap.o)
 .debug_ranges  0x0000000000001170        0x0 0x1 /usr/local/popcorn/aarch64/lib/libc.a(mprotect.o)
 .debug_ranges  0x0000000000001170       0x30 0x1 /usr/local/popcorn/aarch64/lib/libc.a(munmap.o)
 .debug_ranges  0x00000000000011a0        0x0 0x1 /usr/local/popcorn/aarch64/lib/libc.a(wctomb.o)
 .debug_ranges  0x00000000000011a0       0x40 0x1 /usr/local/popcorn/aarch64/lib/libc.a(block.o)
 .debug_ranges  0x00000000000011e0       0x60 0x1 /usr/local/popcorn/aarch64/lib/libc.a(__lockfile.o)
 .debug_ranges  0x0000000000001240       0x30 0x1 /usr/local/popcorn/aarch64/lib/libc.a(__stdio_close.o)
 .debug_ranges  0x0000000000001270        0x0 0x1 /usr/local/popcorn/aarch64/lib/libc.a(__stdio_seek.o)
 .debug_ranges  0x0000000000001270       0x30 0x1 /usr/local/popcorn/aarch64/lib/libc.a(__stdio_write.o)
 .debug_ranges  0x00000000000012a0        0x0 0x1 /usr/local/popcorn/aarch64/lib/libc.a(__stdout_write.o)
 .debug_ranges  0x00000000000012a0        0x0 0x1 /usr/local/popcorn/aarch64/lib/libc.a(fputc.o)
 .debug_ranges  0x00000000000012a0       0x60 0x1 /usr/local/popcorn/aarch64/lib/libc.a(fwrite.o)
 .debug_ranges  0x0000000000001300       0x30 0x1 /usr/local/popcorn/aarch64/lib/libc.a(ofl.o)
 .debug_ranges  0x0000000000001330        0x0 0x1 /usr/local/popcorn/aarch64/lib/libc.a(memchr.o)
 .debug_ranges  0x0000000000001330        0x0 0x1 /usr/local/popcorn/aarch64/lib/libc.a(memcpy.o)
 .debug_ranges  0x0000000000001330       0x90 0x1 /usr/local/popcorn/aarch64/lib/libc.a(__lock.o)
 .debug_ranges  0x00000000000013c0       0x30 0x1 /usr/local/popcorn/aarch64/lib/libc.a(__timedwait.o)
 .debug_ranges  0x00000000000013f0       0x60 0x1 /usr/local/popcorn/aarch64/lib/libc.a(__wait.o)
 .debug_ranges  0x0000000000001450        0x0 0x1 /usr/local/popcorn/aarch64/lib/libc.a(clock_gettime.o)
 .debug_ranges  0x0000000000001450        0x0 0x1 /usr/local/popcorn/aarch64/lib/libc.a(nanosleep.o)
 .debug_ranges  0x0000000000001450        0x0 0x1 /usr/local/popcorn/aarch64/lib/libc.a(syscall_ret.o)
 .debug_ranges  0x0000000000001450        0x0 0x1 /usr/local/popcorn/aarch64/lib/libc.a(wcrtomb.o)
 .debug_ranges  0x0000000000001450        0x0 0x1 /usr/local/popcorn/aarch64/lib/libc.a(__overflow.o)
 .debug_ranges  0x0000000000001450       0x30 0x1 /usr/local/popcorn/aarch64/lib/libc.a(__towrite.o)
 .debug_ranges  0x0000000000001480       0x30 0x1 /usr/local/popcorn/aarch64/lib/libc.a(__syscall_cp.o)
 .debug_ranges  0x00000000000014b0       0x30 0x1 /usr/local/popcorn/aarch64/lib/libc.a(__stdio_exit.o)
 .debug_ranges  0x00000000000014e0      0x160 0x1 /usr/local/popcorn/aarch64/lib/libmigrate.a(migrate.o)
 .debug_ranges  0x0000000000001640       0x40 0x1 /usr/local/popcorn/aarch64/lib/libmigrate.a(trigger.o)
 .debug_ranges  0x0000000000001680       0xd0 0x1 /usr/local/popcorn/aarch64/lib/libmigrate.a(mapping.o)
 .debug_ranges  0x0000000000001750       0xe0 0x1 /usr/local/popcorn/aarch64/lib/libstack-transform.a(userspace.o)
 .debug_ranges  0x0000000000001830       0x50 0x1 /usr/local/popcorn/aarch64/lib/libstack-transform.a(init.o)
 .debug_ranges  0x0000000000001880      0x370 0x1 /usr/local/popcorn/aarch64/lib/libstack-transform.a(rewrite.o)
 .debug_ranges  0x0000000000001bf0      0x130 0x1 /usr/local/popcorn/aarch64/lib/libstack-transform.a(unwind.o)
 .debug_ranges  0x0000000000001d20       0xf0 0x1 /usr/local/popcorn/aarch64/lib/libstack-transform.a(util.o)
 .debug_ranges  0x0000000000001e10       0x40 0x1 /usr/local/popcorn/aarch64/lib/libstack-transform.a(properties.o)
 .debug_ranges  0x0000000000001e50      0x120 0x1 /usr/local/popcorn/aarch64/lib/libstack-transform.a(regs.o)
 .debug_ranges  0x0000000000001f70       0x40 0x1 /usr/local/popcorn/aarch64/lib/libstack-transform.a(properties.o)
 .debug_ranges  0x0000000000001fb0      0x120 0x1 /usr/local/popcorn/aarch64/lib/libstack-transform.a(regs.o)
 .debug_ranges  0x00000000000020d0       0x40 0x1 /usr/local/popcorn/aarch64/lib/libstack-transform.a(properties.o)
 .debug_ranges  0x0000000000002110      0x120 0x1 /usr/local/popcorn/aarch64/lib/libstack-transform.a(regs.o)
 .debug_ranges  0x0000000000002230      0x410 0x1 /usr/local/popcorn/aarch64/lib/libstack-transform.a(data.o)
 .debug_ranges  0x0000000000002640       0x50 0x1 /usr/local/popcorn/aarch64/lib/libc.a(arch_crash.o)
 .debug_ranges  0x0000000000002690       0x30 0x1 /usr/local/popcorn/aarch64/lib/libc.a(getenv.o)
 .debug_ranges  0x00000000000026c0       0x40 0x1 /usr/local/popcorn/aarch64/lib/libc.a(platform.o)
 .debug_ranges  0x0000000000002700        0x0 0x1 /usr/local/popcorn/aarch64/lib/libc.a(assert.o)
 .debug_ranges  0x0000000000002700       0x30 0x1 /usr/local/popcorn/aarch64/lib/libc.a(open.o)
 .debug_ranges  0x0000000000002730       0x70 0x1 /usr/local/popcorn/aarch64/lib/libc.a(calloc.o)
 .debug_ranges  0x00000000000027a0       0x40 0x1 /usr/local/popcorn/aarch64/lib/libc.a(lite_malloc.o)
 .debug_ranges  0x00000000000027e0     0x1080 0x1 /usr/local/popcorn/aarch64/lib/libc.a(malloc.o)
 .debug_ranges  0x0000000000003860     0x1cd0 0x1 /usr/local/popcorn/aarch64/lib/libc.a(popcorn_malloc.o)
 .debug_ranges  0x0000000000005530        0x0 0x1 /usr/local/popcorn/aarch64/lib/libc.a(getrlimit.o)
 .debug_ranges  0x0000000000005530        0x0 0x1 /usr/local/popcorn/aarch64/lib/libc.a(syscall.o)
 .debug_ranges  0x0000000000005530        0x0 0x1 /usr/local/popcorn/aarch64/lib/libc.a(madvise.o)
 .debug_ranges  0x0000000000005530       0x30 0x1 /usr/local/popcorn/aarch64/lib/libc.a(mremap.o)
 .debug_ranges  0x0000000000005560       0xa0 0x1 /usr/local/popcorn/aarch64/lib/libc.a(sigaction.o)
 .debug_ranges  0x0000000000005600        0x0 0x1 /usr/local/popcorn/aarch64/lib/libc.a(sigemptyset.o)
 .debug_ranges  0x0000000000005600        0x0 0x1 /usr/local/popcorn/aarch64/lib/libc.a(sigrtmin.o)
 .debug_ranges  0x0000000000005600       0x30 0x1 /usr/local/popcorn/aarch64/lib/libc.a(fclose.o)
 .debug_ranges  0x0000000000005630       0x30 0x1 /usr/local/popcorn/aarch64/lib/libc.a(fflush.o)
 .debug_ranges  0x0000000000005660       0x30 0x1 /usr/local/popcorn/aarch64/lib/libc.a(fopen.o)
 .debug_ranges  0x0000000000005690        0x0 0x1 /usr/local/popcorn/aarch64/lib/libc.a(fprintf.o)
 .debug_ranges  0x0000000000005690        0x0 0x1 /usr/local/popcorn/aarch64/lib/libc.a(fscanf.o)
 .debug_ranges  0x0000000000005690       0x40 0x1 /usr/local/popcorn/aarch64/lib/libc.a(fseek.o)
 .debug_ranges  0x00000000000056d0        0x0 0x1 /usr/local/popcorn/aarch64/lib/libc.a(getc.o)
 .debug_ranges  0x00000000000056d0        0x0 0x1 /usr/local/popcorn/aarch64/lib/libc.a(getline.o)
 .debug_ranges  0x00000000000056d0        0x0 0x1 /usr/local/popcorn/aarch64/lib/libc.a(snprintf.o)
 .debug_ranges  0x00000000000056d0        0x0 0x1 /usr/local/popcorn/aarch64/lib/libc.a(sscanf.o)
 .debug_ranges  0x00000000000056d0       0xb0 0x1 /usr/local/popcorn/aarch64/lib/libc.a(vfscanf.o)
 .debug_ranges  0x0000000000005780       0x30 0x1 /usr/local/popcorn/aarch64/lib/libc.a(vsnprintf.o)
 .debug_ranges  0x00000000000057b0       0x30 0x1 /usr/local/popcorn/aarch64/lib/libc.a(vsscanf.o)
 .debug_ranges  0x00000000000057e0        0x0 0x1 /usr/local/popcorn/aarch64/lib/libc.a(bsearch.o)
 .debug_ranges  0x00000000000057e0      0x180 0x1 /usr/local/popcorn/aarch64/lib/libc.a(qsort.o)
 .debug_ranges  0x0000000000005960       0x80 0x1 /usr/local/popcorn/aarch64/lib/libc.a(strtol.o)
 .debug_ranges  0x00000000000059e0        0x0 0x1 /usr/local/popcorn/aarch64/lib/libc.a(strchr.o)
 .debug_ranges  0x00000000000059e0        0x0 0x1 /usr/local/popcorn/aarch64/lib/libc.a(strchrnul.o)
 .debug_ranges  0x00000000000059e0        0x0 0x1 /usr/local/popcorn/aarch64/lib/libc.a(strcmp.o)
 .debug_ranges  0x00000000000059e0        0x0 0x1 /usr/local/popcorn/aarch64/lib/libc.a(strncmp.o)
 .debug_ranges  0x00000000000059e0      0x110 0x1 /usr/local/popcorn/aarch64/lib/libc.a(pthread_attr_get.o)
 .debug_ranges  0x0000000000005af0        0x0 0x1 /usr/local/popcorn/aarch64/lib/libc.a(pthread_getattr_np.o)
 .debug_ranges  0x0000000000005af0       0x30 0x1 /usr/local/popcorn/aarch64/lib/libc.a(pthread_migrate.o)
 .debug_ranges  0x0000000000005b20        0x0 0x1 /usr/local/popcorn/aarch64/lib/libc.a(pthread_self.o)
 .debug_ranges  0x0000000000005b20       0x30 0x1 /usr/local/popcorn/aarch64/lib/libc.a(close.o)
 .debug_ranges  0x0000000000005b50        0x0 0x1 /usr/local/popcorn/aarch64/lib/libc.a(lseek.o)
 .debug_ranges  0x0000000000005b50        0x0 0x1 /usr/local/popcorn/aarch64/lib/libc.a(read.o)
 .debug_ranges  0x0000000000005b50        0x0 0x1 /usr/local/popcorn/aarch64/lib/libc.a(abort.o)
 .debug_ranges  0x0000000000005b50      0x5e0 0x1 /usr/local/popcorn/aarch64/lib/libc.a(floatscan.o)
 .debug_ranges  0x0000000000006130       0x30 0x1 /usr/local/popcorn/aarch64/lib/libc.a(intscan.o)
 .debug_ranges  0x0000000000006160       0x30 0x1 /usr/local/popcorn/aarch64/lib/libc.a(shgetc.o)
 .debug_ranges  0x0000000000006190      0x1d0 0x1 /usr/local/popcorn/aarch64/lib/libc.a(expand_heap.o)
 .debug_ranges  0x0000000000006360        0x0 0x1 /usr/local/popcorn/aarch64/lib/libc.a(fabs.o)
 .debug_ranges  0x0000000000006360        0x0 0x1 /usr/local/popcorn/aarch64/lib/libc.a(copysignl.o)
 .debug_ranges  0x0000000000006360        0x0 0x1 /usr/local/popcorn/aarch64/lib/libc.a(fmodl.o)
 .debug_ranges  0x0000000000006360        0x0 0x1 /usr/local/popcorn/aarch64/lib/libc.a(scalbn.o)
 .debug_ranges  0x0000000000006360        0x0 0x1 /usr/local/popcorn/aarch64/lib/libc.a(scalbnl.o)
 .debug_ranges  0x0000000000006360        0x0 0x1 /usr/local/popcorn/aarch64/lib/libc.a(mbrtowc.o)
 .debug_ranges  0x0000000000006360        0x0 0x1 /usr/local/popcorn/aarch64/lib/libc.a(mbsinit.o)
 .debug_ranges  0x0000000000006360       0x50 0x1 /usr/local/popcorn/aarch64/lib/libc.a(restore.o)
 .debug_ranges  0x00000000000063b0        0x0 0x1 /usr/local/popcorn/aarch64/lib/libc.a(raise.o)
 .debug_ranges  0x00000000000063b0       0x30 0x1 /usr/local/popcorn/aarch64/lib/libc.a(__fdopen.o)
 .debug_ranges  0x00000000000063e0        0x0 0x1 /usr/local/popcorn/aarch64/lib/libc.a(__fmodeflags.o)
 .debug_ranges  0x00000000000063e0        0x0 0x1 /usr/local/popcorn/aarch64/lib/libc.a(__stdio_read.o)
 .debug_ranges  0x00000000000063e0        0x0 0x1 /usr/local/popcorn/aarch64/lib/libc.a(__string_read.o)
 .debug_ranges  0x00000000000063e0        0x0 0x1 /usr/local/popcorn/aarch64/lib/libc.a(__uflow.o)
 .debug_ranges  0x00000000000063e0       0x30 0x1 /usr/local/popcorn/aarch64/lib/libc.a(getdelim.o)
 .debug_ranges  0x0000000000006410        0x0 0x1 /usr/local/popcorn/aarch64/lib/libc.a(ofl_add.o)
 .debug_ranges  0x0000000000006410        0x0 0x1 /usr/local/popcorn/aarch64/lib/libc.a(internal.o)
 .debug_ranges  0x0000000000006410       0x30 0x1 /usr/local/popcorn/aarch64/lib/libc.a(__toread.o)

.debug_pubnames
                0x0000000000000000     0x31d5
 .debug_pubnames
                0x0000000000000000       0x34 0x1 popcorn-migratemep_aarch64.o
 .debug_pubnames
                0x0000000000000034       0x1f 0x1 /usr/local/popcorn/aarch64/lib/crt1.o
 .debug_pubnames
                0x0000000000000053       0xa4 0x1 /usr/local/popcorn/aarch64/lib/libc.a(__libc_start_main.o)
 .debug_pubnames
                0x00000000000000f7       0x38 0x1 /usr/local/popcorn/aarch64/lib/libc.a(exit.o)
 .debug_pubnames
                0x000000000000012f       0x5a 0x1 /usr/local/popcorn/aarch64/lib/libc.a(libc.o)
 .debug_pubnames
                0x0000000000000189       0x1d 0x1 /usr/local/popcorn/aarch64/lib/libc.a(perror.o)
 .debug_pubnames
                0x00000000000001a6       0x1d 0x1 /usr/local/popcorn/aarch64/lib/libc.a(printf.o)
 .debug_pubnames
                0x00000000000001c3       0x3d 0x1 /usr/local/popcorn/aarch64/lib/libc.a(stderr.o)
 .debug_pubnames
                0x0000000000000200       0x3d 0x1 /usr/local/popcorn/aarch64/lib/libc.a(stdout.o)
 .debug_pubnames
                0x000000000000023d       0xb9 0x1 /usr/local/popcorn/aarch64/lib/libc.a(vfprintf.o)
 .debug_pubnames
                0x00000000000002f6       0x1d 0x1 /usr/local/popcorn/aarch64/lib/libc.a(memset.o)
 .debug_pubnames
                0x0000000000000313       0x1d 0x1 /usr/local/popcorn/aarch64/lib/libc.a(strlen.o)
 .debug_pubnames
                0x0000000000000330       0x1e 0x1 /usr/local/popcorn/aarch64/lib/libc.a(strnlen.o)
 .debug_pubnames
                0x000000000000034e      0x1c0 0x1 /usr/local/popcorn/aarch64/lib/libc.a(pthread_create.o)
 .debug_pubnames
                0x000000000000050e       0x73 0x1 /usr/local/popcorn/aarch64/lib/libc.a(pthread_join.o)
 .debug_pubnames
                0x0000000000000581       0x42 0x1 /usr/local/popcorn/aarch64/lib/libc.a(pthread_setcancelstate.o)
 .debug_pubnames
                0x00000000000005c3       0x35 0x1 /usr/local/popcorn/aarch64/lib/libc.a(pthread_testcancel.o)
 .debug_pubnames
                0x00000000000005f8       0x8f 0x1 /usr/local/popcorn/aarch64/lib/libc.a(vmlock.o)
 .debug_pubnames
                0x0000000000000687       0x2c 0x1 /usr/local/popcorn/aarch64/lib/libc.a(getpid.o)
 .debug_pubnames
                0x00000000000006b3       0x2c 0x1 /usr/local/popcorn/aarch64/lib/libc.a(gettid.o)
 .debug_pubnames
                0x00000000000006df       0x1c 0x1 /usr/local/popcorn/aarch64/lib/libc.a(sleep.o)
 .debug_pubnames
                0x00000000000006fb       0x20 0x1 /usr/local/popcorn/aarch64/lib/libc.a(__environ.o)
 .debug_pubnames
                0x000000000000071b       0x8a 0x1 /usr/local/popcorn/aarch64/lib/libc.a(__init_tls.o)
 .debug_pubnames
                0x00000000000007a5       0x3a 0x1 /usr/local/popcorn/aarch64/lib/libc.a(__errno_location.o)
 .debug_pubnames
                0x00000000000007df       0x58 0x1 /usr/local/popcorn/aarch64/lib/libc.a(strerror.o)
 .debug_pubnames
                0x0000000000000837       0x2b 0x1 /usr/local/popcorn/aarch64/lib/libc.a(_Exit.o)
 .debug_pubnames
                0x0000000000000862       0x4f 0x1 /usr/local/popcorn/aarch64/lib/libc.a(__lctrans.o)
 .debug_pubnames
                0x00000000000008b1       0x24 0x1 /usr/local/popcorn/aarch64/lib/libc.a(__fpclassifyl.o)
 .debug_pubnames
                0x00000000000008d5       0x21 0x1 /usr/local/popcorn/aarch64/lib/libc.a(__signbitl.o)
 .debug_pubnames
                0x00000000000008f6       0x1d 0x1 /usr/local/popcorn/aarch64/lib/libc.a(frexpl.o)
 .debug_pubnames
                0x0000000000000913       0x36 0x1 /usr/local/popcorn/aarch64/lib/libc.a(mmap.o)
 .debug_pubnames
                0x0000000000000949       0x30 0x1 /usr/local/popcorn/aarch64/lib/libc.a(mprotect.o)
 .debug_pubnames
                0x0000000000000979       0x38 0x1 /usr/local/popcorn/aarch64/lib/libc.a(munmap.o)
 .debug_pubnames
                0x00000000000009b1       0x1d 0x1 /usr/local/popcorn/aarch64/lib/libc.a(wctomb.o)
 .debug_pubnames
                0x00000000000009ce       0x78 0x1 /usr/local/popcorn/aarch64/lib/libc.a(block.o)
 .debug_pubnames
                0x0000000000000a46       0x95 0x1 /usr/local/popcorn/aarch64/lib/libc.a(__lockfile.o)
 .debug_pubnames
                0x0000000000000adb       0x3d 0x1 /usr/local/popcorn/aarch64/lib/libc.a(__stdio_close.o)
 .debug_pubnames
                0x0000000000000b18       0x32 0x1 /usr/local/popcorn/aarch64/lib/libc.a(__stdio_seek.o)
 .debug_pubnames
                0x0000000000000b4a       0x33 0x1 /usr/local/popcorn/aarch64/lib/libc.a(__stdio_write.o)
 .debug_pubnames
                0x0000000000000b7d       0x34 0x1 /usr/local/popcorn/aarch64/lib/libc.a(__stdout_write.o)
 .debug_pubnames
                0x0000000000000bb1       0x1c 0x1 /usr/local/popcorn/aarch64/lib/libc.a(fputc.o)
 .debug_pubnames
                0x0000000000000bcd       0x2b 0x1 /usr/local/popcorn/aarch64/lib/libc.a(fwrite.o)
 .debug_pubnames
                0x0000000000000bf8       0x4c 0x1 /usr/local/popcorn/aarch64/lib/libc.a(ofl.o)
 .debug_pubnames
                0x0000000000000c44       0x1d 0x1 /usr/local/popcorn/aarch64/lib/libc.a(memchr.o)
 .debug_pubnames
                0x0000000000000c61       0x1d 0x1 /usr/local/popcorn/aarch64/lib/libc.a(memcpy.o)
 .debug_pubnames
                0x0000000000000c7e       0x7b 0x1 /usr/local/popcorn/aarch64/lib/libc.a(__lock.o)
 .debug_pubnames
                0x0000000000000cf9       0x35 0x1 /usr/local/popcorn/aarch64/lib/libc.a(__timedwait.o)
 .debug_pubnames
                0x0000000000000d2e       0x70 0x1 /usr/local/popcorn/aarch64/lib/libc.a(__wait.o)
 .debug_pubnames
                0x0000000000000d9e       0x35 0x1 /usr/local/popcorn/aarch64/lib/libc.a(clock_gettime.o)
 .debug_pubnames
                0x0000000000000dd3       0x20 0x1 /usr/local/popcorn/aarch64/lib/libc.a(nanosleep.o)
 .debug_pubnames
                0x0000000000000df3       0x24 0x1 /usr/local/popcorn/aarch64/lib/libc.a(syscall_ret.o)
 .debug_pubnames
                0x0000000000000e17       0x31 0x1 /usr/local/popcorn/aarch64/lib/libc.a(wcrtomb.o)
 .debug_pubnames
                0x0000000000000e48       0x21 0x1 /usr/local/popcorn/aarch64/lib/libc.a(__overflow.o)
 .debug_pubnames
                0x0000000000000e69       0x3f 0x1 /usr/local/popcorn/aarch64/lib/libc.a(__towrite.o)
 .debug_pubnames
                0x0000000000000ea8       0x2c 0x1 /usr/local/popcorn/aarch64/lib/libc.a(__syscall_cp.o)
 .debug_pubnames
                0x0000000000000ed4       0x41 0x1 /usr/local/popcorn/aarch64/lib/libc.a(__stdio_exit.o)
 .debug_pubnames
                0x0000000000000f15      0x10d 0x1 /usr/local/popcorn/aarch64/lib/libmigrate.a(migrate.o)
 .debug_pubnames
                0x0000000000001022       0x77 0x1 /usr/local/popcorn/aarch64/lib/libmigrate.a(trigger.o)
 .debug_pubnames
                0x0000000000001099       0xb4 0x1 /usr/local/popcorn/aarch64/lib/libmigrate.a(mapping.o)
 .debug_pubnames
                0x000000000000114d      0x179 0x1 /usr/local/popcorn/aarch64/lib/libstack-transform.a(userspace.o)
 .debug_pubnames
                0x00000000000012c6       0x49 0x1 /usr/local/popcorn/aarch64/lib/libstack-transform.a(init.o)
 .debug_pubnames
                0x000000000000130f      0x183 0x1 /usr/local/popcorn/aarch64/lib/libstack-transform.a(rewrite.o)
 .debug_pubnames
                0x0000000000001492      0x129 0x1 /usr/local/popcorn/aarch64/lib/libstack-transform.a(unwind.o)
 .debug_pubnames
                0x00000000000015bb       0xda 0x1 /usr/local/popcorn/aarch64/lib/libstack-transform.a(util.o)
 .debug_pubnames
                0x0000000000001695       0xad 0x1 /usr/local/popcorn/aarch64/lib/libstack-transform.a(properties.o)
 .debug_pubnames
                0x0000000000001742      0x189 0x1 /usr/local/popcorn/aarch64/lib/libstack-transform.a(regs.o)
 .debug_pubnames
                0x00000000000018cb       0xb9 0x1 /usr/local/popcorn/aarch64/lib/libstack-transform.a(properties.o)
 .debug_pubnames
                0x0000000000001984      0x1ad 0x1 /usr/local/popcorn/aarch64/lib/libstack-transform.a(regs.o)
 .debug_pubnames
                0x0000000000001b31       0xa7 0x1 /usr/local/popcorn/aarch64/lib/libstack-transform.a(properties.o)
 .debug_pubnames
                0x0000000000001bd8      0x177 0x1 /usr/local/popcorn/aarch64/lib/libstack-transform.a(regs.o)
 .debug_pubnames
                0x0000000000001d4f      0x113 0x1 /usr/local/popcorn/aarch64/lib/libstack-transform.a(data.o)
 .debug_pubnames
                0x0000000000001e62       0x5b 0x1 /usr/local/popcorn/aarch64/lib/libc.a(arch_crash.o)
 .debug_pubnames
                0x0000000000001ebd       0x1d 0x1 /usr/local/popcorn/aarch64/lib/libc.a(getenv.o)
 .debug_pubnames
                0x0000000000001eda       0x75 0x1 /usr/local/popcorn/aarch64/lib/libc.a(platform.o)
 .debug_pubnames
                0x0000000000001f4f       0x24 0x1 /usr/local/popcorn/aarch64/lib/libc.a(assert.o)
 .debug_pubnames
                0x0000000000001f73       0x2a 0x1 /usr/local/popcorn/aarch64/lib/libc.a(open.o)
 .debug_pubnames
                0x0000000000001f9d       0x47 0x1 /usr/local/popcorn/aarch64/lib/libc.a(calloc.o)
 .debug_pubnames
                0x0000000000001fe4       0x3f 0x1 /usr/local/popcorn/aarch64/lib/libc.a(lite_malloc.o)
 .debug_pubnames
                0x0000000000002023      0x1e9 0x1 /usr/local/popcorn/aarch64/lib/libc.a(malloc.o)
 .debug_pubnames
                0x000000000000220c      0x238 0x1 /usr/local/popcorn/aarch64/lib/libc.a(popcorn_malloc.o)
 .debug_pubnames
                0x0000000000002444       0x3e 0x1 /usr/local/popcorn/aarch64/lib/libc.a(getrlimit.o)
 .debug_pubnames
                0x0000000000002482       0x2d 0x1 /usr/local/popcorn/aarch64/lib/libc.a(syscall.o)
 .debug_pubnames
                0x00000000000024af       0x2f 0x1 /usr/local/popcorn/aarch64/lib/libc.a(madvise.o)
 .debug_pubnames
                0x00000000000024de       0x38 0x1 /usr/local/popcorn/aarch64/lib/libc.a(mremap.o)
 .debug_pubnames
                0x0000000000002516       0xbd 0x1 /usr/local/popcorn/aarch64/lib/libc.a(sigaction.o)
 .debug_pubnames
                0x00000000000025d3       0x22 0x1 /usr/local/popcorn/aarch64/lib/libc.a(sigemptyset.o)
 .debug_pubnames
                0x00000000000025f5       0x2e 0x1 /usr/local/popcorn/aarch64/lib/libc.a(sigrtmin.o)
 .debug_pubnames
                0x0000000000002623       0x27 0x1 /usr/local/popcorn/aarch64/lib/libc.a(fclose.o)
 .debug_pubnames
                0x000000000000264a       0x27 0x1 /usr/local/popcorn/aarch64/lib/libc.a(fflush.o)
 .debug_pubnames
                0x0000000000002671       0x49 0x1 /usr/local/popcorn/aarch64/lib/libc.a(fopen.o)
 .debug_pubnames
                0x00000000000026ba       0x1e 0x1 /usr/local/popcorn/aarch64/lib/libc.a(fprintf.o)
 .debug_pubnames
                0x00000000000026d8       0x1d 0x1 /usr/local/popcorn/aarch64/lib/libc.a(fscanf.o)
 .debug_pubnames
                0x00000000000026f5       0x3f 0x1 /usr/local/popcorn/aarch64/lib/libc.a(fseek.o)
 .debug_pubnames
                0x0000000000002734       0x1b 0x1 /usr/local/popcorn/aarch64/lib/libc.a(getc.o)
 .debug_pubnames
                0x000000000000274f       0x1e 0x1 /usr/local/popcorn/aarch64/lib/libc.a(getline.o)
 .debug_pubnames
                0x000000000000276d       0x1f 0x1 /usr/local/popcorn/aarch64/lib/libc.a(snprintf.o)
 .debug_pubnames
                0x000000000000278c       0x1d 0x1 /usr/local/popcorn/aarch64/lib/libc.a(sscanf.o)
 .debug_pubnames
                0x00000000000027a9       0x44 0x1 /usr/local/popcorn/aarch64/lib/libc.a(vfscanf.o)
 .debug_pubnames
                0x00000000000027ed       0x2d 0x1 /usr/local/popcorn/aarch64/lib/libc.a(vsnprintf.o)
 .debug_pubnames
                0x000000000000281a       0x2a 0x1 /usr/local/popcorn/aarch64/lib/libc.a(vsscanf.o)
 .debug_pubnames
                0x0000000000002844       0x1e 0x1 /usr/local/popcorn/aarch64/lib/libc.a(bsearch.o)
 .debug_pubnames
                0x0000000000002862       0x7c 0x1 /usr/local/popcorn/aarch64/lib/libc.a(qsort.o)
 .debug_pubnames
                0x00000000000028de       0x69 0x1 /usr/local/popcorn/aarch64/lib/libc.a(strtol.o)
 .debug_pubnames
                0x0000000000002947       0x1d 0x1 /usr/local/popcorn/aarch64/lib/libc.a(strchr.o)
 .debug_pubnames
                0x0000000000002964       0x22 0x1 /usr/local/popcorn/aarch64/lib/libc.a(strchrnul.o)
 .debug_pubnames
                0x0000000000002986       0x1d 0x1 /usr/local/popcorn/aarch64/lib/libc.a(strcmp.o)
 .debug_pubnames
                0x00000000000029a3       0x1e 0x1 /usr/local/popcorn/aarch64/lib/libc.a(strncmp.o)
 .debug_pubnames
                0x00000000000029c1      0x206 0x1 /usr/local/popcorn/aarch64/lib/libc.a(pthread_attr_get.o)
 .debug_pubnames
                0x0000000000002bc7       0x29 0x1 /usr/local/popcorn/aarch64/lib/libc.a(pthread_getattr_np.o)
 .debug_pubnames
                0x0000000000002bf0       0x5f 0x1 /usr/local/popcorn/aarch64/lib/libc.a(pthread_migrate.o)
 .debug_pubnames
                0x0000000000002c4f       0x41 0x1 /usr/local/popcorn/aarch64/lib/libc.a(pthread_self.o)
 .debug_pubnames
                0x0000000000002c90       0x26 0x1 /usr/local/popcorn/aarch64/lib/libc.a(close.o)
 .debug_pubnames
                0x0000000000002cb6       0x2b 0x1 /usr/local/popcorn/aarch64/lib/libc.a(lseek.o)
 .debug_pubnames
                0x0000000000002ce1       0x1b 0x1 /usr/local/popcorn/aarch64/lib/libc.a(read.o)
 .debug_pubnames
                0x0000000000002cfc       0x28 0x1 /usr/local/popcorn/aarch64/lib/libc.a(abort.o)
 .debug_pubnames
                0x0000000000002d24       0x66 0x1 /usr/local/popcorn/aarch64/lib/libc.a(floatscan.o)
 .debug_pubnames
                0x0000000000002d8a       0x38 0x1 /usr/local/popcorn/aarch64/lib/libc.a(intscan.o)
 .debug_pubnames
                0x0000000000002dc2       0x2b 0x1 /usr/local/popcorn/aarch64/lib/libc.a(shgetc.o)
 .debug_pubnames
                0x0000000000002ded      0x129 0x1 /usr/local/popcorn/aarch64/lib/libc.a(expand_heap.o)
 .debug_pubnames
                0x0000000000002f16       0x1b 0x1 /usr/local/popcorn/aarch64/lib/libc.a(fabs.o)
 .debug_pubnames
                0x0000000000002f31       0x20 0x1 /usr/local/popcorn/aarch64/lib/libc.a(copysignl.o)
 .debug_pubnames
                0x0000000000002f51       0x3f 0x1 /usr/local/popcorn/aarch64/lib/libc.a(fmodl.o)
 .debug_pubnames
                0x0000000000002f90       0x1d 0x1 /usr/local/popcorn/aarch64/lib/libc.a(scalbn.o)
 .debug_pubnames
                0x0000000000002fad       0x1e 0x1 /usr/local/popcorn/aarch64/lib/libc.a(scalbnl.o)
 .debug_pubnames
                0x0000000000002fcb       0x44 0x1 /usr/local/popcorn/aarch64/lib/libc.a(mbrtowc.o)
 .debug_pubnames
                0x000000000000300f       0x1e 0x1 /usr/local/popcorn/aarch64/lib/libc.a(mbsinit.o)
 .debug_pubnames
                0x000000000000302d       0x3a 0x1 /usr/local/popcorn/aarch64/lib/libc.a(raise.o)
 .debug_pubnames
                0x0000000000003067       0x3d 0x1 /usr/local/popcorn/aarch64/lib/libc.a(__fdopen.o)
 .debug_pubnames
                0x00000000000030a4       0x23 0x1 /usr/local/popcorn/aarch64/lib/libc.a(__fmodeflags.o)
 .debug_pubnames
                0x00000000000030c7       0x32 0x1 /usr/local/popcorn/aarch64/lib/libc.a(__stdio_read.o)
 .debug_pubnames
                0x00000000000030f9       0x24 0x1 /usr/local/popcorn/aarch64/lib/libc.a(__string_read.o)
 .debug_pubnames
                0x000000000000311d       0x1e 0x1 /usr/local/popcorn/aarch64/lib/libc.a(__uflow.o)
 .debug_pubnames
                0x000000000000313b       0x1f 0x1 /usr/local/popcorn/aarch64/lib/libc.a(getdelim.o)
 .debug_pubnames
                0x000000000000315a       0x20 0x1 /usr/local/popcorn/aarch64/lib/libc.a(ofl_add.o)
 .debug_pubnames
                0x000000000000317a       0x1e 0x1 /usr/local/popcorn/aarch64/lib/libc.a(internal.o)
 .debug_pubnames
                0x0000000000003198       0x3d 0x1 /usr/local/popcorn/aarch64/lib/libc.a(__toread.o)

.debug_pubtypes
                0x0000000000000000     0x522f
 .debug_pubtypes
                0x0000000000000000       0x28 0x1 popcorn-migratemep_aarch64.o
 .debug_pubtypes
                0x0000000000000028       0x30 0x1 /usr/local/popcorn/aarch64/lib/crt1.o
 .debug_pubtypes
                0x0000000000000058       0x74 0x1 /usr/local/popcorn/aarch64/lib/libc.a(__libc_start_main.o)
 .debug_pubtypes
                0x00000000000000cc       0x3e 0x1 /usr/local/popcorn/aarch64/lib/libc.a(exit.o)
 .debug_pubtypes
                0x000000000000010a       0x72 0x1 /usr/local/popcorn/aarch64/lib/libc.a(libc.o)
 .debug_pubtypes
                0x000000000000017c       0xc2 0x1 /usr/local/popcorn/aarch64/lib/libc.a(perror.o)
 .debug_pubtypes
                0x000000000000023e       0x53 0x1 /usr/local/popcorn/aarch64/lib/libc.a(printf.o)
 .debug_pubtypes
                0x0000000000000291       0xc2 0x1 /usr/local/popcorn/aarch64/lib/libc.a(stderr.o)
 .debug_pubtypes
                0x0000000000000353       0xc2 0x1 /usr/local/popcorn/aarch64/lib/libc.a(stdout.o)
 .debug_pubtypes
                0x0000000000000415      0x1a1 0x1 /usr/local/popcorn/aarch64/lib/libc.a(vfprintf.o)
 .debug_pubtypes
                0x00000000000005b6       0x86 0x1 /usr/local/popcorn/aarch64/lib/libc.a(memset.o)
 .debug_pubtypes
                0x000000000000063c       0x4a 0x1 /usr/local/popcorn/aarch64/lib/libc.a(strlen.o)
 .debug_pubtypes
                0x0000000000000686       0x3c 0x1 /usr/local/popcorn/aarch64/lib/libc.a(strnlen.o)
 .debug_pubtypes
                0x00000000000006c2      0x151 0x1 /usr/local/popcorn/aarch64/lib/libc.a(pthread_create.o)
 .debug_pubtypes
                0x0000000000000813       0xdb 0x1 /usr/local/popcorn/aarch64/lib/libc.a(pthread_join.o)
 .debug_pubtypes
                0x00000000000008ee       0xb5 0x1 /usr/local/popcorn/aarch64/lib/libc.a(pthread_setcancelstate.o)
 .debug_pubtypes
                0x00000000000009a3       0x38 0x1 /usr/local/popcorn/aarch64/lib/libc.a(vmlock.o)
 .debug_pubtypes
                0x00000000000009db       0x31 0x1 /usr/local/popcorn/aarch64/lib/libc.a(getpid.o)
 .debug_pubtypes
                0x0000000000000a0c       0x31 0x1 /usr/local/popcorn/aarch64/lib/libc.a(gettid.o)
 .debug_pubtypes
                0x0000000000000a3d       0x48 0x1 /usr/local/popcorn/aarch64/lib/libc.a(sleep.o)
 .debug_pubtypes
                0x0000000000000a85       0x1b 0x1 /usr/local/popcorn/aarch64/lib/libc.a(__environ.o)
 .debug_pubtypes
                0x0000000000000aa0      0x161 0x1 /usr/local/popcorn/aarch64/lib/libc.a(__init_tls.o)
 .debug_pubtypes
                0x0000000000000c01       0xb5 0x1 /usr/local/popcorn/aarch64/lib/libc.a(__errno_location.o)
 .debug_pubtypes
                0x0000000000000cb6       0xc6 0x1 /usr/local/popcorn/aarch64/lib/libc.a(strerror.o)
 .debug_pubtypes
                0x0000000000000d7c       0x27 0x1 /usr/local/popcorn/aarch64/lib/libc.a(_Exit.o)
 .debug_pubtypes
                0x0000000000000da3       0xc6 0x1 /usr/local/popcorn/aarch64/lib/libc.a(__lctrans.o)
 .debug_pubtypes
                0x0000000000000e69       0x97 0x1 /usr/local/popcorn/aarch64/lib/libc.a(__fpclassifyl.o)
 .debug_pubtypes
                0x0000000000000f00       0x97 0x1 /usr/local/popcorn/aarch64/lib/libc.a(__signbitl.o)
 .debug_pubtypes
                0x0000000000000f97       0x97 0x1 /usr/local/popcorn/aarch64/lib/libc.a(frexpl.o)
 .debug_pubtypes
                0x000000000000102e       0x52 0x1 /usr/local/popcorn/aarch64/lib/libc.a(mmap.o)
 .debug_pubtypes
                0x0000000000001080       0x51 0x1 /usr/local/popcorn/aarch64/lib/libc.a(mprotect.o)
 .debug_pubtypes
                0x00000000000010d1       0x48 0x1 /usr/local/popcorn/aarch64/lib/libc.a(munmap.o)
 .debug_pubtypes
                0x0000000000001119       0x40 0x1 /usr/local/popcorn/aarch64/lib/libc.a(wctomb.o)
 .debug_pubtypes
                0x0000000000001159       0x35 0x1 /usr/local/popcorn/aarch64/lib/libc.a(block.o)
 .debug_pubtypes
                0x000000000000118e      0x100 0x1 /usr/local/popcorn/aarch64/lib/libc.a(__lockfile.o)
 .debug_pubtypes
                0x000000000000128e       0xc2 0x1 /usr/local/popcorn/aarch64/lib/libc.a(__stdio_close.o)
 .debug_pubtypes
                0x0000000000001350       0xc2 0x1 /usr/local/popcorn/aarch64/lib/libc.a(__stdio_seek.o)
 .debug_pubtypes
                0x0000000000001412       0xd8 0x1 /usr/local/popcorn/aarch64/lib/libc.a(__stdio_write.o)
 .debug_pubtypes
                0x00000000000014ea       0xe1 0x1 /usr/local/popcorn/aarch64/lib/libc.a(__stdout_write.o)
 .debug_pubtypes
                0x00000000000015cb       0xc2 0x1 /usr/local/popcorn/aarch64/lib/libc.a(fputc.o)
 .debug_pubtypes
                0x000000000000168d       0xc2 0x1 /usr/local/popcorn/aarch64/lib/libc.a(fwrite.o)
 .debug_pubtypes
                0x000000000000174f       0xc2 0x1 /usr/local/popcorn/aarch64/lib/libc.a(ofl.o)
 .debug_pubtypes
                0x0000000000001811       0x5b 0x1 /usr/local/popcorn/aarch64/lib/libc.a(memchr.o)
 .debug_pubtypes
                0x000000000000186c       0x71 0x1 /usr/local/popcorn/aarch64/lib/libc.a(memcpy.o)
 .debug_pubtypes
                0x00000000000018dd       0x27 0x1 /usr/local/popcorn/aarch64/lib/libc.a(__lock.o)
 .debug_pubtypes
                0x0000000000001904       0x4d 0x1 /usr/local/popcorn/aarch64/lib/libc.a(__timedwait.o)
 .debug_pubtypes
                0x0000000000001951       0x38 0x1 /usr/local/popcorn/aarch64/lib/libc.a(__wait.o)
 .debug_pubtypes
                0x0000000000001989       0x4d 0x1 /usr/local/popcorn/aarch64/lib/libc.a(clock_gettime.o)
 .debug_pubtypes
                0x00000000000019d6       0x3f 0x1 /usr/local/popcorn/aarch64/lib/libc.a(nanosleep.o)
 .debug_pubtypes
                0x0000000000001a15       0x35 0x1 /usr/local/popcorn/aarch64/lib/libc.a(syscall_ret.o)
 .debug_pubtypes
                0x0000000000001a4a      0x101 0x1 /usr/local/popcorn/aarch64/lib/libc.a(wcrtomb.o)
 .debug_pubtypes
                0x0000000000001b4b       0xc2 0x1 /usr/local/popcorn/aarch64/lib/libc.a(__overflow.o)
 .debug_pubtypes
                0x0000000000001c0d       0xc2 0x1 /usr/local/popcorn/aarch64/lib/libc.a(__towrite.o)
 .debug_pubtypes
                0x0000000000001ccf       0x31 0x1 /usr/local/popcorn/aarch64/lib/libc.a(__syscall_cp.o)
 .debug_pubtypes
                0x0000000000001d00       0xc2 0x1 /usr/local/popcorn/aarch64/lib/libc.a(__stdio_exit.o)
 .debug_pubtypes
                0x0000000000001dc2       0x87 0x1 /usr/local/popcorn/aarch64/lib/libmigrate.a(migrate.o)
 .debug_pubtypes
                0x0000000000001e49       0xc4 0x1 /usr/local/popcorn/aarch64/lib/libmigrate.a(trigger.o)
 .debug_pubtypes
                0x0000000000001f0d       0x67 0x1 /usr/local/popcorn/aarch64/lib/libmigrate.a(mapping.o)
 .debug_pubtypes
                0x0000000000001f74      0x1ec 0x1 /usr/local/popcorn/aarch64/lib/libstack-transform.a(userspace.o)
 .debug_pubtypes
                0x0000000000002160      0x1cf 0x1 /usr/local/popcorn/aarch64/lib/libstack-transform.a(init.o)
 .debug_pubtypes
                0x000000000000232f      0x1ec 0x1 /usr/local/popcorn/aarch64/lib/libstack-transform.a(rewrite.o)
 .debug_pubtypes
                0x000000000000251b      0x1ec 0x1 /usr/local/popcorn/aarch64/lib/libstack-transform.a(unwind.o)
 .debug_pubtypes
                0x0000000000002707      0x20e 0x1 /usr/local/popcorn/aarch64/lib/libstack-transform.a(util.o)
 .debug_pubtypes
                0x0000000000002915       0x8f 0x1 /usr/local/popcorn/aarch64/lib/libstack-transform.a(properties.o)
 .debug_pubtypes
                0x00000000000029a4       0xa0 0x1 /usr/local/popcorn/aarch64/lib/libstack-transform.a(regs.o)
 .debug_pubtypes
                0x0000000000002a44       0x8f 0x1 /usr/local/popcorn/aarch64/lib/libstack-transform.a(properties.o)
 .debug_pubtypes
                0x0000000000002ad3       0x8c 0x1 /usr/local/popcorn/aarch64/lib/libstack-transform.a(regs.o)
 .debug_pubtypes
                0x0000000000002b5f       0x8f 0x1 /usr/local/popcorn/aarch64/lib/libstack-transform.a(properties.o)
 .debug_pubtypes
                0x0000000000002bee       0xcd 0x1 /usr/local/popcorn/aarch64/lib/libstack-transform.a(regs.o)
 .debug_pubtypes
                0x0000000000002cbb      0x20c 0x1 /usr/local/popcorn/aarch64/lib/libstack-transform.a(data.o)
 .debug_pubtypes
                0x0000000000002ec7       0x29 0x1 /usr/local/popcorn/aarch64/lib/libc.a(arch_crash.o)
 .debug_pubtypes
                0x0000000000002ef0       0x3c 0x1 /usr/local/popcorn/aarch64/lib/libc.a(getenv.o)
 .debug_pubtypes
                0x0000000000002f2c       0x73 0x1 /usr/local/popcorn/aarch64/lib/libc.a(platform.o)
 .debug_pubtypes
                0x0000000000002f9f       0x23 0x1 /usr/local/popcorn/aarch64/lib/libc.a(assert.o)
 .debug_pubtypes
                0x0000000000002fc2       0x7c 0x1 /usr/local/popcorn/aarch64/lib/libc.a(open.o)
 .debug_pubtypes
                0x000000000000303e       0x3b 0x1 /usr/local/popcorn/aarch64/lib/libc.a(calloc.o)
 .debug_pubtypes
                0x0000000000003079       0x52 0x1 /usr/local/popcorn/aarch64/lib/libc.a(lite_malloc.o)
 .debug_pubtypes
                0x00000000000030cb       0xae 0x1 /usr/local/popcorn/aarch64/lib/libc.a(malloc.o)
 .debug_pubtypes
                0x0000000000003179       0xae 0x1 /usr/local/popcorn/aarch64/lib/libc.a(popcorn_malloc.o)
 .debug_pubtypes
                0x0000000000003227       0x6e 0x1 /usr/local/popcorn/aarch64/lib/libc.a(getrlimit.o)
 .debug_pubtypes
                0x0000000000003295       0x69 0x1 /usr/local/popcorn/aarch64/lib/libc.a(syscall.o)
 .debug_pubtypes
                0x00000000000032fe       0x48 0x1 /usr/local/popcorn/aarch64/lib/libc.a(madvise.o)
 .debug_pubtypes
                0x0000000000003346       0x78 0x1 /usr/local/popcorn/aarch64/lib/libc.a(mremap.o)
 .debug_pubtypes
                0x00000000000033be       0xfc 0x1 /usr/local/popcorn/aarch64/lib/libc.a(sigaction.o)
 .debug_pubtypes
                0x00000000000034ba       0x4c 0x1 /usr/local/popcorn/aarch64/lib/libc.a(sigemptyset.o)
 .debug_pubtypes
                0x0000000000003506       0x1a 0x1 /usr/local/popcorn/aarch64/lib/libc.a(sigrtmin.o)
 .debug_pubtypes
                0x0000000000003520       0xc2 0x1 /usr/local/popcorn/aarch64/lib/libc.a(fclose.o)
 .debug_pubtypes
                0x00000000000035e2       0xc2 0x1 /usr/local/popcorn/aarch64/lib/libc.a(fflush.o)
 .debug_pubtypes
                0x00000000000036a4       0xc2 0x1 /usr/local/popcorn/aarch64/lib/libc.a(fopen.o)
 .debug_pubtypes
                0x0000000000003766       0x5c 0x1 /usr/local/popcorn/aarch64/lib/libc.a(fprintf.o)
 .debug_pubtypes
                0x00000000000037c2       0x5c 0x1 /usr/local/popcorn/aarch64/lib/libc.a(fscanf.o)
 .debug_pubtypes
                0x000000000000381e       0xc2 0x1 /usr/local/popcorn/aarch64/lib/libc.a(fseek.o)
 .debug_pubtypes
                0x00000000000038e0       0xc2 0x1 /usr/local/popcorn/aarch64/lib/libc.a(getc.o)
 .debug_pubtypes
                0x00000000000039a2       0x5e 0x1 /usr/local/popcorn/aarch64/lib/libc.a(getline.o)
 .debug_pubtypes
                0x0000000000003a00       0x74 0x1 /usr/local/popcorn/aarch64/lib/libc.a(snprintf.o)
 .debug_pubtypes
                0x0000000000003a74       0x53 0x1 /usr/local/popcorn/aarch64/lib/libc.a(sscanf.o)
 .debug_pubtypes
                0x0000000000003ac7      0x17c 0x1 /usr/local/popcorn/aarch64/lib/libc.a(vfscanf.o)
 .debug_pubtypes
                0x0000000000003c43       0xfd 0x1 /usr/local/popcorn/aarch64/lib/libc.a(vsnprintf.o)
 .debug_pubtypes
                0x0000000000003d40       0xf2 0x1 /usr/local/popcorn/aarch64/lib/libc.a(vsscanf.o)
 .debug_pubtypes
                0x0000000000003e32       0x44 0x1 /usr/local/popcorn/aarch64/lib/libc.a(bsearch.o)
 .debug_pubtypes
                0x0000000000003e76       0x6e 0x1 /usr/local/popcorn/aarch64/lib/libc.a(qsort.o)
 .debug_pubtypes
                0x0000000000003ee4      0x10a 0x1 /usr/local/popcorn/aarch64/lib/libc.a(strtol.o)
 .debug_pubtypes
                0x0000000000003fee       0x35 0x1 /usr/local/popcorn/aarch64/lib/libc.a(strchr.o)
 .debug_pubtypes
                0x0000000000004023       0x64 0x1 /usr/local/popcorn/aarch64/lib/libc.a(strchrnul.o)
 .debug_pubtypes
                0x0000000000004087       0x35 0x1 /usr/local/popcorn/aarch64/lib/libc.a(strcmp.o)
 .debug_pubtypes
                0x00000000000040bc       0x56 0x1 /usr/local/popcorn/aarch64/lib/libc.a(strncmp.o)
 .debug_pubtypes
                0x0000000000004112      0x104 0x1 /usr/local/popcorn/aarch64/lib/libc.a(pthread_attr_get.o)
 .debug_pubtypes
                0x0000000000004216       0xd6 0x1 /usr/local/popcorn/aarch64/lib/libc.a(pthread_getattr_np.o)
 .debug_pubtypes
                0x00000000000042ec       0xb5 0x1 /usr/local/popcorn/aarch64/lib/libc.a(pthread_migrate.o)
 .debug_pubtypes
                0x00000000000043a1       0xc3 0x1 /usr/local/popcorn/aarch64/lib/libc.a(pthread_self.o)
 .debug_pubtypes
                0x0000000000004464       0x27 0x1 /usr/local/popcorn/aarch64/lib/libc.a(close.o)
 .debug_pubtypes
                0x000000000000448b       0x31 0x1 /usr/local/popcorn/aarch64/lib/libc.a(lseek.o)
 .debug_pubtypes
                0x00000000000044bc       0x54 0x1 /usr/local/popcorn/aarch64/lib/libc.a(read.o)
 .debug_pubtypes
                0x0000000000004510       0x1b 0x1 /usr/local/popcorn/aarch64/lib/libc.a(abort.o)
 .debug_pubtypes
                0x000000000000452b       0xfe 0x1 /usr/local/popcorn/aarch64/lib/libc.a(floatscan.o)
 .debug_pubtypes
                0x0000000000004629       0xdd 0x1 /usr/local/popcorn/aarch64/lib/libc.a(intscan.o)
 .debug_pubtypes
                0x0000000000004706       0xc2 0x1 /usr/local/popcorn/aarch64/lib/libc.a(shgetc.o)
 .debug_pubtypes
                0x00000000000047c8       0x67 0x1 /usr/local/popcorn/aarch64/lib/libc.a(expand_heap.o)
 .debug_pubtypes
                0x000000000000482f       0x1d 0x1 /usr/local/popcorn/aarch64/lib/libc.a(fabs.o)
 .debug_pubtypes
                0x000000000000484c       0x8f 0x1 /usr/local/popcorn/aarch64/lib/libc.a(copysignl.o)
 .debug_pubtypes
                0x00000000000048db       0xc7 0x1 /usr/local/popcorn/aarch64/lib/libc.a(fmodl.o)
 .debug_pubtypes
                0x00000000000049a2       0x55 0x1 /usr/local/popcorn/aarch64/lib/libc.a(scalbn.o)
 .debug_pubtypes
                0x00000000000049f7       0x97 0x1 /usr/local/popcorn/aarch64/lib/libc.a(scalbnl.o)
 .debug_pubtypes
                0x0000000000004a8e      0x11d 0x1 /usr/local/popcorn/aarch64/lib/libc.a(mbrtowc.o)
 .debug_pubtypes
                0x0000000000004bab       0x49 0x1 /usr/local/popcorn/aarch64/lib/libc.a(mbsinit.o)
 .debug_pubtypes
                0x0000000000004bf4       0x59 0x1 /usr/local/popcorn/aarch64/lib/libc.a(raise.o)
 .debug_pubtypes
                0x0000000000004c4d       0xe1 0x1 /usr/local/popcorn/aarch64/lib/libc.a(__fdopen.o)
 .debug_pubtypes
                0x0000000000004d2e       0x23 0x1 /usr/local/popcorn/aarch64/lib/libc.a(__fmodeflags.o)
 .debug_pubtypes
                0x0000000000004d51       0xd8 0x1 /usr/local/popcorn/aarch64/lib/libc.a(__stdio_read.o)
 .debug_pubtypes
                0x0000000000004e29       0xc2 0x1 /usr/local/popcorn/aarch64/lib/libc.a(__string_read.o)
 .debug_pubtypes
                0x0000000000004eeb       0xc2 0x1 /usr/local/popcorn/aarch64/lib/libc.a(__uflow.o)
 .debug_pubtypes
                0x0000000000004fad       0xce 0x1 /usr/local/popcorn/aarch64/lib/libc.a(getdelim.o)
 .debug_pubtypes
                0x000000000000507b       0xc2 0x1 /usr/local/popcorn/aarch64/lib/libc.a(ofl_add.o)
 .debug_pubtypes
                0x000000000000513d       0x30 0x1 /usr/local/popcorn/aarch64/lib/libc.a(internal.o)
 .debug_pubtypes
                0x000000000000516d       0xc2 0x1 /usr/local/popcorn/aarch64/lib/libc.a(__toread.o)

.comment        0x0000000000000000       0x35
 ** merge strings
                0x0000000000000000       0x35

.stack_transform.unwind
                0x0000000000000000      0x138
 .stack_transform.unwind
                0x0000000000000000       0x38 0x4 popcorn-migratemep_aarch64.o
 .stack_transform.unwind
                0x0000000000000038       0x18 0x4 /usr/local/popcorn/aarch64/lib/libc.a(__libc_start_main.o)
 .stack_transform.unwind
                0x0000000000000050       0x18 0x4 /usr/local/popcorn/aarch64/lib/libc.a(pthread_create.o)
 .stack_transform.unwind
                0x0000000000000068       0x88 0x4 /usr/local/popcorn/aarch64/lib/libmigrate.a(migrate.o)
 .stack_transform.unwind
                0x00000000000000f0       0x10 0x4 /usr/local/popcorn/aarch64/lib/libmigrate.a(trigger.o)
 .stack_transform.unwind
                0x0000000000000100       0x38 0x4 /usr/local/popcorn/aarch64/lib/libmigrate.a(mapping.o)

.stack_transform.unwind_arange
                0x0000000000000000      0x120
 .stack_transform.unwind_arange
                0x0000000000000000       0x30 0x8 popcorn-migratemep_aarch64.o
 .stack_transform.unwind_arange
                0x0000000000000030       0x10 0x8 /usr/local/popcorn/aarch64/lib/libc.a(__libc_start_main.o)
 .stack_transform.unwind_arange
                0x0000000000000040       0x20 0x8 /usr/local/popcorn/aarch64/lib/libc.a(pthread_create.o)
 .stack_transform.unwind_arange
                0x0000000000000060       0x70 0x8 /usr/local/popcorn/aarch64/lib/libmigrate.a(migrate.o)
 .stack_transform.unwind_arange
                0x00000000000000d0       0x20 0x8 /usr/local/popcorn/aarch64/lib/libmigrate.a(trigger.o)
 .stack_transform.unwind_arange
                0x00000000000000f0       0x30 0x8 /usr/local/popcorn/aarch64/lib/libmigrate.a(mapping.o)

.debug_line     0x0000000000000000     0xf8f3
 .debug_line    0x0000000000000000      0x133 0x1 popcorn-migratemep_aarch64.o
 .debug_line    0x0000000000000133       0x4b 0x1 /usr/local/popcorn/aarch64/lib/crt1.o
 .debug_line    0x000000000000017e      0x275 0x1 /usr/local/popcorn/aarch64/lib/libc.a(__libc_start_main.o)
 .debug_line    0x00000000000003f3       0xaa 0x1 /usr/local/popcorn/aarch64/lib/libc.a(exit.o)
 .debug_line    0x000000000000049d       0x6c 0x1 /usr/local/popcorn/aarch64/lib/libc.a(libc.o)
 .debug_line    0x0000000000000509       0xd1 0x1 /usr/local/popcorn/aarch64/lib/libc.a(perror.o)
 .debug_line    0x00000000000005da       0x82 0x1 /usr/local/popcorn/aarch64/lib/libc.a(printf.o)
 .debug_line    0x000000000000065c       0x7b 0x1 /usr/local/popcorn/aarch64/lib/libc.a(stderr.o)
 .debug_line    0x00000000000006d7       0x7b 0x1 /usr/local/popcorn/aarch64/lib/libc.a(stdout.o)
 .debug_line    0x0000000000000752     0x1326 0x1 /usr/local/popcorn/aarch64/lib/libc.a(vfprintf.o)
 .debug_line    0x0000000000001a78      0x110 0x1 /usr/local/popcorn/aarch64/lib/libc.a(memset.o)
 .debug_line    0x0000000000001b88       0x9e 0x1 /usr/local/popcorn/aarch64/lib/libc.a(strlen.o)
 .debug_line    0x0000000000001c26       0x77 0x1 /usr/local/popcorn/aarch64/lib/libc.a(strnlen.o)
 .debug_line    0x0000000000001c9d      0x673 0x1 /usr/local/popcorn/aarch64/lib/libc.a(pthread_create.o)
 .debug_line    0x0000000000002310      0x174 0x1 /usr/local/popcorn/aarch64/lib/libc.a(pthread_join.o)
 .debug_line    0x0000000000002484       0xf3 0x1 /usr/local/popcorn/aarch64/lib/libc.a(pthread_setcancelstate.o)
 .debug_line    0x0000000000002577       0x6c 0x1 /usr/local/popcorn/aarch64/lib/libc.a(pthread_testcancel.o)
 .debug_line    0x00000000000025e3      0x161 0x1 /usr/local/popcorn/aarch64/lib/libc.a(vmlock.o)
 .debug_line    0x0000000000002744       0x9a 0x1 /usr/local/popcorn/aarch64/lib/libc.a(getpid.o)
 .debug_line    0x00000000000027de       0x9a 0x1 /usr/local/popcorn/aarch64/lib/libc.a(gettid.o)
 .debug_line    0x0000000000002878       0x7b 0x1 /usr/local/popcorn/aarch64/lib/libc.a(sleep.o)
 .debug_line    0x00000000000028f3       0x34 0x1 /usr/local/popcorn/aarch64/lib/libc.a(__environ.o)
 .debug_line    0x0000000000002927      0x284 0x1 /usr/local/popcorn/aarch64/lib/libc.a(__init_tls.o)
 .debug_line    0x0000000000002bab       0xdf 0x1 /usr/local/popcorn/aarch64/lib/libc.a(__errno_location.o)
 .debug_line    0x0000000000002c8a      0x128 0x1 /usr/local/popcorn/aarch64/lib/libc.a(strerror.o)
 .debug_line    0x0000000000002db2       0x7c 0x1 /usr/local/popcorn/aarch64/lib/libc.a(_Exit.o)
 .debug_line    0x0000000000002e2e      0x11c 0x1 /usr/local/popcorn/aarch64/lib/libc.a(__lctrans.o)
 .debug_line    0x0000000000002f4a       0xaa 0x1 /usr/local/popcorn/aarch64/lib/libc.a(__fpclassifyl.o)
 .debug_line    0x0000000000002ff4       0x87 0x1 /usr/local/popcorn/aarch64/lib/libc.a(__signbitl.o)
 .debug_line    0x000000000000307b       0xba 0x1 /usr/local/popcorn/aarch64/lib/libc.a(frexpl.o)
 .debug_line    0x0000000000003135       0xf0 0x1 /usr/local/popcorn/aarch64/lib/libc.a(mmap.o)
 .debug_line    0x0000000000003225       0xc2 0x1 /usr/local/popcorn/aarch64/lib/libc.a(mprotect.o)
 .debug_line    0x00000000000032e7       0xb8 0x1 /usr/local/popcorn/aarch64/lib/libc.a(munmap.o)
 .debug_line    0x000000000000339f       0x71 0x1 /usr/local/popcorn/aarch64/lib/libc.a(wctomb.o)
 .debug_line    0x0000000000003410       0xd1 0x1 /usr/local/popcorn/aarch64/lib/libc.a(block.o)
 .debug_line    0x00000000000034e1      0x1a5 0x1 /usr/local/popcorn/aarch64/lib/libc.a(__lockfile.o)
 .debug_line    0x0000000000003686       0xec 0x1 /usr/local/popcorn/aarch64/lib/libc.a(__stdio_close.o)
 .debug_line    0x0000000000003772       0xcd 0x1 /usr/local/popcorn/aarch64/lib/libc.a(__stdio_seek.o)
 .debug_line    0x000000000000383f      0x171 0x1 /usr/local/popcorn/aarch64/lib/libc.a(__stdio_write.o)
 .debug_line    0x00000000000039b0       0xff 0x1 /usr/local/popcorn/aarch64/lib/libc.a(__stdout_write.o)
 .debug_line    0x0000000000003aaf       0xcf 0x1 /usr/local/popcorn/aarch64/lib/libc.a(fputc.o)
 .debug_line    0x0000000000003b7e      0x12c 0x1 /usr/local/popcorn/aarch64/lib/libc.a(fwrite.o)
 .debug_line    0x0000000000003caa       0xaa 0x1 /usr/local/popcorn/aarch64/lib/libc.a(ofl.o)
 .debug_line    0x0000000000003d54       0xe7 0x1 /usr/local/popcorn/aarch64/lib/libc.a(memchr.o)
 .debug_line    0x0000000000003e3b      0x2ba 0x1 /usr/local/popcorn/aarch64/lib/libc.a(memcpy.o)
 .debug_line    0x00000000000040f5      0x134 0x1 /usr/local/popcorn/aarch64/lib/libc.a(__lock.o)
 .debug_line    0x0000000000004229       0xf4 0x1 /usr/local/popcorn/aarch64/lib/libc.a(__timedwait.o)
 .debug_line    0x000000000000431d      0x125 0x1 /usr/local/popcorn/aarch64/lib/libc.a(__wait.o)
 .debug_line    0x0000000000004442       0x56 0x1 /usr/local/popcorn/aarch64/lib/libc.a(__cleartid_exit_nostack.o)
 .debug_line    0x0000000000004498       0x47 0x1 /usr/local/popcorn/aarch64/lib/libc.a(__set_thread_area.o)
 .debug_line    0x00000000000044df       0x42 0x1 /usr/local/popcorn/aarch64/lib/libc.a(__unmapself.o)
 .debug_line    0x0000000000004521       0x48 0x1 /usr/local/popcorn/aarch64/lib/libc.a(clone.o)
 .debug_line    0x0000000000004569       0xd4 0x1 /usr/local/popcorn/aarch64/lib/libc.a(clock_gettime.o)
 .debug_line    0x000000000000463d       0x72 0x1 /usr/local/popcorn/aarch64/lib/libc.a(nanosleep.o)
 .debug_line    0x00000000000046af       0x61 0x1 /usr/local/popcorn/aarch64/lib/libc.a(syscall_ret.o)
 .debug_line    0x0000000000004710      0x14b 0x1 /usr/local/popcorn/aarch64/lib/libc.a(wcrtomb.o)
 .debug_line    0x000000000000485b       0xd3 0x1 /usr/local/popcorn/aarch64/lib/libc.a(__overflow.o)
 .debug_line    0x000000000000492e       0xd6 0x1 /usr/local/popcorn/aarch64/lib/libc.a(__towrite.o)
 .debug_line    0x0000000000004a04       0x84 0x1 /usr/local/popcorn/aarch64/lib/libc.a(__syscall_cp.o)
 .debug_line    0x0000000000004a88       0x44 0x1 /usr/local/popcorn/aarch64/lib/libc.a(syscall.o)
 .debug_line    0x0000000000004acc       0xfc 0x1 /usr/local/popcorn/aarch64/lib/libc.a(__stdio_exit.o)
 .debug_line    0x0000000000004bc8      0x37e 0x1 /usr/local/popcorn/aarch64/lib/libmigrate.a(migrate.o)
 .debug_line    0x0000000000004f46      0x127 0x1 /usr/local/popcorn/aarch64/lib/libmigrate.a(trigger.o)
 .debug_line    0x000000000000506d      0x337 0x1 /usr/local/popcorn/aarch64/lib/libmigrate.a(mapping.o)
 .debug_line    0x00000000000053a4      0x411 0x1 /usr/local/popcorn/aarch64/lib/libstack-transform.a(userspace.o)
 .debug_line    0x00000000000057b5      0x2a3 0x1 /usr/local/popcorn/aarch64/lib/libstack-transform.a(init.o)
 .debug_line    0x0000000000005a58      0x8c5 0x1 /usr/local/popcorn/aarch64/lib/libstack-transform.a(rewrite.o)
 .debug_line    0x000000000000631d      0x4e1 0x1 /usr/local/popcorn/aarch64/lib/libstack-transform.a(unwind.o)
 .debug_line    0x00000000000067fe      0x3df 0x1 /usr/local/popcorn/aarch64/lib/libstack-transform.a(util.o)
 .debug_line    0x0000000000006bdd       0xf8 0x1 /usr/local/popcorn/aarch64/lib/libstack-transform.a(properties.o)
 .debug_line    0x0000000000006cd5      0x527 0x1 /usr/local/popcorn/aarch64/lib/libstack-transform.a(regs.o)
 .debug_line    0x00000000000071fc       0xfe 0x1 /usr/local/popcorn/aarch64/lib/libstack-transform.a(properties.o)
 .debug_line    0x00000000000072fa      0x544 0x1 /usr/local/popcorn/aarch64/lib/libstack-transform.a(regs.o)
 .debug_line    0x000000000000783e       0xf6 0x1 /usr/local/popcorn/aarch64/lib/libstack-transform.a(properties.o)
 .debug_line    0x0000000000007934      0x3dc 0x1 /usr/local/popcorn/aarch64/lib/libstack-transform.a(regs.o)
 .debug_line    0x0000000000007d10      0x76f 0x1 /usr/local/popcorn/aarch64/lib/libstack-transform.a(data.o)
 .debug_line    0x000000000000847f       0x9d 0x1 /usr/local/popcorn/aarch64/lib/libc.a(arch_crash.o)
 .debug_line    0x000000000000851c       0x89 0x1 /usr/local/popcorn/aarch64/lib/libc.a(getenv.o)
 .debug_line    0x00000000000085a5      0x135 0x1 /usr/local/popcorn/aarch64/lib/libc.a(platform.o)
 .debug_line    0x00000000000086da       0x52 0x1 /usr/local/popcorn/aarch64/lib/libc.a(assert.o)
 .debug_line    0x000000000000872c       0xd9 0x1 /usr/local/popcorn/aarch64/lib/libc.a(open.o)
 .debug_line    0x0000000000008805       0xfc 0x1 /usr/local/popcorn/aarch64/lib/libc.a(calloc.o)
 .debug_line    0x0000000000008901       0xed 0x1 /usr/local/popcorn/aarch64/lib/libc.a(lite_malloc.o)
 .debug_line    0x00000000000089ee      0xfc0 0x1 /usr/local/popcorn/aarch64/lib/libc.a(malloc.o)
 .debug_line    0x00000000000099ae     0x147b 0x1 /usr/local/popcorn/aarch64/lib/libc.a(popcorn_malloc.o)
 .debug_line    0x000000000000ae29      0x124 0x1 /usr/local/popcorn/aarch64/lib/libc.a(getrlimit.o)
 .debug_line    0x000000000000af4d      0x180 0x1 /usr/local/popcorn/aarch64/lib/libc.a(syscall.o)
 .debug_line    0x000000000000b0cd       0xa5 0x1 /usr/local/popcorn/aarch64/lib/libc.a(madvise.o)
 .debug_line    0x000000000000b172       0xff 0x1 /usr/local/popcorn/aarch64/lib/libc.a(mremap.o)
 .debug_line    0x000000000000b271      0x244 0x1 /usr/local/popcorn/aarch64/lib/libc.a(sigaction.o)
 .debug_line    0x000000000000b4b5       0x70 0x1 /usr/local/popcorn/aarch64/lib/libc.a(sigemptyset.o)
 .debug_line    0x000000000000b525       0x4b 0x1 /usr/local/popcorn/aarch64/lib/libc.a(sigrtmin.o)
 .debug_line    0x000000000000b570      0x107 0x1 /usr/local/popcorn/aarch64/lib/libc.a(fclose.o)
 .debug_line    0x000000000000b677      0x146 0x1 /usr/local/popcorn/aarch64/lib/libc.a(fflush.o)
 .debug_line    0x000000000000b7bd      0x125 0x1 /usr/local/popcorn/aarch64/lib/libc.a(fopen.o)
 .debug_line    0x000000000000b8e2       0x76 0x1 /usr/local/popcorn/aarch64/lib/libc.a(fprintf.o)
 .debug_line    0x000000000000b958       0x75 0x1 /usr/local/popcorn/aarch64/lib/libc.a(fscanf.o)
 .debug_line    0x000000000000b9cd      0x120 0x1 /usr/local/popcorn/aarch64/lib/libc.a(fseek.o)
 .debug_line    0x000000000000baed       0xc2 0x1 /usr/local/popcorn/aarch64/lib/libc.a(getc.o)
 .debug_line    0x000000000000bbaf       0x68 0x1 /usr/local/popcorn/aarch64/lib/libc.a(getline.o)
 .debug_line    0x000000000000bc17       0x77 0x1 /usr/local/popcorn/aarch64/lib/libc.a(snprintf.o)
 .debug_line    0x000000000000bc8e       0x75 0x1 /usr/local/popcorn/aarch64/lib/libc.a(sscanf.o)
 .debug_line    0x000000000000bd03      0x61a 0x1 /usr/local/popcorn/aarch64/lib/libc.a(vfscanf.o)
 .debug_line    0x000000000000c31d      0x12f 0x1 /usr/local/popcorn/aarch64/lib/libc.a(vsnprintf.o)
 .debug_line    0x000000000000c44c       0xbb 0x1 /usr/local/popcorn/aarch64/lib/libc.a(vsscanf.o)
 .debug_line    0x000000000000c507       0x83 0x1 /usr/local/popcorn/aarch64/lib/libc.a(bsearch.o)
 .debug_line    0x000000000000c58a      0x3ca 0x1 /usr/local/popcorn/aarch64/lib/libc.a(qsort.o)
 .debug_line    0x000000000000c954      0x16a 0x1 /usr/local/popcorn/aarch64/lib/libc.a(strtol.o)
 .debug_line    0x000000000000cabe       0x53 0x1 /usr/local/popcorn/aarch64/lib/libc.a(strchr.o)
 .debug_line    0x000000000000cb11       0xb0 0x1 /usr/local/popcorn/aarch64/lib/libc.a(strchrnul.o)
 .debug_line    0x000000000000cbc1       0x5b 0x1 /usr/local/popcorn/aarch64/lib/libc.a(strcmp.o)
 .debug_line    0x000000000000cc1c       0x8d 0x1 /usr/local/popcorn/aarch64/lib/libc.a(strncmp.o)
 .debug_line    0x000000000000cca9      0x277 0x1 /usr/local/popcorn/aarch64/lib/libc.a(pthread_attr_get.o)
 .debug_line    0x000000000000cf20      0x127 0x1 /usr/local/popcorn/aarch64/lib/libc.a(pthread_getattr_np.o)
 .debug_line    0x000000000000d047      0x104 0x1 /usr/local/popcorn/aarch64/lib/libc.a(pthread_migrate.o)
 .debug_line    0x000000000000d14b       0xdb 0x1 /usr/local/popcorn/aarch64/lib/libc.a(pthread_self.o)
 .debug_line    0x000000000000d226       0x70 0x1 /usr/local/popcorn/aarch64/lib/libc.a(close.o)
 .debug_line    0x000000000000d296       0x9e 0x1 /usr/local/popcorn/aarch64/lib/libc.a(lseek.o)
 .debug_line    0x000000000000d334       0x69 0x1 /usr/local/popcorn/aarch64/lib/libc.a(read.o)
 .debug_line    0x000000000000d39d       0x74 0x1 /usr/local/popcorn/aarch64/lib/libc.a(abort.o)
 .debug_line    0x000000000000d411      0xd49 0x1 /usr/local/popcorn/aarch64/lib/libc.a(floatscan.o)
 .debug_line    0x000000000000e15a      0x371 0x1 /usr/local/popcorn/aarch64/lib/libc.a(intscan.o)
 .debug_line    0x000000000000e4cb      0x110 0x1 /usr/local/popcorn/aarch64/lib/libc.a(shgetc.o)
 .debug_line    0x000000000000e5db      0x3df 0x1 /usr/local/popcorn/aarch64/lib/libc.a(expand_heap.o)
 .debug_line    0x000000000000e9ba       0x4e 0x1 /usr/local/popcorn/aarch64/lib/libc.a(fabs.o)
 .debug_line    0x000000000000ea08       0x95 0x1 /usr/local/popcorn/aarch64/lib/libc.a(copysignl.o)
 .debug_line    0x000000000000ea9d      0x175 0x1 /usr/local/popcorn/aarch64/lib/libc.a(fmodl.o)
 .debug_line    0x000000000000ec12       0xac 0x1 /usr/local/popcorn/aarch64/lib/libc.a(scalbn.o)
 .debug_line    0x000000000000ecbe       0xc1 0x1 /usr/local/popcorn/aarch64/lib/libc.a(scalbnl.o)
 .debug_line    0x000000000000ed7f      0x185 0x1 /usr/local/popcorn/aarch64/lib/libc.a(mbrtowc.o)
 .debug_line    0x000000000000ef04       0x73 0x1 /usr/local/popcorn/aarch64/lib/libc.a(mbsinit.o)
 .debug_line    0x000000000000ef77       0x50 0x1 /usr/local/popcorn/aarch64/lib/libc.a(restore.o)
 .debug_line    0x000000000000efc7       0xb6 0x1 /usr/local/popcorn/aarch64/lib/libc.a(raise.o)
 .debug_line    0x000000000000f07d      0x1a2 0x1 /usr/local/popcorn/aarch64/lib/libc.a(__fdopen.o)
 .debug_line    0x000000000000f21f       0xb3 0x1 /usr/local/popcorn/aarch64/lib/libc.a(__fmodeflags.o)
 .debug_line    0x000000000000f2d2      0x139 0x1 /usr/local/popcorn/aarch64/lib/libc.a(__stdio_read.o)
 .debug_line    0x000000000000f40b       0xba 0x1 /usr/local/popcorn/aarch64/lib/libc.a(__string_read.o)
 .debug_line    0x000000000000f4c5       0xae 0x1 /usr/local/popcorn/aarch64/lib/libc.a(__uflow.o)
 .debug_line    0x000000000000f573      0x199 0x1 /usr/local/popcorn/aarch64/lib/libc.a(getdelim.o)
 .debug_line    0x000000000000f70c       0xab 0x1 /usr/local/popcorn/aarch64/lib/libc.a(ofl_add.o)
 .debug_line    0x000000000000f7b7       0x58 0x1 /usr/local/popcorn/aarch64/lib/libc.a(internal.o)
 .debug_line    0x000000000000f80f       0xe4 0x1 /usr/local/popcorn/aarch64/lib/libc.a(__toread.o)

.debug_frame    0x0000000000000000     0x36f0
 .debug_frame   0x0000000000000000       0x38 0x8 /usr/local/popcorn/aarch64/lib/crt1.o
 .debug_frame   0x0000000000000038       0xc0 0x8 /usr/local/popcorn/aarch64/lib/libc.a(__libc_start_main.o)
 .debug_frame   0x00000000000000f8       0x80 0x8 /usr/local/popcorn/aarch64/lib/libc.a(exit.o)
 .debug_frame   0x0000000000000178       0x40 0x8 /usr/local/popcorn/aarch64/lib/libc.a(perror.o)
 .debug_frame   0x00000000000001b8       0x40 0x8 /usr/local/popcorn/aarch64/lib/libc.a(printf.o)
 .debug_frame   0x00000000000001f8       0xf0 0x8 /usr/local/popcorn/aarch64/lib/libc.a(vfprintf.o)
 .debug_frame   0x00000000000002e8       0x30 0x8 /usr/local/popcorn/aarch64/lib/libc.a(memset.o)
 .debug_frame   0x0000000000000318       0x30 0x8 /usr/local/popcorn/aarch64/lib/libc.a(strlen.o)
 .debug_frame   0x0000000000000348       0x40 0x8 /usr/local/popcorn/aarch64/lib/libc.a(strnlen.o)
 .debug_frame   0x0000000000000388      0x108 0x8 /usr/local/popcorn/aarch64/lib/libc.a(pthread_create.o)
 .debug_frame   0x0000000000000490       0x80 0x8 /usr/local/popcorn/aarch64/lib/libc.a(pthread_join.o)
 .debug_frame   0x0000000000000510       0x30 0x8 /usr/local/popcorn/aarch64/lib/libc.a(pthread_setcancelstate.o)
 .debug_frame   0x0000000000000540       0x48 0x8 /usr/local/popcorn/aarch64/lib/libc.a(pthread_testcancel.o)
 .debug_frame   0x0000000000000588       0x70 0x8 /usr/local/popcorn/aarch64/lib/libc.a(vmlock.o)
 .debug_frame   0x00000000000005f8       0x30 0x8 /usr/local/popcorn/aarch64/lib/libc.a(getpid.o)
 .debug_frame   0x0000000000000628       0x30 0x8 /usr/local/popcorn/aarch64/lib/libc.a(gettid.o)
 .debug_frame   0x0000000000000658       0x38 0x8 /usr/local/popcorn/aarch64/lib/libc.a(sleep.o)
 .debug_frame   0x0000000000000690       0x90 0x8 /usr/local/popcorn/aarch64/lib/libc.a(__init_tls.o)
 .debug_frame   0x0000000000000720       0x30 0x8 /usr/local/popcorn/aarch64/lib/libc.a(__errno_location.o)
 .debug_frame   0x0000000000000750       0x48 0x8 /usr/local/popcorn/aarch64/lib/libc.a(strerror.o)
 .debug_frame   0x0000000000000798       0x30 0x8 /usr/local/popcorn/aarch64/lib/libc.a(_Exit.o)
 .debug_frame   0x00000000000007c8       0x60 0x8 /usr/local/popcorn/aarch64/lib/libc.a(__lctrans.o)
 .debug_frame   0x0000000000000828       0x38 0x8 /usr/local/popcorn/aarch64/lib/libc.a(__fpclassifyl.o)
 .debug_frame   0x0000000000000860       0x38 0x8 /usr/local/popcorn/aarch64/lib/libc.a(__signbitl.o)
 .debug_frame   0x0000000000000898       0x40 0x8 /usr/local/popcorn/aarch64/lib/libc.a(frexpl.o)
 .debug_frame   0x00000000000008d8       0x60 0x8 /usr/local/popcorn/aarch64/lib/libc.a(mmap.o)
 .debug_frame   0x0000000000000938       0x38 0x8 /usr/local/popcorn/aarch64/lib/libc.a(mprotect.o)
 .debug_frame   0x0000000000000970       0x58 0x8 /usr/local/popcorn/aarch64/lib/libc.a(munmap.o)
 .debug_frame   0x00000000000009c8       0x38 0x8 /usr/local/popcorn/aarch64/lib/libc.a(wctomb.o)
 .debug_frame   0x0000000000000a00       0x60 0x8 /usr/local/popcorn/aarch64/lib/libc.a(block.o)
 .debug_frame   0x0000000000000a60       0x58 0x8 /usr/local/popcorn/aarch64/lib/libc.a(__lockfile.o)
 .debug_frame   0x0000000000000ab8       0x50 0x8 /usr/local/popcorn/aarch64/lib/libc.a(__stdio_close.o)
 .debug_frame   0x0000000000000b08       0x30 0x8 /usr/local/popcorn/aarch64/lib/libc.a(__stdio_seek.o)
 .debug_frame   0x0000000000000b38       0x48 0x8 /usr/local/popcorn/aarch64/lib/libc.a(__stdio_write.o)
 .debug_frame   0x0000000000000b80       0x38 0x8 /usr/local/popcorn/aarch64/lib/libc.a(__stdout_write.o)
 .debug_frame   0x0000000000000bb8       0x40 0x8 /usr/local/popcorn/aarch64/lib/libc.a(fputc.o)
 .debug_frame   0x0000000000000bf8       0x78 0x8 /usr/local/popcorn/aarch64/lib/libc.a(fwrite.o)
 .debug_frame   0x0000000000000c70       0x50 0x8 /usr/local/popcorn/aarch64/lib/libc.a(ofl.o)
 .debug_frame   0x0000000000000cc0       0x30 0x8 /usr/local/popcorn/aarch64/lib/libc.a(memchr.o)
 .debug_frame   0x0000000000000cf0       0x30 0x8 /usr/local/popcorn/aarch64/lib/libc.a(memcpy.o)
 .debug_frame   0x0000000000000d20       0x58 0x8 /usr/local/popcorn/aarch64/lib/libc.a(__lock.o)
 .debug_frame   0x0000000000000d78       0x70 0x8 /usr/local/popcorn/aarch64/lib/libc.a(__timedwait.o)
 .debug_frame   0x0000000000000de8       0x30 0x8 /usr/local/popcorn/aarch64/lib/libc.a(__wait.o)
 .debug_frame   0x0000000000000e18       0x38 0x8 /usr/local/popcorn/aarch64/lib/libc.a(clock_gettime.o)
 .debug_frame   0x0000000000000e50       0x38 0x8 /usr/local/popcorn/aarch64/lib/libc.a(nanosleep.o)
 .debug_frame   0x0000000000000e88       0x40 0x8 /usr/local/popcorn/aarch64/lib/libc.a(syscall_ret.o)
 .debug_frame   0x0000000000000ec8       0x38 0x8 /usr/local/popcorn/aarch64/lib/libc.a(wcrtomb.o)
 .debug_frame   0x0000000000000f00       0x40 0x8 /usr/local/popcorn/aarch64/lib/libc.a(__overflow.o)
 .debug_frame   0x0000000000000f40       0x48 0x8 /usr/local/popcorn/aarch64/lib/libc.a(__towrite.o)
 .debug_frame   0x0000000000000f88       0x48 0x8 /usr/local/popcorn/aarch64/lib/libc.a(__syscall_cp.o)
 .debug_frame   0x0000000000000fd0       0x68 0x8 /usr/local/popcorn/aarch64/lib/libc.a(__stdio_exit.o)
 .debug_frame   0x0000000000001038      0x168 0x8 /usr/local/popcorn/aarch64/lib/libmigrate.a(migrate.o)
 .debug_frame   0x00000000000011a0       0x70 0x8 /usr/local/popcorn/aarch64/lib/libmigrate.a(trigger.o)
 .debug_frame   0x0000000000001210       0xd8 0x8 /usr/local/popcorn/aarch64/lib/libmigrate.a(mapping.o)
 .debug_frame   0x00000000000012e8       0xc0 0x8 /usr/local/popcorn/aarch64/lib/libstack-transform.a(userspace.o)
 .debug_frame   0x00000000000013a8       0x98 0x8 /usr/local/popcorn/aarch64/lib/libstack-transform.a(init.o)
 .debug_frame   0x0000000000001440       0xd0 0x8 /usr/local/popcorn/aarch64/lib/libstack-transform.a(rewrite.o)
 .debug_frame   0x0000000000001510      0x150 0x8 /usr/local/popcorn/aarch64/lib/libstack-transform.a(unwind.o)
 .debug_frame   0x0000000000001660      0x130 0x8 /usr/local/popcorn/aarch64/lib/libstack-transform.a(util.o)
 .debug_frame   0x0000000000001790       0x68 0x8 /usr/local/popcorn/aarch64/lib/libstack-transform.a(properties.o)
 .debug_frame   0x00000000000017f8      0x1d0 0x8 /usr/local/popcorn/aarch64/lib/libstack-transform.a(regs.o)
 .debug_frame   0x00000000000019c8       0x68 0x8 /usr/local/popcorn/aarch64/lib/libstack-transform.a(properties.o)
 .debug_frame   0x0000000000001a30      0x1d0 0x8 /usr/local/popcorn/aarch64/lib/libstack-transform.a(regs.o)
 .debug_frame   0x0000000000001c00       0x68 0x8 /usr/local/popcorn/aarch64/lib/libstack-transform.a(properties.o)
 .debug_frame   0x0000000000001c68      0x1e0 0x8 /usr/local/popcorn/aarch64/lib/libstack-transform.a(regs.o)
 .debug_frame   0x0000000000001e48      0x178 0x8 /usr/local/popcorn/aarch64/lib/libstack-transform.a(data.o)
 .debug_frame   0x0000000000001fc0       0x78 0x8 /usr/local/popcorn/aarch64/lib/libc.a(arch_crash.o)
 .debug_frame   0x0000000000002038       0x40 0x8 /usr/local/popcorn/aarch64/lib/libc.a(getenv.o)
 .debug_frame   0x0000000000002078       0x80 0x8 /usr/local/popcorn/aarch64/lib/libc.a(platform.o)
 .debug_frame   0x00000000000020f8       0x38 0x8 /usr/local/popcorn/aarch64/lib/libc.a(assert.o)
 .debug_frame   0x0000000000002130       0x40 0x8 /usr/local/popcorn/aarch64/lib/libc.a(open.o)
 .debug_frame   0x0000000000002170       0x80 0x8 /usr/local/popcorn/aarch64/lib/libc.a(calloc.o)
 .debug_frame   0x00000000000021f0       0x40 0x8 /usr/local/popcorn/aarch64/lib/libc.a(lite_malloc.o)
 .debug_frame   0x0000000000002230      0x188 0x8 /usr/local/popcorn/aarch64/lib/libc.a(malloc.o)
 .debug_frame   0x00000000000023b8      0x150 0x8 /usr/local/popcorn/aarch64/lib/libc.a(popcorn_malloc.o)
 .debug_frame   0x0000000000002508       0x40 0x8 /usr/local/popcorn/aarch64/lib/libc.a(getrlimit.o)
 .debug_frame   0x0000000000002548       0x38 0x8 /usr/local/popcorn/aarch64/lib/libc.a(syscall.o)
 .debug_frame   0x0000000000002580       0x38 0x8 /usr/local/popcorn/aarch64/lib/libc.a(madvise.o)
 .debug_frame   0x00000000000025b8       0x60 0x8 /usr/local/popcorn/aarch64/lib/libc.a(mremap.o)
 .debug_frame   0x0000000000002618       0x78 0x8 /usr/local/popcorn/aarch64/lib/libc.a(sigaction.o)
 .debug_frame   0x0000000000002690       0x30 0x8 /usr/local/popcorn/aarch64/lib/libc.a(sigemptyset.o)
 .debug_frame   0x00000000000026c0       0x30 0x8 /usr/local/popcorn/aarch64/lib/libc.a(sigrtmin.o)
 .debug_frame   0x00000000000026f0       0x58 0x8 /usr/local/popcorn/aarch64/lib/libc.a(fclose.o)
 .debug_frame   0x0000000000002748       0x40 0x8 /usr/local/popcorn/aarch64/lib/libc.a(fflush.o)
 .debug_frame   0x0000000000002788       0x40 0x8 /usr/local/popcorn/aarch64/lib/libc.a(fopen.o)
 .debug_frame   0x00000000000027c8       0x40 0x8 /usr/local/popcorn/aarch64/lib/libc.a(fprintf.o)
 .debug_frame   0x0000000000002808       0x40 0x8 /usr/local/popcorn/aarch64/lib/libc.a(fscanf.o)
 .debug_frame   0x0000000000002848       0x88 0x8 /usr/local/popcorn/aarch64/lib/libc.a(fseek.o)
 .debug_frame   0x00000000000028d0       0x40 0x8 /usr/local/popcorn/aarch64/lib/libc.a(getc.o)
 .debug_frame   0x0000000000002910       0x30 0x8 /usr/local/popcorn/aarch64/lib/libc.a(getline.o)
 .debug_frame   0x0000000000002940       0x40 0x8 /usr/local/popcorn/aarch64/lib/libc.a(snprintf.o)
 .debug_frame   0x0000000000002980       0x40 0x8 /usr/local/popcorn/aarch64/lib/libc.a(sscanf.o)
 .debug_frame   0x00000000000029c0       0x50 0x8 /usr/local/popcorn/aarch64/lib/libc.a(vfscanf.o)
 .debug_frame   0x0000000000002a10       0x78 0x8 /usr/local/popcorn/aarch64/lib/libc.a(vsnprintf.o)
 .debug_frame   0x0000000000002a88       0x58 0x8 /usr/local/popcorn/aarch64/lib/libc.a(vsscanf.o)
 .debug_frame   0x0000000000002ae0       0x48 0x8 /usr/local/popcorn/aarch64/lib/libc.a(bsearch.o)
 .debug_frame   0x0000000000002b28       0xf8 0x8 /usr/local/popcorn/aarch64/lib/libc.a(qsort.o)
 .debug_frame   0x0000000000002c20       0xd8 0x8 /usr/local/popcorn/aarch64/lib/libc.a(strtol.o)
 .debug_frame   0x0000000000002cf8       0x40 0x8 /usr/local/popcorn/aarch64/lib/libc.a(strchr.o)
 .debug_frame   0x0000000000002d38       0x40 0x8 /usr/local/popcorn/aarch64/lib/libc.a(strchrnul.o)
 .debug_frame   0x0000000000002d78       0x30 0x8 /usr/local/popcorn/aarch64/lib/libc.a(strcmp.o)
 .debug_frame   0x0000000000002da8       0x30 0x8 /usr/local/popcorn/aarch64/lib/libc.a(strncmp.o)
 .debug_frame   0x0000000000002dd8      0x198 0x8 /usr/local/popcorn/aarch64/lib/libc.a(pthread_attr_get.o)
 .debug_frame   0x0000000000002f70       0x40 0x8 /usr/local/popcorn/aarch64/lib/libc.a(pthread_getattr_np.o)
 .debug_frame   0x0000000000002fb0       0x48 0x8 /usr/local/popcorn/aarch64/lib/libc.a(pthread_migrate.o)
 .debug_frame   0x0000000000002ff8       0x30 0x8 /usr/local/popcorn/aarch64/lib/libc.a(pthread_self.o)
 .debug_frame   0x0000000000003028       0x50 0x8 /usr/local/popcorn/aarch64/lib/libc.a(close.o)
 .debug_frame   0x0000000000003078       0x30 0x8 /usr/local/popcorn/aarch64/lib/libc.a(lseek.o)
 .debug_frame   0x00000000000030a8       0x38 0x8 /usr/local/popcorn/aarch64/lib/libc.a(read.o)
 .debug_frame   0x00000000000030e0       0x40 0x8 /usr/local/popcorn/aarch64/lib/libc.a(abort.o)
 .debug_frame   0x0000000000003120       0x88 0x8 /usr/local/popcorn/aarch64/lib/libc.a(floatscan.o)
 .debug_frame   0x00000000000031a8       0x50 0x8 /usr/local/popcorn/aarch64/lib/libc.a(intscan.o)
 .debug_frame   0x00000000000031f8       0x58 0x8 /usr/local/popcorn/aarch64/lib/libc.a(shgetc.o)
 .debug_frame   0x0000000000003250       0xa0 0x8 /usr/local/popcorn/aarch64/lib/libc.a(expand_heap.o)
 .debug_frame   0x00000000000032f0       0x30 0x8 /usr/local/popcorn/aarch64/lib/libc.a(fabs.o)
 .debug_frame   0x0000000000003320       0x38 0x8 /usr/local/popcorn/aarch64/lib/libc.a(copysignl.o)
 .debug_frame   0x0000000000003358       0x48 0x8 /usr/local/popcorn/aarch64/lib/libc.a(fmodl.o)
 .debug_frame   0x00000000000033a0       0x30 0x8 /usr/local/popcorn/aarch64/lib/libc.a(scalbn.o)
 .debug_frame   0x00000000000033d0       0x40 0x8 /usr/local/popcorn/aarch64/lib/libc.a(scalbnl.o)
 .debug_frame   0x0000000000003410       0x38 0x8 /usr/local/popcorn/aarch64/lib/libc.a(mbrtowc.o)
 .debug_frame   0x0000000000003448       0x30 0x8 /usr/local/popcorn/aarch64/lib/libc.a(mbsinit.o)
 .debug_frame   0x0000000000003478       0x40 0x8 /usr/local/popcorn/aarch64/lib/libc.a(raise.o)
 .debug_frame   0x00000000000034b8       0x40 0x8 /usr/local/popcorn/aarch64/lib/libc.a(__fdopen.o)
 .debug_frame   0x00000000000034f8       0x40 0x8 /usr/local/popcorn/aarch64/lib/libc.a(__fmodeflags.o)
 .debug_frame   0x0000000000003538       0x48 0x8 /usr/local/popcorn/aarch64/lib/libc.a(__stdio_read.o)
 .debug_frame   0x0000000000003580       0x48 0x8 /usr/local/popcorn/aarch64/lib/libc.a(__string_read.o)
 .debug_frame   0x00000000000035c8       0x40 0x8 /usr/local/popcorn/aarch64/lib/libc.a(__uflow.o)
 .debug_frame   0x0000000000003608       0x50 0x8 /usr/local/popcorn/aarch64/lib/libc.a(getdelim.o)
 .debug_frame   0x0000000000003658       0x40 0x8 /usr/local/popcorn/aarch64/lib/libc.a(ofl_add.o)
 .debug_frame   0x0000000000003698       0x58 0x8 /usr/local/popcorn/aarch64/lib/libc.a(__toread.o)

.debug_aranges  0x0000000000000000      0x130
 .debug_aranges
                0x0000000000000000       0x30 0x1 /usr/local/popcorn/aarch64/lib/libc.a(__cleartid_exit_nostack.o)
 .debug_aranges
                0x0000000000000030       0x30 0x1 /usr/local/popcorn/aarch64/lib/libc.a(__set_thread_area.o)
 .debug_aranges
                0x0000000000000060       0x30 0x1 /usr/local/popcorn/aarch64/lib/libc.a(__unmapself.o)
 .debug_aranges
                0x0000000000000090       0x30 0x1 /usr/local/popcorn/aarch64/lib/libc.a(clone.o)
 .debug_aranges
                0x00000000000000c0       0x30 0x1 /usr/local/popcorn/aarch64/lib/libc.a(syscall.o)
 .debug_aranges
                0x00000000000000f0       0x40 0x1 /usr/local/popcorn/aarch64/lib/libc.a(restore.o)

.note.gnu.gold-version
                0x0000000000000000       0x1c
 ** note header
                0x0000000000000000       0x10
 ** fill        0x0000000000000010        0x9
 ** zero fill   0x0000000000000019        0x3

.symtab         0x0000000000000000    0x120a8
 ** symtab      0x0000000000000000    0x120a8

.strtab         0x0000000000000000     0x419b
 ** string table
                0x0000000000000000     0x419b

.shstrtab       0x0000000000000000      0x17c
 ** string table
                0x0000000000000000      0x17c
